ARM GAS  C:\Users\behrenb2\AppData\Local\Temp\ccNHrcVd.s 			page 1


   1              		.cpu cortex-m0
   2              		.fpu softvfp
   3              		.eabi_attribute 20, 1
   4              		.eabi_attribute 21, 1
   5              		.eabi_attribute 23, 3
   6              		.eabi_attribute 24, 1
   7              		.eabi_attribute 25, 1
   8              		.eabi_attribute 26, 1
   9              		.eabi_attribute 30, 6
  10              		.eabi_attribute 34, 0
  11              		.eabi_attribute 18, 4
  12              		.code	16
  13              		.file	"BLE_eventHandler.c"
  14              		.text
  15              	.Ltext0:
  16              		.cfi_sections	.debug_frame
  17              		.comm	cyBle_connHandle,2,4
  18              		.comm	cyBle_eventHandlerFlag,1,1
  19              		.comm	cyBle_busyStatus,1,1
  20              		.comm	cyBle_advertisingIntervalType,1,1
  21              		.global	cyBle_authInfo
  22              		.data
  23              		.align	2
  24              		.type	cyBle_authInfo, %object
  25              		.size	cyBle_authInfo, 5
  26              	cyBle_authInfo:
  27 0000 11       		.byte	17
  28 0001 00       		.byte	0
  29 0002 10       		.byte	16
  30 0003 00       		.byte	0
  31 0004 00       		.byte	0
  32 0005 000000   		.section	.text.CyBle_WriteReqHandler,"ax",%progbits
  33              		.align	2
  34              		.code	16
  35              		.thumb_func
  36              		.type	CyBle_WriteReqHandler, %function
  37              	CyBle_WriteReqHandler:
  38              	.LFB2:
  39              		.file 1 ".\\Generated_Source\\PSoC4\\BLE_eventHandler.c"
   1:.\Generated_Source\PSoC4/BLE_eventHandler.c **** /***************************************************************************//**
   2:.\Generated_Source\PSoC4/BLE_eventHandler.c **** * \file CYBLE_eventHandler.c
   3:.\Generated_Source\PSoC4/BLE_eventHandler.c **** * \version 3.10
   4:.\Generated_Source\PSoC4/BLE_eventHandler.c **** * 
   5:.\Generated_Source\PSoC4/BLE_eventHandler.c **** * \brief
   6:.\Generated_Source\PSoC4/BLE_eventHandler.c **** *  This file contains the source code for the Event Handler State Machine
   7:.\Generated_Source\PSoC4/BLE_eventHandler.c **** *  of the BLE Component.
   8:.\Generated_Source\PSoC4/BLE_eventHandler.c **** * 
   9:.\Generated_Source\PSoC4/BLE_eventHandler.c **** ********************************************************************************
  10:.\Generated_Source\PSoC4/BLE_eventHandler.c **** * \copyright
  11:.\Generated_Source\PSoC4/BLE_eventHandler.c **** * Copyright 2014-2016, Cypress Semiconductor Corporation.  All rights reserved.
  12:.\Generated_Source\PSoC4/BLE_eventHandler.c **** * You may use this file only in accordance with the license, terms, conditions,
  13:.\Generated_Source\PSoC4/BLE_eventHandler.c **** * disclaimers, and limitations in the end user license agreement accompanying
  14:.\Generated_Source\PSoC4/BLE_eventHandler.c **** * the software package with which this file was provided.
  15:.\Generated_Source\PSoC4/BLE_eventHandler.c **** *******************************************************************************/
  16:.\Generated_Source\PSoC4/BLE_eventHandler.c **** 
  17:.\Generated_Source\PSoC4/BLE_eventHandler.c **** #include "BLE_eventHandler.h"
  18:.\Generated_Source\PSoC4/BLE_eventHandler.c **** 
ARM GAS  C:\Users\behrenb2\AppData\Local\Temp\ccNHrcVd.s 			page 2


  19:.\Generated_Source\PSoC4/BLE_eventHandler.c **** 
  20:.\Generated_Source\PSoC4/BLE_eventHandler.c **** /***************************************
  21:.\Generated_Source\PSoC4/BLE_eventHandler.c **** * Private Function Prototypes
  22:.\Generated_Source\PSoC4/BLE_eventHandler.c **** ***************************************/
  23:.\Generated_Source\PSoC4/BLE_eventHandler.c **** 
  24:.\Generated_Source\PSoC4/BLE_eventHandler.c **** static void CyBle_GattDisconnectEventHandler(void);
  25:.\Generated_Source\PSoC4/BLE_eventHandler.c **** static void CyBle_TimeOutEventHandler(const CYBLE_TO_REASON_CODE_T *eventParam);
  26:.\Generated_Source\PSoC4/BLE_eventHandler.c **** static void CyBle_GattConnectReqHandler(void);
  27:.\Generated_Source\PSoC4/BLE_eventHandler.c **** static void CyBle_L2Cap_ConnParamUpdateRspEventHandler(uint16 response);
  28:.\Generated_Source\PSoC4/BLE_eventHandler.c **** static void CyBle_GapConnUpdateCompleteEventHandler(const CYBLE_GAP_CONN_PARAM_UPDATED_IN_CONTROLLE
  29:.\Generated_Source\PSoC4/BLE_eventHandler.c **** 
  30:.\Generated_Source\PSoC4/BLE_eventHandler.c **** 
  31:.\Generated_Source\PSoC4/BLE_eventHandler.c **** #if (CYBLE_GATT_ROLE_SERVER)
  32:.\Generated_Source\PSoC4/BLE_eventHandler.c **** 
  33:.\Generated_Source\PSoC4/BLE_eventHandler.c **** static void CyBle_WriteReqHandler(CYBLE_GATTS_WRITE_REQ_PARAM_T *eventParam);
  34:.\Generated_Source\PSoC4/BLE_eventHandler.c **** static void CyBle_ValueConfirmation(const CYBLE_CONN_HANDLE_T *eventParam);
  35:.\Generated_Source\PSoC4/BLE_eventHandler.c **** 
  36:.\Generated_Source\PSoC4/BLE_eventHandler.c **** #endif /* CYBLE_GATT_ROLE_SERVER */
  37:.\Generated_Source\PSoC4/BLE_eventHandler.c **** 
  38:.\Generated_Source\PSoC4/BLE_eventHandler.c **** #if (CYBLE_GATT_ROLE_CLIENT)
  39:.\Generated_Source\PSoC4/BLE_eventHandler.c **** 
  40:.\Generated_Source\PSoC4/BLE_eventHandler.c **** static void CyBle_GapcDiscoverCharacteristicsEventHandler(CYBLE_DISC_CHAR_INFO_T *discCharInfo);
  41:.\Generated_Source\PSoC4/BLE_eventHandler.c **** static CYBLE_GATT_ATTR_HANDLE_RANGE_T CyBle_GetCharRange(void);
  42:.\Generated_Source\PSoC4/BLE_eventHandler.c **** static void CyBle_GattcWriteResponseEventHandler(const CYBLE_CONN_HANDLE_T *eventParam);
  43:.\Generated_Source\PSoC4/BLE_eventHandler.c **** static void CyBle_NotificationEventHandler(CYBLE_GATTC_HANDLE_VALUE_NTF_PARAM_T *eventParam);
  44:.\Generated_Source\PSoC4/BLE_eventHandler.c **** static void CyBle_IndicationEventHandler(CYBLE_GATTC_HANDLE_VALUE_IND_PARAM_T *eventParam);
  45:.\Generated_Source\PSoC4/BLE_eventHandler.c **** static void CyBle_ReadResponseEventHandler(CYBLE_GATTC_READ_RSP_PARAM_T *eventParam);
  46:.\Generated_Source\PSoC4/BLE_eventHandler.c **** static void CyBle_ReadMultipleResponseEventHandler(CYBLE_GATTC_READ_RSP_PARAM_T *eventParam);
  47:.\Generated_Source\PSoC4/BLE_eventHandler.c **** 
  48:.\Generated_Source\PSoC4/BLE_eventHandler.c **** #endif /* CYBLE_GATT_ROLE_CLIENT */
  49:.\Generated_Source\PSoC4/BLE_eventHandler.c **** 
  50:.\Generated_Source\PSoC4/BLE_eventHandler.c **** 
  51:.\Generated_Source\PSoC4/BLE_eventHandler.c **** /***************************************
  52:.\Generated_Source\PSoC4/BLE_eventHandler.c **** * Global Variables
  53:.\Generated_Source\PSoC4/BLE_eventHandler.c **** ***************************************/
  54:.\Generated_Source\PSoC4/BLE_eventHandler.c **** 
  55:.\Generated_Source\PSoC4/BLE_eventHandler.c **** /* This global variable is initialized after connection with peer device, 
  56:.\Generated_Source\PSoC4/BLE_eventHandler.c ****    after CYBLE_EVT_GATT_CONNECT_IND event, and could be used by application code
  57:.\Generated_Source\PSoC4/BLE_eventHandler.c ****    to send data to peer device. 
  58:.\Generated_Source\PSoC4/BLE_eventHandler.c **** */
  59:.\Generated_Source\PSoC4/BLE_eventHandler.c **** CYBLE_CONN_HANDLE_T cyBle_connHandle;
  60:.\Generated_Source\PSoC4/BLE_eventHandler.c **** 
  61:.\Generated_Source\PSoC4/BLE_eventHandler.c **** volatile uint8 cyBle_eventHandlerFlag;
  62:.\Generated_Source\PSoC4/BLE_eventHandler.c **** volatile uint8 cyBle_busyStatus;
  63:.\Generated_Source\PSoC4/BLE_eventHandler.c **** 
  64:.\Generated_Source\PSoC4/BLE_eventHandler.c **** #if(CYBLE_GAP_ROLE_PERIPHERAL || CYBLE_GAP_ROLE_BROADCASTER) 
  65:.\Generated_Source\PSoC4/BLE_eventHandler.c ****     uint8 cyBle_advertisingIntervalType;
  66:.\Generated_Source\PSoC4/BLE_eventHandler.c **** #endif /* CYBLE_GAP_ROLE_PERIPHERAL || CYBLE_GAP_ROLE_BROADCASTER) */
  67:.\Generated_Source\PSoC4/BLE_eventHandler.c **** 
  68:.\Generated_Source\PSoC4/BLE_eventHandler.c **** #if(CYBLE_GAP_ROLE_CENTRAL || CYBLE_GAP_ROLE_OBSERVER) 
  69:.\Generated_Source\PSoC4/BLE_eventHandler.c ****     uint8 cyBle_scanningIntervalType;
  70:.\Generated_Source\PSoC4/BLE_eventHandler.c **** #endif /* CYBLE_GAP_ROLE_CENTRAL || CYBLE_GAP_ROLE_OBSERVER */
  71:.\Generated_Source\PSoC4/BLE_eventHandler.c **** 
  72:.\Generated_Source\PSoC4/BLE_eventHandler.c **** #if(CYBLE_GATT_ROLE_SERVER)
  73:.\Generated_Source\PSoC4/BLE_eventHandler.c **** #if defined CYBLE_CTS_SERVER || defined CYBLE_ESS_SERVER
  74:.\Generated_Source\PSoC4/BLE_eventHandler.c **** CYBLE_GATT_ERR_CODE_T cyBle_gattError;
  75:.\Generated_Source\PSoC4/BLE_eventHandler.c **** #endif /* defined CYBLE_CTS_SERVER || defined CYBLE_ESS_SERVER */
ARM GAS  C:\Users\behrenb2\AppData\Local\Temp\ccNHrcVd.s 			page 3


  76:.\Generated_Source\PSoC4/BLE_eventHandler.c **** #endif /* CYBLE_GATT_ROLE_SERVER */
  77:.\Generated_Source\PSoC4/BLE_eventHandler.c **** 
  78:.\Generated_Source\PSoC4/BLE_eventHandler.c **** #if(CYBLE_GATT_ROLE_CLIENT)
  79:.\Generated_Source\PSoC4/BLE_eventHandler.c **** uint8 cyBle_disCount; /* Counter for discovery procedures */
  80:.\Generated_Source\PSoC4/BLE_eventHandler.c **** 
  81:.\Generated_Source\PSoC4/BLE_eventHandler.c **** #ifdef CYBLE_CUSTOM_CLIENT
  82:.\Generated_Source\PSoC4/BLE_eventHandler.c **** /* Discovery included service information, used for 128-bit UUID read response handle 
  83:.\Generated_Source\PSoC4/BLE_eventHandler.c ****    and for continue discovery. 
  84:.\Generated_Source\PSoC4/BLE_eventHandler.c **** */
  85:.\Generated_Source\PSoC4/BLE_eventHandler.c **** static CYBLE_DISC_INCL_INFO_T cyBle_discInclInfo;
  86:.\Generated_Source\PSoC4/BLE_eventHandler.c **** #endif /* CYBLE_CUSTOM_CLIENT */
  87:.\Generated_Source\PSoC4/BLE_eventHandler.c **** 
  88:.\Generated_Source\PSoC4/BLE_eventHandler.c **** #ifdef CYBLE_HIDS_CLIENT
  89:.\Generated_Source\PSoC4/BLE_eventHandler.c ****     static uint8 disServiceIndex;      /* To discovery descriptors for multiple HID service instanc
  90:.\Generated_Source\PSoC4/BLE_eventHandler.c **** #endif /* CYBLE_HIDS_CLIENT */
  91:.\Generated_Source\PSoC4/BLE_eventHandler.c **** 
  92:.\Generated_Source\PSoC4/BLE_eventHandler.c **** CYBLE_DISC_SRVC_INFO_T cyBle_serverInfo[CYBLE_SRVI_COUNT] = /*5*/
  93:.\Generated_Source\PSoC4/BLE_eventHandler.c **** {
  94:.\Generated_Source\PSoC4/BLE_eventHandler.c ****     {{CYBLE_GATT_INVALID_ATTR_HANDLE_VALUE, CYBLE_GATT_INVALID_ATTR_HANDLE_VALUE}, CYBLE_UUID_GAP_S
  95:.\Generated_Source\PSoC4/BLE_eventHandler.c ****     {{CYBLE_GATT_INVALID_ATTR_HANDLE_VALUE, CYBLE_GATT_INVALID_ATTR_HANDLE_VALUE}, CYBLE_UUID_GATT_
  96:.\Generated_Source\PSoC4/BLE_eventHandler.c **** #ifdef CYBLE_ANCS_CLIENT
  97:.\Generated_Source\PSoC4/BLE_eventHandler.c ****     {{CYBLE_GATT_INVALID_ATTR_HANDLE_VALUE, CYBLE_GATT_INVALID_ATTR_HANDLE_VALUE}, 0x0000u},
  98:.\Generated_Source\PSoC4/BLE_eventHandler.c **** #endif /* CYBLE_ANCS_CLIENT */
  99:.\Generated_Source\PSoC4/BLE_eventHandler.c **** #ifdef CYBLE_ANS_CLIENT
 100:.\Generated_Source\PSoC4/BLE_eventHandler.c ****     {{CYBLE_GATT_INVALID_ATTR_HANDLE_VALUE, CYBLE_GATT_INVALID_ATTR_HANDLE_VALUE}, 
 101:.\Generated_Source\PSoC4/BLE_eventHandler.c ****         CYBLE_UUID_ALERT_NOTIFICATION_SERVICE},
 102:.\Generated_Source\PSoC4/BLE_eventHandler.c **** #endif /* CYBLE_ANS_CLIENT */
 103:.\Generated_Source\PSoC4/BLE_eventHandler.c **** #ifdef CYBLE_BAS_CLIENT
 104:.\Generated_Source\PSoC4/BLE_eventHandler.c ****     {{CYBLE_GATT_INVALID_ATTR_HANDLE_VALUE, CYBLE_GATT_INVALID_ATTR_HANDLE_VALUE}, CYBLE_UUID_BAS_S
 105:.\Generated_Source\PSoC4/BLE_eventHandler.c ****     #if(CYBLE_BASC_SERVICE_COUNT > 1u) /* Generate it by GUI */
 106:.\Generated_Source\PSoC4/BLE_eventHandler.c ****         
 107:.\Generated_Source\PSoC4/BLE_eventHandler.c ****     #endif /* CYBLE_BASC_SERVICE_COUNT > 1u */
 108:.\Generated_Source\PSoC4/BLE_eventHandler.c **** #endif /* CYBLE_BAS_CLIENT */
 109:.\Generated_Source\PSoC4/BLE_eventHandler.c **** #ifdef CYBLE_BCS_CLIENT
 110:.\Generated_Source\PSoC4/BLE_eventHandler.c ****     {{CYBLE_GATT_INVALID_ATTR_HANDLE_VALUE, CYBLE_GATT_INVALID_ATTR_HANDLE_VALUE}, CYBLE_UUID_BODY_
 111:.\Generated_Source\PSoC4/BLE_eventHandler.c **** #endif /* CYBLE_BCS_CLIENT */
 112:.\Generated_Source\PSoC4/BLE_eventHandler.c **** #ifdef CYBLE_BLS_CLIENT
 113:.\Generated_Source\PSoC4/BLE_eventHandler.c ****     {{CYBLE_GATT_INVALID_ATTR_HANDLE_VALUE, CYBLE_GATT_INVALID_ATTR_HANDLE_VALUE}, CYBLE_UUID_BLOOD
 114:.\Generated_Source\PSoC4/BLE_eventHandler.c **** #endif /* CYBLE_BLS_CLIENT */
 115:.\Generated_Source\PSoC4/BLE_eventHandler.c **** #ifdef CYBLE_BMS_CLIENT
 116:.\Generated_Source\PSoC4/BLE_eventHandler.c ****     {{CYBLE_GATT_INVALID_ATTR_HANDLE_VALUE, CYBLE_GATT_INVALID_ATTR_HANDLE_VALUE}, CYBLE_UUID_BOND_
 117:.\Generated_Source\PSoC4/BLE_eventHandler.c **** #endif /* CYBLE_BMS_CLIENT */
 118:.\Generated_Source\PSoC4/BLE_eventHandler.c **** #ifdef CYBLE_CGMS_CLIENT
 119:.\Generated_Source\PSoC4/BLE_eventHandler.c ****     {{CYBLE_GATT_INVALID_ATTR_HANDLE_VALUE, CYBLE_GATT_INVALID_ATTR_HANDLE_VALUE}, CYBLE_UUID_CGM_S
 120:.\Generated_Source\PSoC4/BLE_eventHandler.c **** #endif /* CYBLE_CGMS_CLIENT */
 121:.\Generated_Source\PSoC4/BLE_eventHandler.c **** #ifdef CYBLE_CPS_CLIENT
 122:.\Generated_Source\PSoC4/BLE_eventHandler.c ****     {{CYBLE_GATT_INVALID_ATTR_HANDLE_VALUE, CYBLE_GATT_INVALID_ATTR_HANDLE_VALUE}, CYBLE_UUID_CPS_S
 123:.\Generated_Source\PSoC4/BLE_eventHandler.c **** #endif /* CYBLE_CPS_CLIENT */
 124:.\Generated_Source\PSoC4/BLE_eventHandler.c **** #ifdef CYBLE_CSCS_CLIENT
 125:.\Generated_Source\PSoC4/BLE_eventHandler.c ****     {{CYBLE_GATT_INVALID_ATTR_HANDLE_VALUE, CYBLE_GATT_INVALID_ATTR_HANDLE_VALUE}, 
 126:.\Generated_Source\PSoC4/BLE_eventHandler.c ****         CYBLE_UUID_CYCLING_SPEED_AND_CADENCE_SERVICE},
 127:.\Generated_Source\PSoC4/BLE_eventHandler.c **** #endif /* CYBLE_CSCS_CLIENT */
 128:.\Generated_Source\PSoC4/BLE_eventHandler.c **** #ifdef CYBLE_CTS_CLIENT
 129:.\Generated_Source\PSoC4/BLE_eventHandler.c ****     {{CYBLE_GATT_INVALID_ATTR_HANDLE_VALUE, CYBLE_GATT_INVALID_ATTR_HANDLE_VALUE}, CYBLE_UUID_CURRE
 130:.\Generated_Source\PSoC4/BLE_eventHandler.c **** #endif /* CYBLE_CTS_CLIENT */
 131:.\Generated_Source\PSoC4/BLE_eventHandler.c **** #ifdef CYBLE_CUSTOM_CLIENT
 132:.\Generated_Source\PSoC4/BLE_eventHandler.c ****     
ARM GAS  C:\Users\behrenb2\AppData\Local\Temp\ccNHrcVd.s 			page 4


 133:.\Generated_Source\PSoC4/BLE_eventHandler.c **** #endif /* CYBLE_CUSTOM_CLIENT */
 134:.\Generated_Source\PSoC4/BLE_eventHandler.c **** #ifdef CYBLE_DIS_CLIENT
 135:.\Generated_Source\PSoC4/BLE_eventHandler.c ****     {{CYBLE_GATT_INVALID_ATTR_HANDLE_VALUE, CYBLE_GATT_INVALID_ATTR_HANDLE_VALUE}, CYBLE_UUID_DEVIC
 136:.\Generated_Source\PSoC4/BLE_eventHandler.c **** #endif /* CYBLE_DIS_CLIENT */
 137:.\Generated_Source\PSoC4/BLE_eventHandler.c **** #ifdef CYBLE_ESS_CLIENT
 138:.\Generated_Source\PSoC4/BLE_eventHandler.c ****     {{CYBLE_GATT_INVALID_ATTR_HANDLE_VALUE, CYBLE_GATT_INVALID_ATTR_HANDLE_VALUE}, 
 139:.\Generated_Source\PSoC4/BLE_eventHandler.c ****         CYBLE_UUID_ENVIRONMENTAL_SENSING_SERVICE},
 140:.\Generated_Source\PSoC4/BLE_eventHandler.c **** #endif /* CYBLE_ESS_CLIENT */
 141:.\Generated_Source\PSoC4/BLE_eventHandler.c **** #ifdef CYBLE_GLS_CLIENT
 142:.\Generated_Source\PSoC4/BLE_eventHandler.c ****     {{CYBLE_GATT_INVALID_ATTR_HANDLE_VALUE, CYBLE_GATT_INVALID_ATTR_HANDLE_VALUE}, CYBLE_UUID_GLUCO
 143:.\Generated_Source\PSoC4/BLE_eventHandler.c **** #endif /* CYBLE_GLS_CLIENT */
 144:.\Generated_Source\PSoC4/BLE_eventHandler.c **** #ifdef CYBLE_HIDS_CLIENT
 145:.\Generated_Source\PSoC4/BLE_eventHandler.c ****     {{CYBLE_GATT_INVALID_ATTR_HANDLE_VALUE, CYBLE_GATT_INVALID_ATTR_HANDLE_VALUE}, CYBLE_UUID_HIDS_
 146:.\Generated_Source\PSoC4/BLE_eventHandler.c ****     #if(CYBLE_HIDSC_SERVICE_COUNT > 1u) /* Generate it by GUI */
 147:.\Generated_Source\PSoC4/BLE_eventHandler.c ****         
 148:.\Generated_Source\PSoC4/BLE_eventHandler.c ****     #endif /* CYBLE_HIDSC_SERVICE_COUNT > 1u */
 149:.\Generated_Source\PSoC4/BLE_eventHandler.c **** #endif /* CYBLE_HIDS_CLIENT */
 150:.\Generated_Source\PSoC4/BLE_eventHandler.c **** #ifdef CYBLE_HPS_CLIENT
 151:.\Generated_Source\PSoC4/BLE_eventHandler.c ****     {{CYBLE_GATT_INVALID_ATTR_HANDLE_VALUE, CYBLE_GATT_INVALID_ATTR_HANDLE_VALUE}, CYBLE_UUID_HTTP_
 152:.\Generated_Source\PSoC4/BLE_eventHandler.c **** #endif /* CYBLE_HPS_CLIENT */
 153:.\Generated_Source\PSoC4/BLE_eventHandler.c **** #ifdef CYBLE_HRS_CLIENT
 154:.\Generated_Source\PSoC4/BLE_eventHandler.c ****     {{CYBLE_GATT_INVALID_ATTR_HANDLE_VALUE, CYBLE_GATT_INVALID_ATTR_HANDLE_VALUE}, CYBLE_UUID_HEART
 155:.\Generated_Source\PSoC4/BLE_eventHandler.c **** #endif /* CYBLE_HRS_CLIENT */
 156:.\Generated_Source\PSoC4/BLE_eventHandler.c **** #ifdef CYBLE_HTS_CLIENT
 157:.\Generated_Source\PSoC4/BLE_eventHandler.c ****     {{CYBLE_GATT_INVALID_ATTR_HANDLE_VALUE, CYBLE_GATT_INVALID_ATTR_HANDLE_VALUE}, CYBLE_UUID_HEALT
 158:.\Generated_Source\PSoC4/BLE_eventHandler.c **** #endif /* CYBLE_HTS_CLIENT */
 159:.\Generated_Source\PSoC4/BLE_eventHandler.c **** #ifdef CYBLE_IAS_CLIENT
 160:.\Generated_Source\PSoC4/BLE_eventHandler.c ****     {{CYBLE_GATT_INVALID_ATTR_HANDLE_VALUE, CYBLE_GATT_INVALID_ATTR_HANDLE_VALUE}, CYBLE_UUID_IMMED
 161:.\Generated_Source\PSoC4/BLE_eventHandler.c **** #endif /* CYBLE_IAS_CLIENT */
 162:.\Generated_Source\PSoC4/BLE_eventHandler.c **** #ifdef CYBLE_IPS_CLIENT
 163:.\Generated_Source\PSoC4/BLE_eventHandler.c ****     {{CYBLE_GATT_INVALID_ATTR_HANDLE_VALUE, CYBLE_GATT_INVALID_ATTR_HANDLE_VALUE}, CYBLE_UUID_IPS_S
 164:.\Generated_Source\PSoC4/BLE_eventHandler.c **** #endif /* CYBLE_IPS_CLIENT */
 165:.\Generated_Source\PSoC4/BLE_eventHandler.c **** #ifdef CYBLE_LLS_CLIENT
 166:.\Generated_Source\PSoC4/BLE_eventHandler.c ****     {{CYBLE_GATT_INVALID_ATTR_HANDLE_VALUE, CYBLE_GATT_INVALID_ATTR_HANDLE_VALUE}, CYBLE_UUID_LINK_
 167:.\Generated_Source\PSoC4/BLE_eventHandler.c **** #endif /* CYBLE_LLS_CLIENT */
 168:.\Generated_Source\PSoC4/BLE_eventHandler.c **** #ifdef CYBLE_LNS_CLIENT
 169:.\Generated_Source\PSoC4/BLE_eventHandler.c ****     {{CYBLE_GATT_INVALID_ATTR_HANDLE_VALUE, CYBLE_GATT_INVALID_ATTR_HANDLE_VALUE}, CYBLE_UUID_LOCAT
 170:.\Generated_Source\PSoC4/BLE_eventHandler.c **** #endif /* CYBLE_LNS_CLIENT */
 171:.\Generated_Source\PSoC4/BLE_eventHandler.c **** #ifdef CYBLE_NDCS_CLIENT
 172:.\Generated_Source\PSoC4/BLE_eventHandler.c ****     {{CYBLE_GATT_INVALID_ATTR_HANDLE_VALUE, CYBLE_GATT_INVALID_ATTR_HANDLE_VALUE}, CYBLE_UUID_NEXT_
 173:.\Generated_Source\PSoC4/BLE_eventHandler.c **** #endif /* CYBLE_NDCS_CLIENT */
 174:.\Generated_Source\PSoC4/BLE_eventHandler.c **** #ifdef CYBLE_IPSS_CLIENT
 175:.\Generated_Source\PSoC4/BLE_eventHandler.c ****     {{CYBLE_GATT_INVALID_ATTR_HANDLE_VALUE, CYBLE_GATT_INVALID_ATTR_HANDLE_VALUE}, CYBLE_UUID_INTER
 176:.\Generated_Source\PSoC4/BLE_eventHandler.c **** #endif /* CYBLE_IPSS_CLIENT */
 177:.\Generated_Source\PSoC4/BLE_eventHandler.c **** #ifdef CYBLE_PASS_CLIENT
 178:.\Generated_Source\PSoC4/BLE_eventHandler.c ****     {{CYBLE_GATT_INVALID_ATTR_HANDLE_VALUE, CYBLE_GATT_INVALID_ATTR_HANDLE_VALUE}, CYBLE_UUID_PHONE
 179:.\Generated_Source\PSoC4/BLE_eventHandler.c **** #endif /* CYBLE_PASS_CLIENT */
 180:.\Generated_Source\PSoC4/BLE_eventHandler.c **** #ifdef CYBLE_RSCS_CLIENT
 181:.\Generated_Source\PSoC4/BLE_eventHandler.c ****     {{CYBLE_GATT_INVALID_ATTR_HANDLE_VALUE, CYBLE_GATT_INVALID_ATTR_HANDLE_VALUE}, CYBLE_UUID_RUNNI
 182:.\Generated_Source\PSoC4/BLE_eventHandler.c **** #endif /* CYBLE_RSCS_CLIENT */
 183:.\Generated_Source\PSoC4/BLE_eventHandler.c **** #ifdef CYBLE_RTUS_CLIENT
 184:.\Generated_Source\PSoC4/BLE_eventHandler.c ****     {{CYBLE_GATT_INVALID_ATTR_HANDLE_VALUE, CYBLE_GATT_INVALID_ATTR_HANDLE_VALUE}, CYBLE_UUID_REF_T
 185:.\Generated_Source\PSoC4/BLE_eventHandler.c **** #endif /* CYBLE_RTUS_CLIENT */
 186:.\Generated_Source\PSoC4/BLE_eventHandler.c **** #ifdef CYBLE_SCPS_CLIENT
 187:.\Generated_Source\PSoC4/BLE_eventHandler.c ****     {{CYBLE_GATT_INVALID_ATTR_HANDLE_VALUE, CYBLE_GATT_INVALID_ATTR_HANDLE_VALUE}, CYBLE_UUID_SCAN_
 188:.\Generated_Source\PSoC4/BLE_eventHandler.c **** #endif /* CYBLE_SCPS_CLIENT */
 189:.\Generated_Source\PSoC4/BLE_eventHandler.c **** #ifdef CYBLE_TPS_CLIENT
ARM GAS  C:\Users\behrenb2\AppData\Local\Temp\ccNHrcVd.s 			page 5


 190:.\Generated_Source\PSoC4/BLE_eventHandler.c ****     {{CYBLE_GATT_INVALID_ATTR_HANDLE_VALUE, CYBLE_GATT_INVALID_ATTR_HANDLE_VALUE}, CYBLE_UUID_TX_PO
 191:.\Generated_Source\PSoC4/BLE_eventHandler.c **** #endif /* CYBLE_TPS_CLIENT */
 192:.\Generated_Source\PSoC4/BLE_eventHandler.c **** #ifdef CYBLE_UDS_CLIENT
 193:.\Generated_Source\PSoC4/BLE_eventHandler.c ****     {{CYBLE_GATT_INVALID_ATTR_HANDLE_VALUE, CYBLE_GATT_INVALID_ATTR_HANDLE_VALUE}, CYBLE_UUID_USER_
 194:.\Generated_Source\PSoC4/BLE_eventHandler.c **** #endif /* CYBLE_UDS_CLIENT */
 195:.\Generated_Source\PSoC4/BLE_eventHandler.c **** #ifdef CYBLE_WSS_CLIENT
 196:.\Generated_Source\PSoC4/BLE_eventHandler.c ****     {{CYBLE_GATT_INVALID_ATTR_HANDLE_VALUE, CYBLE_GATT_INVALID_ATTR_HANDLE_VALUE}, CYBLE_UUID_WEIGH
 197:.\Generated_Source\PSoC4/BLE_eventHandler.c **** #endif /* CYBLE_WSS_CLIENT */
 198:.\Generated_Source\PSoC4/BLE_eventHandler.c **** #ifdef CYBLE_WPTS_CLIENT
 199:.\Generated_Source\PSoC4/BLE_eventHandler.c ****     {{CYBLE_GATT_INVALID_ATTR_HANDLE_VALUE, CYBLE_GATT_INVALID_ATTR_HANDLE_VALUE}, CYBLE_UUID_WIREL
 200:.\Generated_Source\PSoC4/BLE_eventHandler.c **** #endif /* CYBLE_WPTS_CLIENT */
 201:.\Generated_Source\PSoC4/BLE_eventHandler.c **** };
 202:.\Generated_Source\PSoC4/BLE_eventHandler.c **** 
 203:.\Generated_Source\PSoC4/BLE_eventHandler.c **** CYBLE_GAPC_T cyBle_gapc;
 204:.\Generated_Source\PSoC4/BLE_eventHandler.c **** 
 205:.\Generated_Source\PSoC4/BLE_eventHandler.c **** #endif /* CYBLE_GATT_ROLE_CLIENT */
 206:.\Generated_Source\PSoC4/BLE_eventHandler.c **** 
 207:.\Generated_Source\PSoC4/BLE_eventHandler.c **** /* Default device security */
 208:.\Generated_Source\PSoC4/BLE_eventHandler.c **** CYBLE_GAP_AUTH_INFO_T cyBle_authInfo =
 209:.\Generated_Source\PSoC4/BLE_eventHandler.c **** {
 210:.\Generated_Source\PSoC4/BLE_eventHandler.c ****     (CYBLE_GAP_SEC_MODE_1 | CYBLE_GAP_SEC_LEVEL_2 ), /* uint8 security */
 211:.\Generated_Source\PSoC4/BLE_eventHandler.c ****     CYBLE_GAP_BONDING_NONE, /* uint8 bonding */
 212:.\Generated_Source\PSoC4/BLE_eventHandler.c ****     0x10u,      /* uint8 ekeySize */
 213:.\Generated_Source\PSoC4/BLE_eventHandler.c ****     CYBLE_GAP_AUTH_ERROR_NONE, /* CYBLE_AUTH_FAILED_REASON_T authErr */
 214:.\Generated_Source\PSoC4/BLE_eventHandler.c ****     0x00u,      /* uint8 pairingProperties */
 215:.\Generated_Source\PSoC4/BLE_eventHandler.c **** };
 216:.\Generated_Source\PSoC4/BLE_eventHandler.c **** 
 217:.\Generated_Source\PSoC4/BLE_eventHandler.c **** #if(CYBLE_GATT_ROLE_SERVER)
 218:.\Generated_Source\PSoC4/BLE_eventHandler.c **** 
 219:.\Generated_Source\PSoC4/BLE_eventHandler.c **** 
 220:.\Generated_Source\PSoC4/BLE_eventHandler.c **** /******************************************************************************    
 221:.\Generated_Source\PSoC4/BLE_eventHandler.c **** * Function Name: CyBle_WriteReqHandler
 222:.\Generated_Source\PSoC4/BLE_eventHandler.c **** ***************************************************************************//**
 223:.\Generated_Source\PSoC4/BLE_eventHandler.c **** * 
 224:.\Generated_Source\PSoC4/BLE_eventHandler.c **** *  Handles the Write Request event from BLE stack.
 225:.\Generated_Source\PSoC4/BLE_eventHandler.c **** * 
 226:.\Generated_Source\PSoC4/BLE_eventHandler.c **** *  CYBLE_GATTS_WRITE_REQ_PARAM_T * eventParam - event parameter
 227:.\Generated_Source\PSoC4/BLE_eventHandler.c **** * 
 228:.\Generated_Source\PSoC4/BLE_eventHandler.c **** * \return
 229:.\Generated_Source\PSoC4/BLE_eventHandler.c **** *  None
 230:.\Generated_Source\PSoC4/BLE_eventHandler.c **** * 
 231:.\Generated_Source\PSoC4/BLE_eventHandler.c **** ******************************************************************************/
 232:.\Generated_Source\PSoC4/BLE_eventHandler.c **** static void CyBle_WriteReqHandler(CYBLE_GATTS_WRITE_REQ_PARAM_T *eventParam)
 233:.\Generated_Source\PSoC4/BLE_eventHandler.c **** {
  40              		.loc 1 233 0
  41              		.cfi_startproc
  42 0000 90B5     		push	{r4, r7, lr}
  43              		.cfi_def_cfa_offset 12
  44              		.cfi_offset 4, -12
  45              		.cfi_offset 7, -8
  46              		.cfi_offset 14, -4
  47 0002 85B0     		sub	sp, sp, #20
  48              		.cfi_def_cfa_offset 32
  49 0004 00AF     		add	r7, sp, #0
  50              		.cfi_def_cfa_register 7
  51 0006 7860     		str	r0, [r7, #4]
 234:.\Generated_Source\PSoC4/BLE_eventHandler.c ****     CYBLE_GATT_ERR_CODE_T gattErr;
ARM GAS  C:\Users\behrenb2\AppData\Local\Temp\ccNHrcVd.s 			page 6


 235:.\Generated_Source\PSoC4/BLE_eventHandler.c **** #if defined CYBLE_CTS_SERVER || defined CYBLE_ESS_SERVER
 236:.\Generated_Source\PSoC4/BLE_eventHandler.c ****     cyBle_gattError = CYBLE_GATT_ERR_NONE;
 237:.\Generated_Source\PSoC4/BLE_eventHandler.c **** #endif /* defined CYBLE_CTS_SERVER || defined CYBLE_ESS_SERVER */
 238:.\Generated_Source\PSoC4/BLE_eventHandler.c ****     
 239:.\Generated_Source\PSoC4/BLE_eventHandler.c ****     gattErr = CyBle_GattsWriteEventHandler(eventParam);
  52              		.loc 1 239 0
  53 0008 0F23     		mov	r3, #15
  54 000a FC18     		add	r4, r7, r3
  55 000c 7B68     		ldr	r3, [r7, #4]
  56 000e 181C     		mov	r0, r3
  57 0010 FFF7FEFF 		bl	CyBle_GattsWriteEventHandler
  58 0014 031C     		mov	r3, r0
  59 0016 2370     		strb	r3, [r4]
 240:.\Generated_Source\PSoC4/BLE_eventHandler.c **** #ifdef CYBLE_ANCS_SERVER
 241:.\Generated_Source\PSoC4/BLE_eventHandler.c ****     if(((cyBle_eventHandlerFlag & CYBLE_CALLBACK) != 0u) && (gattErr == CYBLE_GATT_ERR_NONE))
 242:.\Generated_Source\PSoC4/BLE_eventHandler.c ****     {
 243:.\Generated_Source\PSoC4/BLE_eventHandler.c ****         gattErr = CyBle_AncssWriteEventHandler(eventParam);
 244:.\Generated_Source\PSoC4/BLE_eventHandler.c ****     }
 245:.\Generated_Source\PSoC4/BLE_eventHandler.c **** #endif /* CYBLE_ANCS_SERVER */
 246:.\Generated_Source\PSoC4/BLE_eventHandler.c **** #ifdef CYBLE_ANS_SERVER
 247:.\Generated_Source\PSoC4/BLE_eventHandler.c ****     if(((cyBle_eventHandlerFlag & CYBLE_CALLBACK) != 0u) && (gattErr == CYBLE_GATT_ERR_NONE))
 248:.\Generated_Source\PSoC4/BLE_eventHandler.c ****     {
 249:.\Generated_Source\PSoC4/BLE_eventHandler.c ****         gattErr = CyBle_AnssWriteEventHandler(eventParam);
 250:.\Generated_Source\PSoC4/BLE_eventHandler.c ****     }
 251:.\Generated_Source\PSoC4/BLE_eventHandler.c **** #endif /* CYBLE_ANS_SERVER */
 252:.\Generated_Source\PSoC4/BLE_eventHandler.c **** #ifdef CYBLE_BAS_SERVER
 253:.\Generated_Source\PSoC4/BLE_eventHandler.c ****     if(((cyBle_eventHandlerFlag & CYBLE_CALLBACK) != 0u) && (gattErr == CYBLE_GATT_ERR_NONE))
  60              		.loc 1 253 0
  61 0018 284B     		ldr	r3, .L6
  62 001a 1B78     		ldrb	r3, [r3]
  63 001c DBB2     		uxtb	r3, r3
  64 001e 1A1C     		mov	r2, r3
  65 0020 0123     		mov	r3, #1
  66 0022 1340     		and	r3, r2
  67 0024 0CD0     		beq	.L2
  68              		.loc 1 253 0 is_stmt 0 discriminator 1
  69 0026 0F23     		mov	r3, #15
  70 0028 FB18     		add	r3, r7, r3
  71 002a 1B78     		ldrb	r3, [r3]
  72 002c 002B     		cmp	r3, #0
  73 002e 07D1     		bne	.L2
 254:.\Generated_Source\PSoC4/BLE_eventHandler.c ****     {
 255:.\Generated_Source\PSoC4/BLE_eventHandler.c ****         gattErr = CyBle_BassWriteEventHandler(eventParam);
  74              		.loc 1 255 0 is_stmt 1
  75 0030 0F23     		mov	r3, #15
  76 0032 FC18     		add	r4, r7, r3
  77 0034 7B68     		ldr	r3, [r7, #4]
  78 0036 181C     		mov	r0, r3
  79 0038 FFF7FEFF 		bl	CyBle_BassWriteEventHandler
  80 003c 031C     		mov	r3, r0
  81 003e 2370     		strb	r3, [r4]
  82              	.L2:
 256:.\Generated_Source\PSoC4/BLE_eventHandler.c ****     }
 257:.\Generated_Source\PSoC4/BLE_eventHandler.c **** #endif /* CYBLE_BAS_SERVER */
 258:.\Generated_Source\PSoC4/BLE_eventHandler.c **** #ifdef CYBLE_BCS_SERVER
 259:.\Generated_Source\PSoC4/BLE_eventHandler.c ****     if(((cyBle_eventHandlerFlag & CYBLE_CALLBACK) != 0u) && (gattErr == CYBLE_GATT_ERR_NONE))
 260:.\Generated_Source\PSoC4/BLE_eventHandler.c ****     {
ARM GAS  C:\Users\behrenb2\AppData\Local\Temp\ccNHrcVd.s 			page 7


 261:.\Generated_Source\PSoC4/BLE_eventHandler.c ****         gattErr = CyBle_BcssWriteEventHandler(eventParam);
 262:.\Generated_Source\PSoC4/BLE_eventHandler.c ****     }
 263:.\Generated_Source\PSoC4/BLE_eventHandler.c **** #endif /* CYBLE_BCS_SERVER */
 264:.\Generated_Source\PSoC4/BLE_eventHandler.c **** #ifdef CYBLE_BLS_SERVER
 265:.\Generated_Source\PSoC4/BLE_eventHandler.c ****     if(((cyBle_eventHandlerFlag & CYBLE_CALLBACK) != 0u) && (gattErr == CYBLE_GATT_ERR_NONE))
 266:.\Generated_Source\PSoC4/BLE_eventHandler.c ****     {
 267:.\Generated_Source\PSoC4/BLE_eventHandler.c ****         gattErr = CyBle_BlssWriteEventHandler(eventParam);
 268:.\Generated_Source\PSoC4/BLE_eventHandler.c ****     }
 269:.\Generated_Source\PSoC4/BLE_eventHandler.c **** #endif /* CYBLE_BLS_SERVER */
 270:.\Generated_Source\PSoC4/BLE_eventHandler.c **** #ifdef CYBLE_BMS_SERVER
 271:.\Generated_Source\PSoC4/BLE_eventHandler.c ****     if(((cyBle_eventHandlerFlag & CYBLE_CALLBACK) != 0u) && (gattErr == CYBLE_GATT_ERR_NONE))
 272:.\Generated_Source\PSoC4/BLE_eventHandler.c ****     {
 273:.\Generated_Source\PSoC4/BLE_eventHandler.c ****         gattErr = CyBle_BmssWriteEventHandler(eventParam);
 274:.\Generated_Source\PSoC4/BLE_eventHandler.c ****     }
 275:.\Generated_Source\PSoC4/BLE_eventHandler.c **** #endif /* CYBLE_BMS_SERVER */
 276:.\Generated_Source\PSoC4/BLE_eventHandler.c **** #ifdef CYBLE_BTS_SERVER
 277:.\Generated_Source\PSoC4/BLE_eventHandler.c ****     if((cyBle_eventHandlerFlag & CYBLE_CALLBACK) != 0u)
 278:.\Generated_Source\PSoC4/BLE_eventHandler.c ****     {
 279:.\Generated_Source\PSoC4/BLE_eventHandler.c ****         gattErr = CyBle_BtsWriteEventHandler(eventParam);
 280:.\Generated_Source\PSoC4/BLE_eventHandler.c ****     }
 281:.\Generated_Source\PSoC4/BLE_eventHandler.c **** #endif /* CYBLE_BTS_SERVER */
 282:.\Generated_Source\PSoC4/BLE_eventHandler.c **** #ifdef CYBLE_CGMS_SERVER
 283:.\Generated_Source\PSoC4/BLE_eventHandler.c ****     if(((cyBle_eventHandlerFlag & CYBLE_CALLBACK) != 0u) && (gattErr == CYBLE_GATT_ERR_NONE))
 284:.\Generated_Source\PSoC4/BLE_eventHandler.c ****     {
 285:.\Generated_Source\PSoC4/BLE_eventHandler.c ****         gattErr = CyBle_CgmssWriteEventHandler(eventParam);
 286:.\Generated_Source\PSoC4/BLE_eventHandler.c ****     }
 287:.\Generated_Source\PSoC4/BLE_eventHandler.c **** #endif /* CYBLE_CGMS_SERVER */
 288:.\Generated_Source\PSoC4/BLE_eventHandler.c **** #ifdef CYBLE_CPS_SERVER
 289:.\Generated_Source\PSoC4/BLE_eventHandler.c ****     if(((cyBle_eventHandlerFlag & CYBLE_CALLBACK) != 0u) && (gattErr == CYBLE_GATT_ERR_NONE))
 290:.\Generated_Source\PSoC4/BLE_eventHandler.c ****     {
 291:.\Generated_Source\PSoC4/BLE_eventHandler.c ****         gattErr = CyBle_CpssWriteEventHandler(eventParam);
 292:.\Generated_Source\PSoC4/BLE_eventHandler.c ****     }
 293:.\Generated_Source\PSoC4/BLE_eventHandler.c **** #endif /* CYBLE_CPS_SERVER */
 294:.\Generated_Source\PSoC4/BLE_eventHandler.c **** #ifdef CYBLE_CSCS_SERVER
 295:.\Generated_Source\PSoC4/BLE_eventHandler.c ****     if(((cyBle_eventHandlerFlag & CYBLE_CALLBACK) != 0u) && (gattErr == CYBLE_GATT_ERR_NONE))
 296:.\Generated_Source\PSoC4/BLE_eventHandler.c ****     {
 297:.\Generated_Source\PSoC4/BLE_eventHandler.c ****         gattErr = CyBle_CscssWriteEventHandler(eventParam);
 298:.\Generated_Source\PSoC4/BLE_eventHandler.c ****     }
 299:.\Generated_Source\PSoC4/BLE_eventHandler.c **** #endif /* CYBLE_CSCS_SERVER */
 300:.\Generated_Source\PSoC4/BLE_eventHandler.c **** #ifdef CYBLE_CTS_SERVER
 301:.\Generated_Source\PSoC4/BLE_eventHandler.c ****     if(((cyBle_eventHandlerFlag & CYBLE_CALLBACK) != 0u) && (gattErr == CYBLE_GATT_ERR_NONE))
 302:.\Generated_Source\PSoC4/BLE_eventHandler.c ****     {
 303:.\Generated_Source\PSoC4/BLE_eventHandler.c ****         gattErr = CyBle_CtssWriteEventHandler(eventParam);
 304:.\Generated_Source\PSoC4/BLE_eventHandler.c ****     }
 305:.\Generated_Source\PSoC4/BLE_eventHandler.c **** #endif /* CYBLE_CTS_SERVER */
 306:.\Generated_Source\PSoC4/BLE_eventHandler.c **** #ifdef CYBLE_ESS_SERVER
 307:.\Generated_Source\PSoC4/BLE_eventHandler.c ****     if(((cyBle_eventHandlerFlag & CYBLE_CALLBACK) != 0u) && (gattErr == CYBLE_GATT_ERR_NONE))
 308:.\Generated_Source\PSoC4/BLE_eventHandler.c ****     {
 309:.\Generated_Source\PSoC4/BLE_eventHandler.c ****         gattErr = CyBle_EsssWriteEventHandler(eventParam);
 310:.\Generated_Source\PSoC4/BLE_eventHandler.c ****     }
 311:.\Generated_Source\PSoC4/BLE_eventHandler.c **** #endif /* CYBLE_ESS_SERVER */
 312:.\Generated_Source\PSoC4/BLE_eventHandler.c **** #ifdef CYBLE_GLS_SERVER
 313:.\Generated_Source\PSoC4/BLE_eventHandler.c ****     if(((cyBle_eventHandlerFlag & CYBLE_CALLBACK) != 0u) && (gattErr == CYBLE_GATT_ERR_NONE))
 314:.\Generated_Source\PSoC4/BLE_eventHandler.c ****     {
 315:.\Generated_Source\PSoC4/BLE_eventHandler.c ****         gattErr = CyBle_GlssWriteEventHandler(eventParam);
 316:.\Generated_Source\PSoC4/BLE_eventHandler.c ****     }
 317:.\Generated_Source\PSoC4/BLE_eventHandler.c **** #endif /* CYBLE_GLS_SERVER */
ARM GAS  C:\Users\behrenb2\AppData\Local\Temp\ccNHrcVd.s 			page 8


 318:.\Generated_Source\PSoC4/BLE_eventHandler.c **** #ifdef CYBLE_HIDS_SERVER
 319:.\Generated_Source\PSoC4/BLE_eventHandler.c ****     if(((cyBle_eventHandlerFlag & CYBLE_CALLBACK) != 0u) && (gattErr == CYBLE_GATT_ERR_NONE))
 320:.\Generated_Source\PSoC4/BLE_eventHandler.c ****     {
 321:.\Generated_Source\PSoC4/BLE_eventHandler.c ****         gattErr = CyBle_HidssWriteEventHandler(eventParam);
 322:.\Generated_Source\PSoC4/BLE_eventHandler.c ****     }
 323:.\Generated_Source\PSoC4/BLE_eventHandler.c **** #endif /* CYBLE_HIDS_SERVER */
 324:.\Generated_Source\PSoC4/BLE_eventHandler.c **** #ifdef CYBLE_HPS_SERVER
 325:.\Generated_Source\PSoC4/BLE_eventHandler.c ****     if(((cyBle_eventHandlerFlag & CYBLE_CALLBACK) != 0u) && (gattErr == CYBLE_GATT_ERR_NONE))
 326:.\Generated_Source\PSoC4/BLE_eventHandler.c ****     {
 327:.\Generated_Source\PSoC4/BLE_eventHandler.c ****         gattErr = CyBle_HpssWriteEventHandler(eventParam);
 328:.\Generated_Source\PSoC4/BLE_eventHandler.c ****     }
 329:.\Generated_Source\PSoC4/BLE_eventHandler.c **** #endif /* CYBLE_HPS_SERVER */
 330:.\Generated_Source\PSoC4/BLE_eventHandler.c **** #ifdef CYBLE_HRS_SERVER
 331:.\Generated_Source\PSoC4/BLE_eventHandler.c ****     if(((cyBle_eventHandlerFlag & CYBLE_CALLBACK) != 0u) && (gattErr == CYBLE_GATT_ERR_NONE))
 332:.\Generated_Source\PSoC4/BLE_eventHandler.c ****     {
 333:.\Generated_Source\PSoC4/BLE_eventHandler.c ****         gattErr = CyBle_HrssWriteEventHandler(eventParam);
 334:.\Generated_Source\PSoC4/BLE_eventHandler.c ****     }
 335:.\Generated_Source\PSoC4/BLE_eventHandler.c **** #endif /* CYBLE_HRS_SERVER */
 336:.\Generated_Source\PSoC4/BLE_eventHandler.c **** #ifdef CYBLE_HTS_SERVER
 337:.\Generated_Source\PSoC4/BLE_eventHandler.c ****     if(((cyBle_eventHandlerFlag & CYBLE_CALLBACK) != 0u) && (gattErr == CYBLE_GATT_ERR_NONE))
  83              		.loc 1 337 0
  84 0040 1E4B     		ldr	r3, .L6
  85 0042 1B78     		ldrb	r3, [r3]
  86 0044 DBB2     		uxtb	r3, r3
  87 0046 1A1C     		mov	r2, r3
  88 0048 0123     		mov	r3, #1
  89 004a 1340     		and	r3, r2
  90 004c 0CD0     		beq	.L3
  91              		.loc 1 337 0 is_stmt 0 discriminator 1
  92 004e 0F23     		mov	r3, #15
  93 0050 FB18     		add	r3, r7, r3
  94 0052 1B78     		ldrb	r3, [r3]
  95 0054 002B     		cmp	r3, #0
  96 0056 07D1     		bne	.L3
 338:.\Generated_Source\PSoC4/BLE_eventHandler.c ****     {
 339:.\Generated_Source\PSoC4/BLE_eventHandler.c ****         gattErr = CyBle_HtssWriteEventHandler(eventParam);
  97              		.loc 1 339 0 is_stmt 1
  98 0058 0F23     		mov	r3, #15
  99 005a FC18     		add	r4, r7, r3
 100 005c 7B68     		ldr	r3, [r7, #4]
 101 005e 181C     		mov	r0, r3
 102 0060 FFF7FEFF 		bl	CyBle_HtssWriteEventHandler
 103 0064 031C     		mov	r3, r0
 104 0066 2370     		strb	r3, [r4]
 105              	.L3:
 340:.\Generated_Source\PSoC4/BLE_eventHandler.c ****     }
 341:.\Generated_Source\PSoC4/BLE_eventHandler.c **** #endif /* CYBLE_HTS_SERVER */
 342:.\Generated_Source\PSoC4/BLE_eventHandler.c **** #ifdef CYBLE_IPS_SERVER
 343:.\Generated_Source\PSoC4/BLE_eventHandler.c ****     if(((cyBle_eventHandlerFlag & CYBLE_CALLBACK) != 0u) && (gattErr == CYBLE_GATT_ERR_NONE))
 344:.\Generated_Source\PSoC4/BLE_eventHandler.c ****     {
 345:.\Generated_Source\PSoC4/BLE_eventHandler.c ****         gattErr = CyBle_IpssWriteEventHandler(eventParam);
 346:.\Generated_Source\PSoC4/BLE_eventHandler.c ****     }
 347:.\Generated_Source\PSoC4/BLE_eventHandler.c **** #endif /* CYBLE_IPS_SERVER */
 348:.\Generated_Source\PSoC4/BLE_eventHandler.c **** #ifdef CYBLE_LLS_SERVER
 349:.\Generated_Source\PSoC4/BLE_eventHandler.c ****     if(((cyBle_eventHandlerFlag & CYBLE_CALLBACK) != 0u) && (gattErr == CYBLE_GATT_ERR_NONE))
 350:.\Generated_Source\PSoC4/BLE_eventHandler.c ****     {
 351:.\Generated_Source\PSoC4/BLE_eventHandler.c ****         gattErr = CyBle_LlssWriteEventHandler(eventParam);
ARM GAS  C:\Users\behrenb2\AppData\Local\Temp\ccNHrcVd.s 			page 9


 352:.\Generated_Source\PSoC4/BLE_eventHandler.c ****     }
 353:.\Generated_Source\PSoC4/BLE_eventHandler.c **** #endif /* CYBLE_LLS_SERVER */
 354:.\Generated_Source\PSoC4/BLE_eventHandler.c **** #ifdef CYBLE_LNS_SERVER
 355:.\Generated_Source\PSoC4/BLE_eventHandler.c ****     if(((cyBle_eventHandlerFlag & CYBLE_CALLBACK) != 0u) && (gattErr == CYBLE_GATT_ERR_NONE))
 356:.\Generated_Source\PSoC4/BLE_eventHandler.c ****     {
 357:.\Generated_Source\PSoC4/BLE_eventHandler.c ****         gattErr = CyBle_LnssWriteEventHandler(eventParam);
 358:.\Generated_Source\PSoC4/BLE_eventHandler.c ****     }
 359:.\Generated_Source\PSoC4/BLE_eventHandler.c **** #endif /* CYBLE_LNS_SERVER */
 360:.\Generated_Source\PSoC4/BLE_eventHandler.c **** #ifdef CYBLE_PASS_SERVER
 361:.\Generated_Source\PSoC4/BLE_eventHandler.c ****     if(((cyBle_eventHandlerFlag & CYBLE_CALLBACK) != 0u) && (gattErr == CYBLE_GATT_ERR_NONE))
 362:.\Generated_Source\PSoC4/BLE_eventHandler.c ****     {
 363:.\Generated_Source\PSoC4/BLE_eventHandler.c ****         gattErr = CyBle_PasssWriteEventHandler(eventParam);
 364:.\Generated_Source\PSoC4/BLE_eventHandler.c ****     }
 365:.\Generated_Source\PSoC4/BLE_eventHandler.c **** #endif /* CYBLE_PASS_SERVER */
 366:.\Generated_Source\PSoC4/BLE_eventHandler.c **** #ifdef CYBLE_RSCS_SERVER
 367:.\Generated_Source\PSoC4/BLE_eventHandler.c ****     if(((cyBle_eventHandlerFlag & CYBLE_CALLBACK) != 0u) && (gattErr == CYBLE_GATT_ERR_NONE))
 368:.\Generated_Source\PSoC4/BLE_eventHandler.c ****     {
 369:.\Generated_Source\PSoC4/BLE_eventHandler.c ****         gattErr = CyBle_RscssWriteEventHandler(eventParam);
 370:.\Generated_Source\PSoC4/BLE_eventHandler.c ****     }
 371:.\Generated_Source\PSoC4/BLE_eventHandler.c **** #endif /* CYBLE_RSCS_SERVER */
 372:.\Generated_Source\PSoC4/BLE_eventHandler.c **** #ifdef CYBLE_SCPS_SERVER
 373:.\Generated_Source\PSoC4/BLE_eventHandler.c ****     if(((cyBle_eventHandlerFlag & CYBLE_CALLBACK) != 0u) && (gattErr == CYBLE_GATT_ERR_NONE))
 374:.\Generated_Source\PSoC4/BLE_eventHandler.c ****     {
 375:.\Generated_Source\PSoC4/BLE_eventHandler.c ****         gattErr = CyBle_ScpssWriteEventHandler(eventParam);
 376:.\Generated_Source\PSoC4/BLE_eventHandler.c ****     }
 377:.\Generated_Source\PSoC4/BLE_eventHandler.c **** #endif /* CYBLE_SCPS_SERVER */
 378:.\Generated_Source\PSoC4/BLE_eventHandler.c **** #ifdef CYBLE_TPS_SERVER
 379:.\Generated_Source\PSoC4/BLE_eventHandler.c ****     if(((cyBle_eventHandlerFlag & CYBLE_CALLBACK) != 0u) && (gattErr == CYBLE_GATT_ERR_NONE))
 380:.\Generated_Source\PSoC4/BLE_eventHandler.c ****     {
 381:.\Generated_Source\PSoC4/BLE_eventHandler.c ****         gattErr = CyBle_TpssWriteEventHandler(eventParam);
 382:.\Generated_Source\PSoC4/BLE_eventHandler.c ****     }
 383:.\Generated_Source\PSoC4/BLE_eventHandler.c **** #endif /* CYBLE_TPS_SERVER */
 384:.\Generated_Source\PSoC4/BLE_eventHandler.c **** #ifdef CYBLE_UDS_SERVER
 385:.\Generated_Source\PSoC4/BLE_eventHandler.c ****     if(((cyBle_eventHandlerFlag & CYBLE_CALLBACK) != 0u) && (gattErr == CYBLE_GATT_ERR_NONE))
 386:.\Generated_Source\PSoC4/BLE_eventHandler.c ****     {
 387:.\Generated_Source\PSoC4/BLE_eventHandler.c ****         gattErr = CyBle_UdssWriteEventHandler(eventParam);
 388:.\Generated_Source\PSoC4/BLE_eventHandler.c ****     }
 389:.\Generated_Source\PSoC4/BLE_eventHandler.c **** #endif /* CYBLE_UDS_SERVER */
 390:.\Generated_Source\PSoC4/BLE_eventHandler.c **** #ifdef CYBLE_WPTS_SERVER
 391:.\Generated_Source\PSoC4/BLE_eventHandler.c ****     if(((cyBle_eventHandlerFlag & CYBLE_CALLBACK) != 0u) && (gattErr == CYBLE_GATT_ERR_NONE))
 392:.\Generated_Source\PSoC4/BLE_eventHandler.c ****     {
 393:.\Generated_Source\PSoC4/BLE_eventHandler.c ****         gattErr = CyBle_WptssWriteEventHandler(eventParam);
 394:.\Generated_Source\PSoC4/BLE_eventHandler.c ****     }
 395:.\Generated_Source\PSoC4/BLE_eventHandler.c **** #endif /* CYBLE_WPTS_SERVER */
 396:.\Generated_Source\PSoC4/BLE_eventHandler.c **** #ifdef CYBLE_WSS_SERVER
 397:.\Generated_Source\PSoC4/BLE_eventHandler.c ****     if(((cyBle_eventHandlerFlag & CYBLE_CALLBACK) != 0u) && (gattErr == CYBLE_GATT_ERR_NONE))
 398:.\Generated_Source\PSoC4/BLE_eventHandler.c ****     {
 399:.\Generated_Source\PSoC4/BLE_eventHandler.c ****         gattErr = CyBle_WsssWriteEventHandler(eventParam);
 400:.\Generated_Source\PSoC4/BLE_eventHandler.c ****     }
 401:.\Generated_Source\PSoC4/BLE_eventHandler.c **** #endif /* CYBLE_WSS_SERVER */
 402:.\Generated_Source\PSoC4/BLE_eventHandler.c **** 
 403:.\Generated_Source\PSoC4/BLE_eventHandler.c ****     /* Send response when event was handled by service */
 404:.\Generated_Source\PSoC4/BLE_eventHandler.c ****     if((cyBle_eventHandlerFlag & CYBLE_CALLBACK) == 0u)
 106              		.loc 1 404 0
 107 0068 144B     		ldr	r3, .L6
 108 006a 1B78     		ldrb	r3, [r3]
 109 006c DBB2     		uxtb	r3, r3
ARM GAS  C:\Users\behrenb2\AppData\Local\Temp\ccNHrcVd.s 			page 10


 110 006e 1A1C     		mov	r2, r3
 111 0070 0123     		mov	r3, #1
 112 0072 1340     		and	r3, r2
 113 0074 1FD1     		bne	.L1
 405:.\Generated_Source\PSoC4/BLE_eventHandler.c ****     {
 406:.\Generated_Source\PSoC4/BLE_eventHandler.c ****         if(gattErr != CYBLE_GATT_ERR_NONE)
 114              		.loc 1 406 0
 115 0076 0F23     		mov	r3, #15
 116 0078 FB18     		add	r3, r7, r3
 117 007a 1B78     		ldrb	r3, [r3]
 118 007c 002B     		cmp	r3, #0
 119 007e 16D0     		beq	.L5
 120              	.LBB2:
 407:.\Generated_Source\PSoC4/BLE_eventHandler.c ****         {
 408:.\Generated_Source\PSoC4/BLE_eventHandler.c ****             CYBLE_GATTS_ERR_PARAM_T err_param;
 409:.\Generated_Source\PSoC4/BLE_eventHandler.c ****             
 410:.\Generated_Source\PSoC4/BLE_eventHandler.c ****             err_param.opcode = (uint8) CYBLE_GATT_WRITE_REQ;
 121              		.loc 1 410 0
 122 0080 0823     		mov	r3, #8
 123 0082 FB18     		add	r3, r7, r3
 124 0084 1222     		mov	r2, #18
 125 0086 9A70     		strb	r2, [r3, #2]
 411:.\Generated_Source\PSoC4/BLE_eventHandler.c ****             err_param.attrHandle = eventParam->handleValPair.attrHandle;
 126              		.loc 1 411 0
 127 0088 7B68     		ldr	r3, [r7, #4]
 128 008a 9A89     		ldrh	r2, [r3, #12]
 129 008c 0823     		mov	r3, #8
 130 008e FB18     		add	r3, r7, r3
 131 0090 1A80     		strh	r2, [r3]
 412:.\Generated_Source\PSoC4/BLE_eventHandler.c ****             err_param.errorCode = gattErr;
 132              		.loc 1 412 0
 133 0092 0823     		mov	r3, #8
 134 0094 FB18     		add	r3, r7, r3
 135 0096 0F22     		mov	r2, #15
 136 0098 BA18     		add	r2, r7, r2
 137 009a 1278     		ldrb	r2, [r2]
 138 009c DA70     		strb	r2, [r3, #3]
 413:.\Generated_Source\PSoC4/BLE_eventHandler.c **** 
 414:.\Generated_Source\PSoC4/BLE_eventHandler.c ****             /* Send Error Response */
 415:.\Generated_Source\PSoC4/BLE_eventHandler.c ****             (void)CyBle_GattsErrorRsp(eventParam->connHandle, &err_param);
 139              		.loc 1 415 0
 140 009e 7B68     		ldr	r3, [r7, #4]
 141 00a0 0822     		mov	r2, #8
 142 00a2 BA18     		add	r2, r7, r2
 143 00a4 1868     		ldr	r0, [r3]
 144 00a6 111C     		mov	r1, r2
 145 00a8 FFF7FEFF 		bl	CyBle_GattsErrorRsp
 146              	.LBE2:
 147 00ac 03E0     		b	.L1
 148              	.L5:
 416:.\Generated_Source\PSoC4/BLE_eventHandler.c ****         }
 417:.\Generated_Source\PSoC4/BLE_eventHandler.c ****         else
 418:.\Generated_Source\PSoC4/BLE_eventHandler.c ****         {
 419:.\Generated_Source\PSoC4/BLE_eventHandler.c ****             (void)CyBle_GattsWriteRsp(eventParam->connHandle);
 149              		.loc 1 419 0
 150 00ae 7B68     		ldr	r3, [r7, #4]
 151 00b0 1868     		ldr	r0, [r3]
ARM GAS  C:\Users\behrenb2\AppData\Local\Temp\ccNHrcVd.s 			page 11


 152 00b2 FFF7FEFF 		bl	CyBle_GattsWriteRsp
 153              	.L1:
 420:.\Generated_Source\PSoC4/BLE_eventHandler.c ****         }
 421:.\Generated_Source\PSoC4/BLE_eventHandler.c ****     }
 422:.\Generated_Source\PSoC4/BLE_eventHandler.c **** }
 154              		.loc 1 422 0
 155 00b6 BD46     		mov	sp, r7
 156 00b8 05B0     		add	sp, sp, #20
 157              		@ sp needed
 158 00ba 90BD     		pop	{r4, r7, pc}
 159              	.L7:
 160              		.align	2
 161              	.L6:
 162 00bc 00000000 		.word	cyBle_eventHandlerFlag
 163              		.cfi_endproc
 164              	.LFE2:
 165              		.size	CyBle_WriteReqHandler, .-CyBle_WriteReqHandler
 166              		.section	.text.CyBle_ValueConfirmation,"ax",%progbits
 167              		.align	2
 168              		.code	16
 169              		.thumb_func
 170              		.type	CyBle_ValueConfirmation, %function
 171              	CyBle_ValueConfirmation:
 172              	.LFB3:
 423:.\Generated_Source\PSoC4/BLE_eventHandler.c **** 
 424:.\Generated_Source\PSoC4/BLE_eventHandler.c **** 
 425:.\Generated_Source\PSoC4/BLE_eventHandler.c **** /****************************************************************************** 
 426:.\Generated_Source\PSoC4/BLE_eventHandler.c **** * Function Name: CyBle_ValueConfirmation
 427:.\Generated_Source\PSoC4/BLE_eventHandler.c **** ***************************************************************************//**
 428:.\Generated_Source\PSoC4/BLE_eventHandler.c **** * 
 429:.\Generated_Source\PSoC4/BLE_eventHandler.c **** *  Handles the Value Confirmation request event from the BLE stack.
 430:.\Generated_Source\PSoC4/BLE_eventHandler.c **** * 
 431:.\Generated_Source\PSoC4/BLE_eventHandler.c **** *  \param eventParam: Pointer to a structure of type 'CYBLE_CONN_HANDLE_T'
 432:.\Generated_Source\PSoC4/BLE_eventHandler.c **** * 
 433:.\Generated_Source\PSoC4/BLE_eventHandler.c **** * \return
 434:.\Generated_Source\PSoC4/BLE_eventHandler.c **** *  None
 435:.\Generated_Source\PSoC4/BLE_eventHandler.c **** * 
 436:.\Generated_Source\PSoC4/BLE_eventHandler.c **** ******************************************************************************/
 437:.\Generated_Source\PSoC4/BLE_eventHandler.c **** static void CyBle_ValueConfirmation(const CYBLE_CONN_HANDLE_T *eventParam)
 438:.\Generated_Source\PSoC4/BLE_eventHandler.c **** {
 173              		.loc 1 438 0
 174              		.cfi_startproc
 175 0000 80B5     		push	{r7, lr}
 176              		.cfi_def_cfa_offset 8
 177              		.cfi_offset 7, -8
 178              		.cfi_offset 14, -4
 179 0002 82B0     		sub	sp, sp, #8
 180              		.cfi_def_cfa_offset 16
 181 0004 00AF     		add	r7, sp, #0
 182              		.cfi_def_cfa_register 7
 183 0006 7860     		str	r0, [r7, #4]
 439:.\Generated_Source\PSoC4/BLE_eventHandler.c ****     if(eventParam != NULL)
 184              		.loc 1 439 0
 185 0008 7B68     		ldr	r3, [r7, #4]
 186 000a 002B     		cmp	r3, #0
 187 000c 0AD0     		beq	.L8
 440:.\Generated_Source\PSoC4/BLE_eventHandler.c ****     {
ARM GAS  C:\Users\behrenb2\AppData\Local\Temp\ccNHrcVd.s 			page 12


 441:.\Generated_Source\PSoC4/BLE_eventHandler.c ****     #ifdef CYBLE_BCS_SERVER
 442:.\Generated_Source\PSoC4/BLE_eventHandler.c ****         CyBle_BcssConfirmationEventHandler(eventParam);
 443:.\Generated_Source\PSoC4/BLE_eventHandler.c ****     #endif /* CYBLE_BCS_SERVER */
 444:.\Generated_Source\PSoC4/BLE_eventHandler.c ****     #ifdef CYBLE_BLS_SERVER
 445:.\Generated_Source\PSoC4/BLE_eventHandler.c ****         if((cyBle_eventHandlerFlag & CYBLE_CALLBACK) != 0u)
 446:.\Generated_Source\PSoC4/BLE_eventHandler.c ****         {
 447:.\Generated_Source\PSoC4/BLE_eventHandler.c ****             CyBle_BlssConfirmationEventHandler(eventParam);
 448:.\Generated_Source\PSoC4/BLE_eventHandler.c ****         }
 449:.\Generated_Source\PSoC4/BLE_eventHandler.c ****     #endif /* CYBLE_BLS_SERVER */
 450:.\Generated_Source\PSoC4/BLE_eventHandler.c ****     
 451:.\Generated_Source\PSoC4/BLE_eventHandler.c ****     #ifdef CYBLE_CGMS_SERVER
 452:.\Generated_Source\PSoC4/BLE_eventHandler.c ****         if((cyBle_eventHandlerFlag & CYBLE_CALLBACK) != 0u)
 453:.\Generated_Source\PSoC4/BLE_eventHandler.c ****         {
 454:.\Generated_Source\PSoC4/BLE_eventHandler.c ****             CyBle_CgmssConfirmationEventHandler(eventParam);
 455:.\Generated_Source\PSoC4/BLE_eventHandler.c ****         }
 456:.\Generated_Source\PSoC4/BLE_eventHandler.c ****     #endif /* CYBLE_CGMS_SERVER */
 457:.\Generated_Source\PSoC4/BLE_eventHandler.c ****     
 458:.\Generated_Source\PSoC4/BLE_eventHandler.c ****     #ifdef CYBLE_CPS_SERVER
 459:.\Generated_Source\PSoC4/BLE_eventHandler.c ****         if((cyBle_eventHandlerFlag & CYBLE_CALLBACK) != 0u)
 460:.\Generated_Source\PSoC4/BLE_eventHandler.c ****         {
 461:.\Generated_Source\PSoC4/BLE_eventHandler.c ****             CyBle_CpssConfirmationEventHandler(eventParam);
 462:.\Generated_Source\PSoC4/BLE_eventHandler.c ****         }
 463:.\Generated_Source\PSoC4/BLE_eventHandler.c ****     #endif /* CYBLE_CPS_SERVER */
 464:.\Generated_Source\PSoC4/BLE_eventHandler.c ****     
 465:.\Generated_Source\PSoC4/BLE_eventHandler.c ****     #ifdef CYBLE_CSCS_SERVER
 466:.\Generated_Source\PSoC4/BLE_eventHandler.c ****         if((cyBle_eventHandlerFlag & CYBLE_CALLBACK) != 0u)
 467:.\Generated_Source\PSoC4/BLE_eventHandler.c ****         {
 468:.\Generated_Source\PSoC4/BLE_eventHandler.c ****             CyBle_CscssConfirmationEventHandler(eventParam);
 469:.\Generated_Source\PSoC4/BLE_eventHandler.c ****         }
 470:.\Generated_Source\PSoC4/BLE_eventHandler.c ****     #endif /* CYBLE_CSCS_SERVER */
 471:.\Generated_Source\PSoC4/BLE_eventHandler.c ****     
 472:.\Generated_Source\PSoC4/BLE_eventHandler.c ****     #ifdef CYBLE_ESS_SERVER
 473:.\Generated_Source\PSoC4/BLE_eventHandler.c ****         if((cyBle_eventHandlerFlag & CYBLE_CALLBACK) != 0u)
 474:.\Generated_Source\PSoC4/BLE_eventHandler.c ****         {
 475:.\Generated_Source\PSoC4/BLE_eventHandler.c ****             CyBle_EsssConfirmationEventHandler(eventParam);
 476:.\Generated_Source\PSoC4/BLE_eventHandler.c ****         }
 477:.\Generated_Source\PSoC4/BLE_eventHandler.c ****     #endif /* CYBLE_ESS_SERVER */
 478:.\Generated_Source\PSoC4/BLE_eventHandler.c ****     
 479:.\Generated_Source\PSoC4/BLE_eventHandler.c ****     #ifdef CYBLE_GLS_SERVER
 480:.\Generated_Source\PSoC4/BLE_eventHandler.c ****         if((cyBle_eventHandlerFlag & CYBLE_CALLBACK) != 0u)
 481:.\Generated_Source\PSoC4/BLE_eventHandler.c ****         {
 482:.\Generated_Source\PSoC4/BLE_eventHandler.c ****             CyBle_GlssConfirmationEventHandler(eventParam);
 483:.\Generated_Source\PSoC4/BLE_eventHandler.c ****         }
 484:.\Generated_Source\PSoC4/BLE_eventHandler.c ****     #endif /* CYBLE_GLS_SERVER */
 485:.\Generated_Source\PSoC4/BLE_eventHandler.c ****     
 486:.\Generated_Source\PSoC4/BLE_eventHandler.c ****     #ifdef CYBLE_HTS_SERVER
 487:.\Generated_Source\PSoC4/BLE_eventHandler.c ****         if((cyBle_eventHandlerFlag & CYBLE_CALLBACK) != 0u)
 188              		.loc 1 487 0
 189 000e 074B     		ldr	r3, .L10
 190 0010 1B78     		ldrb	r3, [r3]
 191 0012 DBB2     		uxtb	r3, r3
 192 0014 1A1C     		mov	r2, r3
 193 0016 0123     		mov	r3, #1
 194 0018 1340     		and	r3, r2
 195 001a 03D0     		beq	.L8
 488:.\Generated_Source\PSoC4/BLE_eventHandler.c ****         {
 489:.\Generated_Source\PSoC4/BLE_eventHandler.c ****             CyBle_HtssConfirmationEventHandler(eventParam);
ARM GAS  C:\Users\behrenb2\AppData\Local\Temp\ccNHrcVd.s 			page 13


 196              		.loc 1 489 0
 197 001c 7B68     		ldr	r3, [r7, #4]
 198 001e 181C     		mov	r0, r3
 199 0020 FFF7FEFF 		bl	CyBle_HtssConfirmationEventHandler
 200              	.L8:
 490:.\Generated_Source\PSoC4/BLE_eventHandler.c ****         }
 491:.\Generated_Source\PSoC4/BLE_eventHandler.c ****     #endif /* CYBLE_HTS_SERVER */
 492:.\Generated_Source\PSoC4/BLE_eventHandler.c **** 
 493:.\Generated_Source\PSoC4/BLE_eventHandler.c ****     #ifdef CYBLE_LNS_SERVER
 494:.\Generated_Source\PSoC4/BLE_eventHandler.c ****         if((cyBle_eventHandlerFlag & CYBLE_CALLBACK) != 0u)
 495:.\Generated_Source\PSoC4/BLE_eventHandler.c ****         {
 496:.\Generated_Source\PSoC4/BLE_eventHandler.c ****             CyBle_LnssConfirmationEventHandler(eventParam);
 497:.\Generated_Source\PSoC4/BLE_eventHandler.c ****         }
 498:.\Generated_Source\PSoC4/BLE_eventHandler.c ****     #endif /* CYBLE_LNS_SERVER */
 499:.\Generated_Source\PSoC4/BLE_eventHandler.c ****     
 500:.\Generated_Source\PSoC4/BLE_eventHandler.c ****     #ifdef CYBLE_RSCS_SERVER
 501:.\Generated_Source\PSoC4/BLE_eventHandler.c ****         if((cyBle_eventHandlerFlag & CYBLE_CALLBACK) != 0u)
 502:.\Generated_Source\PSoC4/BLE_eventHandler.c ****         {
 503:.\Generated_Source\PSoC4/BLE_eventHandler.c ****             CyBle_RscssConfirmationEventHandler(eventParam);
 504:.\Generated_Source\PSoC4/BLE_eventHandler.c ****         }
 505:.\Generated_Source\PSoC4/BLE_eventHandler.c ****     #endif /* CYBLE_RSCS_SERVER */
 506:.\Generated_Source\PSoC4/BLE_eventHandler.c ****     
 507:.\Generated_Source\PSoC4/BLE_eventHandler.c ****     #ifdef CYBLE_UDS_SERVER
 508:.\Generated_Source\PSoC4/BLE_eventHandler.c ****         if((cyBle_eventHandlerFlag & CYBLE_CALLBACK) != 0u)
 509:.\Generated_Source\PSoC4/BLE_eventHandler.c ****         {
 510:.\Generated_Source\PSoC4/BLE_eventHandler.c ****             CyBle_UdssConfirmationEventHandler(eventParam);
 511:.\Generated_Source\PSoC4/BLE_eventHandler.c ****         }
 512:.\Generated_Source\PSoC4/BLE_eventHandler.c ****     #endif /* CYBLE_UDS_SERVER */
 513:.\Generated_Source\PSoC4/BLE_eventHandler.c ****     
 514:.\Generated_Source\PSoC4/BLE_eventHandler.c ****     #ifdef CYBLE_WPTS_SERVER
 515:.\Generated_Source\PSoC4/BLE_eventHandler.c ****         if((cyBle_eventHandlerFlag & CYBLE_CALLBACK) != 0u)
 516:.\Generated_Source\PSoC4/BLE_eventHandler.c ****         {
 517:.\Generated_Source\PSoC4/BLE_eventHandler.c ****             CyBle_WptssConfirmationEventHandler(eventParam);
 518:.\Generated_Source\PSoC4/BLE_eventHandler.c ****         }
 519:.\Generated_Source\PSoC4/BLE_eventHandler.c ****     #endif /* CYBLE_WPTS_SERVER */
 520:.\Generated_Source\PSoC4/BLE_eventHandler.c ****     
 521:.\Generated_Source\PSoC4/BLE_eventHandler.c ****     #ifdef CYBLE_WSS_SERVER
 522:.\Generated_Source\PSoC4/BLE_eventHandler.c ****         if((cyBle_eventHandlerFlag & CYBLE_CALLBACK) != 0u)
 523:.\Generated_Source\PSoC4/BLE_eventHandler.c ****         {
 524:.\Generated_Source\PSoC4/BLE_eventHandler.c ****             CyBle_WsssConfirmationEventHandler(eventParam);
 525:.\Generated_Source\PSoC4/BLE_eventHandler.c ****         }
 526:.\Generated_Source\PSoC4/BLE_eventHandler.c ****     #endif /* CYBLE_WSS_SERVER */
 527:.\Generated_Source\PSoC4/BLE_eventHandler.c ****     }
 528:.\Generated_Source\PSoC4/BLE_eventHandler.c **** }
 201              		.loc 1 528 0
 202 0024 BD46     		mov	sp, r7
 203 0026 02B0     		add	sp, sp, #8
 204              		@ sp needed
 205 0028 80BD     		pop	{r7, pc}
 206              	.L11:
 207 002a C046     		.align	2
 208              	.L10:
 209 002c 00000000 		.word	cyBle_eventHandlerFlag
 210              		.cfi_endproc
 211              	.LFE3:
 212              		.size	CyBle_ValueConfirmation, .-CyBle_ValueConfirmation
 213              		.section	.text.CyBle_GattDisconnectEventHandler,"ax",%progbits
ARM GAS  C:\Users\behrenb2\AppData\Local\Temp\ccNHrcVd.s 			page 14


 214              		.align	2
 215              		.code	16
 216              		.thumb_func
 217              		.type	CyBle_GattDisconnectEventHandler, %function
 218              	CyBle_GattDisconnectEventHandler:
 219              	.LFB4:
 529:.\Generated_Source\PSoC4/BLE_eventHandler.c **** 
 530:.\Generated_Source\PSoC4/BLE_eventHandler.c **** #endif /* CYBLE_GATT_ROLE_SERVER */
 531:.\Generated_Source\PSoC4/BLE_eventHandler.c **** 
 532:.\Generated_Source\PSoC4/BLE_eventHandler.c **** 
 533:.\Generated_Source\PSoC4/BLE_eventHandler.c **** #if (CYBLE_GATT_ROLE_CLIENT)
 534:.\Generated_Source\PSoC4/BLE_eventHandler.c **** 
 535:.\Generated_Source\PSoC4/BLE_eventHandler.c **** /****************************************************************************** 
 536:.\Generated_Source\PSoC4/BLE_eventHandler.c **** * Function Name: CyBle_GattcWriteResponseEventHandler
 537:.\Generated_Source\PSoC4/BLE_eventHandler.c **** ***************************************************************************//**
 538:.\Generated_Source\PSoC4/BLE_eventHandler.c **** * 
 539:.\Generated_Source\PSoC4/BLE_eventHandler.c **** *  Handles the Write response event from the BLE stack.
 540:.\Generated_Source\PSoC4/BLE_eventHandler.c **** * 
 541:.\Generated_Source\PSoC4/BLE_eventHandler.c **** *  \param eventParam: Pointer to a structure of type 'CYBLE_CONN_HANDLE_T'
 542:.\Generated_Source\PSoC4/BLE_eventHandler.c **** * 
 543:.\Generated_Source\PSoC4/BLE_eventHandler.c **** * \return
 544:.\Generated_Source\PSoC4/BLE_eventHandler.c **** *  None
 545:.\Generated_Source\PSoC4/BLE_eventHandler.c **** * 
 546:.\Generated_Source\PSoC4/BLE_eventHandler.c **** ******************************************************************************/
 547:.\Generated_Source\PSoC4/BLE_eventHandler.c **** static void CyBle_GattcWriteResponseEventHandler(const CYBLE_CONN_HANDLE_T *eventParam)
 548:.\Generated_Source\PSoC4/BLE_eventHandler.c **** {
 549:.\Generated_Source\PSoC4/BLE_eventHandler.c **** #ifdef CYBLE_ANCS_CLIENT
 550:.\Generated_Source\PSoC4/BLE_eventHandler.c ****     CyBle_AncscWriteResponseEventHandler(eventParam);
 551:.\Generated_Source\PSoC4/BLE_eventHandler.c **** #endif /* CYBLE_ANCS_CLIENT */
 552:.\Generated_Source\PSoC4/BLE_eventHandler.c **** 
 553:.\Generated_Source\PSoC4/BLE_eventHandler.c **** #ifdef CYBLE_ANS_CLIENT
 554:.\Generated_Source\PSoC4/BLE_eventHandler.c ****     if((cyBle_eventHandlerFlag & CYBLE_CALLBACK) != 0u)
 555:.\Generated_Source\PSoC4/BLE_eventHandler.c ****     {
 556:.\Generated_Source\PSoC4/BLE_eventHandler.c ****         CyBle_AnscWriteResponseEventHandler(eventParam);
 557:.\Generated_Source\PSoC4/BLE_eventHandler.c ****     }
 558:.\Generated_Source\PSoC4/BLE_eventHandler.c **** #endif /* CYBLE_ANS_CLIENT */
 559:.\Generated_Source\PSoC4/BLE_eventHandler.c **** 
 560:.\Generated_Source\PSoC4/BLE_eventHandler.c **** #ifdef CYBLE_BAS_CLIENT
 561:.\Generated_Source\PSoC4/BLE_eventHandler.c ****     if((cyBle_eventHandlerFlag & CYBLE_CALLBACK) != 0u)
 562:.\Generated_Source\PSoC4/BLE_eventHandler.c ****     {
 563:.\Generated_Source\PSoC4/BLE_eventHandler.c ****         CyBle_BascWriteResponseEventHandler(eventParam);
 564:.\Generated_Source\PSoC4/BLE_eventHandler.c ****     }
 565:.\Generated_Source\PSoC4/BLE_eventHandler.c **** #endif /* CYBLE_BAS_CLIENT */
 566:.\Generated_Source\PSoC4/BLE_eventHandler.c **** 
 567:.\Generated_Source\PSoC4/BLE_eventHandler.c **** #ifdef CYBLE_BCS_CLIENT
 568:.\Generated_Source\PSoC4/BLE_eventHandler.c ****     if((cyBle_eventHandlerFlag & CYBLE_CALLBACK) != 0u)
 569:.\Generated_Source\PSoC4/BLE_eventHandler.c ****     {
 570:.\Generated_Source\PSoC4/BLE_eventHandler.c ****         CyBle_BcscWriteResponseEventHandler(eventParam);
 571:.\Generated_Source\PSoC4/BLE_eventHandler.c ****     }
 572:.\Generated_Source\PSoC4/BLE_eventHandler.c **** #endif /* CYBLE_BCS_CLIENT */
 573:.\Generated_Source\PSoC4/BLE_eventHandler.c **** 
 574:.\Generated_Source\PSoC4/BLE_eventHandler.c **** #ifdef CYBLE_BLS_CLIENT
 575:.\Generated_Source\PSoC4/BLE_eventHandler.c ****     if((cyBle_eventHandlerFlag & CYBLE_CALLBACK) != 0u)
 576:.\Generated_Source\PSoC4/BLE_eventHandler.c ****     {
 577:.\Generated_Source\PSoC4/BLE_eventHandler.c ****         CyBle_BlscWriteResponseEventHandler(eventParam);
 578:.\Generated_Source\PSoC4/BLE_eventHandler.c ****     }
 579:.\Generated_Source\PSoC4/BLE_eventHandler.c **** #endif /* CYBLE_BLS_CLIENT */
ARM GAS  C:\Users\behrenb2\AppData\Local\Temp\ccNHrcVd.s 			page 15


 580:.\Generated_Source\PSoC4/BLE_eventHandler.c **** 
 581:.\Generated_Source\PSoC4/BLE_eventHandler.c **** #ifdef CYBLE_BMS_CLIENT
 582:.\Generated_Source\PSoC4/BLE_eventHandler.c ****     if((cyBle_eventHandlerFlag & CYBLE_CALLBACK) != 0u)
 583:.\Generated_Source\PSoC4/BLE_eventHandler.c ****     {
 584:.\Generated_Source\PSoC4/BLE_eventHandler.c ****         CyBle_BmscWriteResponseEventHandler(eventParam);
 585:.\Generated_Source\PSoC4/BLE_eventHandler.c ****     }
 586:.\Generated_Source\PSoC4/BLE_eventHandler.c **** #endif /* CYBLE_BMS_CLIENT */
 587:.\Generated_Source\PSoC4/BLE_eventHandler.c **** 
 588:.\Generated_Source\PSoC4/BLE_eventHandler.c **** #ifdef CYBLE_CGMS_CLIENT
 589:.\Generated_Source\PSoC4/BLE_eventHandler.c ****     if((cyBle_eventHandlerFlag & CYBLE_CALLBACK) != 0u)
 590:.\Generated_Source\PSoC4/BLE_eventHandler.c ****     {
 591:.\Generated_Source\PSoC4/BLE_eventHandler.c ****         CyBle_CgmscWriteResponseEventHandler(eventParam);
 592:.\Generated_Source\PSoC4/BLE_eventHandler.c ****     }
 593:.\Generated_Source\PSoC4/BLE_eventHandler.c **** #endif /* CYBLE_CGMS_CLIENT */
 594:.\Generated_Source\PSoC4/BLE_eventHandler.c **** 
 595:.\Generated_Source\PSoC4/BLE_eventHandler.c **** #ifdef CYBLE_CPS_CLIENT
 596:.\Generated_Source\PSoC4/BLE_eventHandler.c ****     if((cyBle_eventHandlerFlag & CYBLE_CALLBACK) != 0u)
 597:.\Generated_Source\PSoC4/BLE_eventHandler.c ****     {
 598:.\Generated_Source\PSoC4/BLE_eventHandler.c ****         CyBle_CpscWriteResponseEventHandler(eventParam);
 599:.\Generated_Source\PSoC4/BLE_eventHandler.c ****     }
 600:.\Generated_Source\PSoC4/BLE_eventHandler.c **** #endif /* CYBLE_CPS_CLIENT */
 601:.\Generated_Source\PSoC4/BLE_eventHandler.c **** 
 602:.\Generated_Source\PSoC4/BLE_eventHandler.c **** #ifdef CYBLE_CSCS_CLIENT
 603:.\Generated_Source\PSoC4/BLE_eventHandler.c ****     if((cyBle_eventHandlerFlag & CYBLE_CALLBACK) != 0u)
 604:.\Generated_Source\PSoC4/BLE_eventHandler.c ****     {
 605:.\Generated_Source\PSoC4/BLE_eventHandler.c ****         CyBle_CscscWriteResponseEventHandler(eventParam);
 606:.\Generated_Source\PSoC4/BLE_eventHandler.c ****     }
 607:.\Generated_Source\PSoC4/BLE_eventHandler.c **** #endif /* CYBLE_CSCS_CLIENT */
 608:.\Generated_Source\PSoC4/BLE_eventHandler.c **** 
 609:.\Generated_Source\PSoC4/BLE_eventHandler.c **** #ifdef CYBLE_CTS_CLIENT
 610:.\Generated_Source\PSoC4/BLE_eventHandler.c ****     if((cyBle_eventHandlerFlag & CYBLE_CALLBACK) != 0u)
 611:.\Generated_Source\PSoC4/BLE_eventHandler.c ****     {
 612:.\Generated_Source\PSoC4/BLE_eventHandler.c ****         CyBle_CtscWriteResponseEventHandler(eventParam);
 613:.\Generated_Source\PSoC4/BLE_eventHandler.c ****     }
 614:.\Generated_Source\PSoC4/BLE_eventHandler.c **** #endif /* CYBLE_CTS_CLIENT */
 615:.\Generated_Source\PSoC4/BLE_eventHandler.c **** 
 616:.\Generated_Source\PSoC4/BLE_eventHandler.c **** #ifdef CYBLE_ESS_CLIENT
 617:.\Generated_Source\PSoC4/BLE_eventHandler.c ****     if((cyBle_eventHandlerFlag & CYBLE_CALLBACK) != 0u)
 618:.\Generated_Source\PSoC4/BLE_eventHandler.c ****     {
 619:.\Generated_Source\PSoC4/BLE_eventHandler.c ****         CyBle_EsscWriteResponseEventHandler(eventParam);
 620:.\Generated_Source\PSoC4/BLE_eventHandler.c ****     }
 621:.\Generated_Source\PSoC4/BLE_eventHandler.c **** #endif /* CYBLE_ESS_CLIENT */
 622:.\Generated_Source\PSoC4/BLE_eventHandler.c **** 
 623:.\Generated_Source\PSoC4/BLE_eventHandler.c **** #ifdef CYBLE_GLS_CLIENT
 624:.\Generated_Source\PSoC4/BLE_eventHandler.c ****     if((cyBle_eventHandlerFlag & CYBLE_CALLBACK) != 0u)
 625:.\Generated_Source\PSoC4/BLE_eventHandler.c ****     {
 626:.\Generated_Source\PSoC4/BLE_eventHandler.c ****         CyBle_GlscWriteResponseEventHandler(eventParam);
 627:.\Generated_Source\PSoC4/BLE_eventHandler.c ****     }
 628:.\Generated_Source\PSoC4/BLE_eventHandler.c **** #endif /* CYBLE_GLS_CLIENT */
 629:.\Generated_Source\PSoC4/BLE_eventHandler.c **** 
 630:.\Generated_Source\PSoC4/BLE_eventHandler.c **** #ifdef CYBLE_HIDS_CLIENT
 631:.\Generated_Source\PSoC4/BLE_eventHandler.c ****     if((cyBle_eventHandlerFlag & CYBLE_CALLBACK) != 0u)
 632:.\Generated_Source\PSoC4/BLE_eventHandler.c ****     {
 633:.\Generated_Source\PSoC4/BLE_eventHandler.c ****         CyBle_HidscWriteResponseEventHandler(eventParam);
 634:.\Generated_Source\PSoC4/BLE_eventHandler.c ****     }
 635:.\Generated_Source\PSoC4/BLE_eventHandler.c **** #endif /* CYBLE_HIDS_CLIENT */
 636:.\Generated_Source\PSoC4/BLE_eventHandler.c **** 
ARM GAS  C:\Users\behrenb2\AppData\Local\Temp\ccNHrcVd.s 			page 16


 637:.\Generated_Source\PSoC4/BLE_eventHandler.c **** #ifdef CYBLE_HPS_CLIENT
 638:.\Generated_Source\PSoC4/BLE_eventHandler.c ****     if((cyBle_eventHandlerFlag & CYBLE_CALLBACK) != 0u)
 639:.\Generated_Source\PSoC4/BLE_eventHandler.c ****     {
 640:.\Generated_Source\PSoC4/BLE_eventHandler.c ****         CyBle_HpscWriteResponseEventHandler(eventParam);
 641:.\Generated_Source\PSoC4/BLE_eventHandler.c ****     }
 642:.\Generated_Source\PSoC4/BLE_eventHandler.c **** #endif /* CYBLE_HPS_CLIENT */
 643:.\Generated_Source\PSoC4/BLE_eventHandler.c **** 
 644:.\Generated_Source\PSoC4/BLE_eventHandler.c **** #ifdef CYBLE_HRS_CLIENT
 645:.\Generated_Source\PSoC4/BLE_eventHandler.c ****     if((cyBle_eventHandlerFlag & CYBLE_CALLBACK) != 0u)
 646:.\Generated_Source\PSoC4/BLE_eventHandler.c ****     {
 647:.\Generated_Source\PSoC4/BLE_eventHandler.c ****         CyBle_HrscWriteResponseEventHandler(eventParam);
 648:.\Generated_Source\PSoC4/BLE_eventHandler.c ****     }
 649:.\Generated_Source\PSoC4/BLE_eventHandler.c **** #endif /* CYBLE_HRS_CLIENT */
 650:.\Generated_Source\PSoC4/BLE_eventHandler.c **** 
 651:.\Generated_Source\PSoC4/BLE_eventHandler.c **** #ifdef CYBLE_HTS_CLIENT
 652:.\Generated_Source\PSoC4/BLE_eventHandler.c ****     if((cyBle_eventHandlerFlag & CYBLE_CALLBACK) != 0u)
 653:.\Generated_Source\PSoC4/BLE_eventHandler.c ****     {
 654:.\Generated_Source\PSoC4/BLE_eventHandler.c ****         CyBle_HtscWriteResponseEventHandler(eventParam);
 655:.\Generated_Source\PSoC4/BLE_eventHandler.c ****     }
 656:.\Generated_Source\PSoC4/BLE_eventHandler.c **** #endif /* CYBLE_HTS_CLIENT */
 657:.\Generated_Source\PSoC4/BLE_eventHandler.c **** 
 658:.\Generated_Source\PSoC4/BLE_eventHandler.c **** #ifdef CYBLE_IPS_CLIENT
 659:.\Generated_Source\PSoC4/BLE_eventHandler.c ****     if((cyBle_eventHandlerFlag & CYBLE_CALLBACK) != 0u)
 660:.\Generated_Source\PSoC4/BLE_eventHandler.c ****     {
 661:.\Generated_Source\PSoC4/BLE_eventHandler.c ****         CyBle_IpscWriteResponseEventHandler(eventParam);
 662:.\Generated_Source\PSoC4/BLE_eventHandler.c ****     }
 663:.\Generated_Source\PSoC4/BLE_eventHandler.c **** #endif /* CYBLE_IPS_CLIENT */
 664:.\Generated_Source\PSoC4/BLE_eventHandler.c **** 
 665:.\Generated_Source\PSoC4/BLE_eventHandler.c **** #ifdef CYBLE_LLS_CLIENT
 666:.\Generated_Source\PSoC4/BLE_eventHandler.c ****     if((cyBle_eventHandlerFlag & CYBLE_CALLBACK) != 0u)
 667:.\Generated_Source\PSoC4/BLE_eventHandler.c ****     {
 668:.\Generated_Source\PSoC4/BLE_eventHandler.c ****         CyBle_LlscWriteResponseEventHandler(eventParam);
 669:.\Generated_Source\PSoC4/BLE_eventHandler.c ****     }
 670:.\Generated_Source\PSoC4/BLE_eventHandler.c **** #endif /* CYBLE_LLS_CLIENT */
 671:.\Generated_Source\PSoC4/BLE_eventHandler.c **** 
 672:.\Generated_Source\PSoC4/BLE_eventHandler.c **** #ifdef CYBLE_LNS_CLIENT
 673:.\Generated_Source\PSoC4/BLE_eventHandler.c ****     if((cyBle_eventHandlerFlag & CYBLE_CALLBACK) != 0u)
 674:.\Generated_Source\PSoC4/BLE_eventHandler.c ****     {
 675:.\Generated_Source\PSoC4/BLE_eventHandler.c ****         CyBle_LnscWriteResponseEventHandler(eventParam);
 676:.\Generated_Source\PSoC4/BLE_eventHandler.c ****     }
 677:.\Generated_Source\PSoC4/BLE_eventHandler.c **** #endif /* CYBLE_LNS_CLIENT */
 678:.\Generated_Source\PSoC4/BLE_eventHandler.c **** 
 679:.\Generated_Source\PSoC4/BLE_eventHandler.c **** #ifdef CYBLE_PASS_CLIENT
 680:.\Generated_Source\PSoC4/BLE_eventHandler.c ****     if((cyBle_eventHandlerFlag & CYBLE_CALLBACK) != 0u)
 681:.\Generated_Source\PSoC4/BLE_eventHandler.c ****     {
 682:.\Generated_Source\PSoC4/BLE_eventHandler.c ****         CyBle_PasscWriteResponseEventHandler(eventParam);
 683:.\Generated_Source\PSoC4/BLE_eventHandler.c ****     }
 684:.\Generated_Source\PSoC4/BLE_eventHandler.c **** #endif /* CYBLE_PASS_CLIENT */
 685:.\Generated_Source\PSoC4/BLE_eventHandler.c **** 
 686:.\Generated_Source\PSoC4/BLE_eventHandler.c **** #ifdef CYBLE_RSCS_CLIENT
 687:.\Generated_Source\PSoC4/BLE_eventHandler.c ****     if((cyBle_eventHandlerFlag & CYBLE_CALLBACK) != 0u)
 688:.\Generated_Source\PSoC4/BLE_eventHandler.c ****     {
 689:.\Generated_Source\PSoC4/BLE_eventHandler.c ****         CyBle_RscscWriteResponseEventHandler(eventParam);
 690:.\Generated_Source\PSoC4/BLE_eventHandler.c ****     }
 691:.\Generated_Source\PSoC4/BLE_eventHandler.c **** #endif /* CYBLE_RSCS_CLIENT */
 692:.\Generated_Source\PSoC4/BLE_eventHandler.c **** 
 693:.\Generated_Source\PSoC4/BLE_eventHandler.c **** #ifdef CYBLE_SCPS_CLIENT
ARM GAS  C:\Users\behrenb2\AppData\Local\Temp\ccNHrcVd.s 			page 17


 694:.\Generated_Source\PSoC4/BLE_eventHandler.c ****     if((cyBle_eventHandlerFlag & CYBLE_CALLBACK) != 0u)
 695:.\Generated_Source\PSoC4/BLE_eventHandler.c ****     {
 696:.\Generated_Source\PSoC4/BLE_eventHandler.c ****         CyBle_ScpscWriteResponseEventHandler(eventParam);
 697:.\Generated_Source\PSoC4/BLE_eventHandler.c ****     }
 698:.\Generated_Source\PSoC4/BLE_eventHandler.c **** #endif /* CYBLE_SCPS_CLIENT */
 699:.\Generated_Source\PSoC4/BLE_eventHandler.c **** 
 700:.\Generated_Source\PSoC4/BLE_eventHandler.c **** #ifdef CYBLE_TPS_CLIENT
 701:.\Generated_Source\PSoC4/BLE_eventHandler.c ****     if((cyBle_eventHandlerFlag & CYBLE_CALLBACK) != 0u)
 702:.\Generated_Source\PSoC4/BLE_eventHandler.c ****     {
 703:.\Generated_Source\PSoC4/BLE_eventHandler.c ****         CyBle_TpscWriteResponseEventHandler(eventParam);
 704:.\Generated_Source\PSoC4/BLE_eventHandler.c ****     }
 705:.\Generated_Source\PSoC4/BLE_eventHandler.c **** #endif /* CYBLE_TPS_CLIENT */
 706:.\Generated_Source\PSoC4/BLE_eventHandler.c **** 
 707:.\Generated_Source\PSoC4/BLE_eventHandler.c **** #ifdef CYBLE_UDS_CLIENT
 708:.\Generated_Source\PSoC4/BLE_eventHandler.c ****     if((cyBle_eventHandlerFlag & CYBLE_CALLBACK) != 0u)
 709:.\Generated_Source\PSoC4/BLE_eventHandler.c ****     {
 710:.\Generated_Source\PSoC4/BLE_eventHandler.c ****         CyBle_UdscWriteResponseEventHandler(eventParam);
 711:.\Generated_Source\PSoC4/BLE_eventHandler.c ****     }
 712:.\Generated_Source\PSoC4/BLE_eventHandler.c **** #endif /* CYBLE_UDS_CLIENT */
 713:.\Generated_Source\PSoC4/BLE_eventHandler.c **** #ifdef CYBLE_WPTS_CLIENT
 714:.\Generated_Source\PSoC4/BLE_eventHandler.c ****     if((cyBle_eventHandlerFlag & CYBLE_CALLBACK) != 0u)
 715:.\Generated_Source\PSoC4/BLE_eventHandler.c ****     {
 716:.\Generated_Source\PSoC4/BLE_eventHandler.c ****         CyBle_WptscWriteResponseEventHandler(eventParam);
 717:.\Generated_Source\PSoC4/BLE_eventHandler.c ****     }
 718:.\Generated_Source\PSoC4/BLE_eventHandler.c **** #endif /* CYBLE_WPTS_CLIENT */
 719:.\Generated_Source\PSoC4/BLE_eventHandler.c **** #ifdef CYBLE_WSS_CLIENT
 720:.\Generated_Source\PSoC4/BLE_eventHandler.c ****     if((cyBle_eventHandlerFlag & CYBLE_CALLBACK) != 0u)
 721:.\Generated_Source\PSoC4/BLE_eventHandler.c ****     {
 722:.\Generated_Source\PSoC4/BLE_eventHandler.c ****         CyBle_WsscWriteResponseEventHandler(eventParam);
 723:.\Generated_Source\PSoC4/BLE_eventHandler.c ****     }
 724:.\Generated_Source\PSoC4/BLE_eventHandler.c **** #endif /* CYBLE_WSS_CLIENT */
 725:.\Generated_Source\PSoC4/BLE_eventHandler.c **** }
 726:.\Generated_Source\PSoC4/BLE_eventHandler.c **** 
 727:.\Generated_Source\PSoC4/BLE_eventHandler.c **** 
 728:.\Generated_Source\PSoC4/BLE_eventHandler.c **** /******************************************************************************    
 729:.\Generated_Source\PSoC4/BLE_eventHandler.c **** * Function Name: CyBle_NotificationEventHandler
 730:.\Generated_Source\PSoC4/BLE_eventHandler.c **** ***************************************************************************//**
 731:.\Generated_Source\PSoC4/BLE_eventHandler.c **** * 
 732:.\Generated_Source\PSoC4/BLE_eventHandler.c **** *  Handles the Notification event from BLE stack.
 733:.\Generated_Source\PSoC4/BLE_eventHandler.c **** * 
 734:.\Generated_Source\PSoC4/BLE_eventHandler.c **** *  \param eventParam: event parameter
 735:.\Generated_Source\PSoC4/BLE_eventHandler.c **** * 
 736:.\Generated_Source\PSoC4/BLE_eventHandler.c **** * \return
 737:.\Generated_Source\PSoC4/BLE_eventHandler.c **** *  None
 738:.\Generated_Source\PSoC4/BLE_eventHandler.c **** * 
 739:.\Generated_Source\PSoC4/BLE_eventHandler.c **** ******************************************************************************/
 740:.\Generated_Source\PSoC4/BLE_eventHandler.c **** static void CyBle_NotificationEventHandler(CYBLE_GATTC_HANDLE_VALUE_NTF_PARAM_T *eventParam)
 741:.\Generated_Source\PSoC4/BLE_eventHandler.c **** {
 742:.\Generated_Source\PSoC4/BLE_eventHandler.c **** #ifdef CYBLE_ANCS_CLIENT
 743:.\Generated_Source\PSoC4/BLE_eventHandler.c ****     CyBle_AncscNotificationEventHandler(eventParam);
 744:.\Generated_Source\PSoC4/BLE_eventHandler.c **** #endif /* CYBLE_ANCS_CLIENT */
 745:.\Generated_Source\PSoC4/BLE_eventHandler.c **** #ifdef CYBLE_ANS_CLIENT
 746:.\Generated_Source\PSoC4/BLE_eventHandler.c ****     if((cyBle_eventHandlerFlag & CYBLE_CALLBACK) != 0u)
 747:.\Generated_Source\PSoC4/BLE_eventHandler.c ****     {
 748:.\Generated_Source\PSoC4/BLE_eventHandler.c ****         CyBle_AnscNotificationEventHandler(eventParam);
 749:.\Generated_Source\PSoC4/BLE_eventHandler.c ****     }
 750:.\Generated_Source\PSoC4/BLE_eventHandler.c **** #endif /* CYBLE_ANS_CLIENT */
ARM GAS  C:\Users\behrenb2\AppData\Local\Temp\ccNHrcVd.s 			page 18


 751:.\Generated_Source\PSoC4/BLE_eventHandler.c **** #ifdef CYBLE_BAS_CLIENT
 752:.\Generated_Source\PSoC4/BLE_eventHandler.c ****     if((cyBle_eventHandlerFlag & CYBLE_CALLBACK) != 0u)
 753:.\Generated_Source\PSoC4/BLE_eventHandler.c ****     {
 754:.\Generated_Source\PSoC4/BLE_eventHandler.c ****         CyBle_BascNotificationEventHandler(eventParam);
 755:.\Generated_Source\PSoC4/BLE_eventHandler.c ****     }
 756:.\Generated_Source\PSoC4/BLE_eventHandler.c **** #endif /* CYBLE_BAS_CLIENT */
 757:.\Generated_Source\PSoC4/BLE_eventHandler.c **** #ifdef CYBLE_BLS_CLIENT
 758:.\Generated_Source\PSoC4/BLE_eventHandler.c ****     if((cyBle_eventHandlerFlag & CYBLE_CALLBACK) != 0u)
 759:.\Generated_Source\PSoC4/BLE_eventHandler.c ****     {
 760:.\Generated_Source\PSoC4/BLE_eventHandler.c ****         CyBle_BlscNotificationEventHandler(eventParam);
 761:.\Generated_Source\PSoC4/BLE_eventHandler.c ****     }
 762:.\Generated_Source\PSoC4/BLE_eventHandler.c **** #endif /* CYBLE_BLS_CLIENT */
 763:.\Generated_Source\PSoC4/BLE_eventHandler.c **** #ifdef CYBLE_CGMS_CLIENT
 764:.\Generated_Source\PSoC4/BLE_eventHandler.c ****     if((cyBle_eventHandlerFlag & CYBLE_CALLBACK) != 0u)
 765:.\Generated_Source\PSoC4/BLE_eventHandler.c ****     {
 766:.\Generated_Source\PSoC4/BLE_eventHandler.c ****         CyBle_CgmscNotificationEventHandler(eventParam);
 767:.\Generated_Source\PSoC4/BLE_eventHandler.c ****     }
 768:.\Generated_Source\PSoC4/BLE_eventHandler.c **** #endif /* CYBLE_CGMS_CLIENT */
 769:.\Generated_Source\PSoC4/BLE_eventHandler.c **** #ifdef CYBLE_CPS_CLIENT
 770:.\Generated_Source\PSoC4/BLE_eventHandler.c ****     if((cyBle_eventHandlerFlag & CYBLE_CALLBACK) != 0u)
 771:.\Generated_Source\PSoC4/BLE_eventHandler.c ****     {
 772:.\Generated_Source\PSoC4/BLE_eventHandler.c ****         CyBle_CpscNotificationEventHandler(eventParam);
 773:.\Generated_Source\PSoC4/BLE_eventHandler.c ****     }
 774:.\Generated_Source\PSoC4/BLE_eventHandler.c **** #endif /* CYBLE_CPS_CLIENT */
 775:.\Generated_Source\PSoC4/BLE_eventHandler.c **** #ifdef CYBLE_CSCS_CLIENT
 776:.\Generated_Source\PSoC4/BLE_eventHandler.c ****     if((cyBle_eventHandlerFlag & CYBLE_CALLBACK) != 0u)
 777:.\Generated_Source\PSoC4/BLE_eventHandler.c ****     {
 778:.\Generated_Source\PSoC4/BLE_eventHandler.c ****         CyBle_CscscNotificationEventHandler(eventParam);
 779:.\Generated_Source\PSoC4/BLE_eventHandler.c ****     }
 780:.\Generated_Source\PSoC4/BLE_eventHandler.c **** #endif /* CYBLE_CSCS_CLIENT */
 781:.\Generated_Source\PSoC4/BLE_eventHandler.c **** #ifdef CYBLE_CTS_CLIENT
 782:.\Generated_Source\PSoC4/BLE_eventHandler.c ****     if((cyBle_eventHandlerFlag & CYBLE_CALLBACK) != 0u)
 783:.\Generated_Source\PSoC4/BLE_eventHandler.c ****     {
 784:.\Generated_Source\PSoC4/BLE_eventHandler.c ****         CyBle_CtscNotificationEventHandler(eventParam);
 785:.\Generated_Source\PSoC4/BLE_eventHandler.c ****     }
 786:.\Generated_Source\PSoC4/BLE_eventHandler.c **** #endif /* CYBLE_CTS_CLIENT */
 787:.\Generated_Source\PSoC4/BLE_eventHandler.c **** #ifdef CYBLE_ESS_CLIENT
 788:.\Generated_Source\PSoC4/BLE_eventHandler.c ****     if((cyBle_eventHandlerFlag & CYBLE_CALLBACK) != 0u)
 789:.\Generated_Source\PSoC4/BLE_eventHandler.c ****     {
 790:.\Generated_Source\PSoC4/BLE_eventHandler.c ****         CyBle_EsscNotificationEventHandler(eventParam);
 791:.\Generated_Source\PSoC4/BLE_eventHandler.c ****     }
 792:.\Generated_Source\PSoC4/BLE_eventHandler.c **** #endif /* CYBLE_ESS_CLIENT */
 793:.\Generated_Source\PSoC4/BLE_eventHandler.c **** #ifdef CYBLE_GLS_CLIENT
 794:.\Generated_Source\PSoC4/BLE_eventHandler.c ****     if((cyBle_eventHandlerFlag & CYBLE_CALLBACK) != 0u)
 795:.\Generated_Source\PSoC4/BLE_eventHandler.c ****     {
 796:.\Generated_Source\PSoC4/BLE_eventHandler.c ****         CyBle_GlscNotificationEventHandler(eventParam);
 797:.\Generated_Source\PSoC4/BLE_eventHandler.c ****     }
 798:.\Generated_Source\PSoC4/BLE_eventHandler.c **** #endif /* CYBLE_GLS_CLIENT */
 799:.\Generated_Source\PSoC4/BLE_eventHandler.c **** #ifdef CYBLE_HIDS_CLIENT
 800:.\Generated_Source\PSoC4/BLE_eventHandler.c ****     if((cyBle_eventHandlerFlag & CYBLE_CALLBACK) != 0u)
 801:.\Generated_Source\PSoC4/BLE_eventHandler.c ****     {
 802:.\Generated_Source\PSoC4/BLE_eventHandler.c ****         CyBle_HidscNotificationEventHandler(eventParam);
 803:.\Generated_Source\PSoC4/BLE_eventHandler.c ****     }
 804:.\Generated_Source\PSoC4/BLE_eventHandler.c **** #endif /* CYBLE_HIDS_CLIENT */
 805:.\Generated_Source\PSoC4/BLE_eventHandler.c **** #ifdef CYBLE_HPS_CLIENT
 806:.\Generated_Source\PSoC4/BLE_eventHandler.c ****     if((cyBle_eventHandlerFlag & CYBLE_CALLBACK) != 0u)
 807:.\Generated_Source\PSoC4/BLE_eventHandler.c ****     {
ARM GAS  C:\Users\behrenb2\AppData\Local\Temp\ccNHrcVd.s 			page 19


 808:.\Generated_Source\PSoC4/BLE_eventHandler.c ****         CyBle_HpscNotificationEventHandler(eventParam);
 809:.\Generated_Source\PSoC4/BLE_eventHandler.c ****     }
 810:.\Generated_Source\PSoC4/BLE_eventHandler.c **** #endif /* CYBLE_HPS_CLIENT */
 811:.\Generated_Source\PSoC4/BLE_eventHandler.c **** #ifdef CYBLE_HRS_CLIENT
 812:.\Generated_Source\PSoC4/BLE_eventHandler.c ****     if((cyBle_eventHandlerFlag & CYBLE_CALLBACK) != 0u)
 813:.\Generated_Source\PSoC4/BLE_eventHandler.c ****     {
 814:.\Generated_Source\PSoC4/BLE_eventHandler.c ****         CyBle_HrscNotificationEventHandler(eventParam);
 815:.\Generated_Source\PSoC4/BLE_eventHandler.c ****     }
 816:.\Generated_Source\PSoC4/BLE_eventHandler.c **** #endif /* CYBLE_HRS_CLIENT */
 817:.\Generated_Source\PSoC4/BLE_eventHandler.c **** #ifdef CYBLE_HTS_CLIENT
 818:.\Generated_Source\PSoC4/BLE_eventHandler.c ****     if((cyBle_eventHandlerFlag & CYBLE_CALLBACK) != 0u)
 819:.\Generated_Source\PSoC4/BLE_eventHandler.c ****     {
 820:.\Generated_Source\PSoC4/BLE_eventHandler.c ****         CyBle_HtscNotificationEventHandler(eventParam);
 821:.\Generated_Source\PSoC4/BLE_eventHandler.c ****     }
 822:.\Generated_Source\PSoC4/BLE_eventHandler.c **** #endif /* CYBLE_HTS_CLIENT */
 823:.\Generated_Source\PSoC4/BLE_eventHandler.c **** #ifdef CYBLE_LNS_CLIENT
 824:.\Generated_Source\PSoC4/BLE_eventHandler.c ****     if((cyBle_eventHandlerFlag & CYBLE_CALLBACK) != 0u)
 825:.\Generated_Source\PSoC4/BLE_eventHandler.c ****     {
 826:.\Generated_Source\PSoC4/BLE_eventHandler.c ****         CyBle_LnscNotificationEventHandler(eventParam);
 827:.\Generated_Source\PSoC4/BLE_eventHandler.c ****     }
 828:.\Generated_Source\PSoC4/BLE_eventHandler.c **** #endif /* CYBLE_LNS_CLIENT */
 829:.\Generated_Source\PSoC4/BLE_eventHandler.c **** #ifdef CYBLE_PASS_CLIENT
 830:.\Generated_Source\PSoC4/BLE_eventHandler.c ****     if((cyBle_eventHandlerFlag & CYBLE_CALLBACK) != 0u)
 831:.\Generated_Source\PSoC4/BLE_eventHandler.c ****     {
 832:.\Generated_Source\PSoC4/BLE_eventHandler.c ****         CyBle_PasscNotificationEventHandler(eventParam);
 833:.\Generated_Source\PSoC4/BLE_eventHandler.c ****     }
 834:.\Generated_Source\PSoC4/BLE_eventHandler.c **** #endif /* CYBLE_PASS_CLIENT */
 835:.\Generated_Source\PSoC4/BLE_eventHandler.c **** #ifdef CYBLE_RSCS_CLIENT
 836:.\Generated_Source\PSoC4/BLE_eventHandler.c ****     if((cyBle_eventHandlerFlag & CYBLE_CALLBACK) != 0u)
 837:.\Generated_Source\PSoC4/BLE_eventHandler.c ****     {
 838:.\Generated_Source\PSoC4/BLE_eventHandler.c ****         CyBle_RscscNotificationEventHandler(eventParam);
 839:.\Generated_Source\PSoC4/BLE_eventHandler.c ****     }
 840:.\Generated_Source\PSoC4/BLE_eventHandler.c **** #endif /* CYBLE_RSCS_CLIENT */
 841:.\Generated_Source\PSoC4/BLE_eventHandler.c **** #ifdef CYBLE_SCPS_CLIENT
 842:.\Generated_Source\PSoC4/BLE_eventHandler.c ****     if((cyBle_eventHandlerFlag & CYBLE_CALLBACK) != 0u)
 843:.\Generated_Source\PSoC4/BLE_eventHandler.c ****     {
 844:.\Generated_Source\PSoC4/BLE_eventHandler.c ****         CyBle_ScpscNotificationEventHandler(eventParam);
 845:.\Generated_Source\PSoC4/BLE_eventHandler.c ****     }
 846:.\Generated_Source\PSoC4/BLE_eventHandler.c **** #endif /* CYBLE_SCPS_CLIENT */
 847:.\Generated_Source\PSoC4/BLE_eventHandler.c **** #ifdef CYBLE_TPS_CLIENT
 848:.\Generated_Source\PSoC4/BLE_eventHandler.c ****     if((cyBle_eventHandlerFlag & CYBLE_CALLBACK) != 0u)
 849:.\Generated_Source\PSoC4/BLE_eventHandler.c ****     {
 850:.\Generated_Source\PSoC4/BLE_eventHandler.c ****         CyBle_TpscNotificationEventHandler(eventParam);
 851:.\Generated_Source\PSoC4/BLE_eventHandler.c ****     }
 852:.\Generated_Source\PSoC4/BLE_eventHandler.c **** #endif /* CYBLE_TPS_CLIENT */
 853:.\Generated_Source\PSoC4/BLE_eventHandler.c **** #ifdef CYBLE_UDS_CLIENT
 854:.\Generated_Source\PSoC4/BLE_eventHandler.c ****     if((cyBle_eventHandlerFlag & CYBLE_CALLBACK) != 0u)
 855:.\Generated_Source\PSoC4/BLE_eventHandler.c ****     {
 856:.\Generated_Source\PSoC4/BLE_eventHandler.c ****         CyBle_UdscNotificationEventHandler(eventParam);
 857:.\Generated_Source\PSoC4/BLE_eventHandler.c ****     }
 858:.\Generated_Source\PSoC4/BLE_eventHandler.c **** #endif /* CYBLE_UDS_CLIENT */
 859:.\Generated_Source\PSoC4/BLE_eventHandler.c **** #ifdef CYBLE_WPTS_CLIENT
 860:.\Generated_Source\PSoC4/BLE_eventHandler.c ****     if((cyBle_eventHandlerFlag & CYBLE_CALLBACK) != 0u)
 861:.\Generated_Source\PSoC4/BLE_eventHandler.c ****     {
 862:.\Generated_Source\PSoC4/BLE_eventHandler.c ****         CyBle_WptscNotificationEventHandler(eventParam);
 863:.\Generated_Source\PSoC4/BLE_eventHandler.c ****     }
 864:.\Generated_Source\PSoC4/BLE_eventHandler.c **** #endif /* CYBLE_WPTS_CLIENT */
ARM GAS  C:\Users\behrenb2\AppData\Local\Temp\ccNHrcVd.s 			page 20


 865:.\Generated_Source\PSoC4/BLE_eventHandler.c **** }
 866:.\Generated_Source\PSoC4/BLE_eventHandler.c **** 
 867:.\Generated_Source\PSoC4/BLE_eventHandler.c **** 
 868:.\Generated_Source\PSoC4/BLE_eventHandler.c **** /******************************************************************************    
 869:.\Generated_Source\PSoC4/BLE_eventHandler.c **** * Function Name: CyBle_IndicationEventHandler
 870:.\Generated_Source\PSoC4/BLE_eventHandler.c **** ***************************************************************************//**
 871:.\Generated_Source\PSoC4/BLE_eventHandler.c **** * 
 872:.\Generated_Source\PSoC4/BLE_eventHandler.c **** *  Handles the Indication event from BLE stack.
 873:.\Generated_Source\PSoC4/BLE_eventHandler.c **** * 
 874:.\Generated_Source\PSoC4/BLE_eventHandler.c **** *  \param eventParam: event parameter
 875:.\Generated_Source\PSoC4/BLE_eventHandler.c **** * 
 876:.\Generated_Source\PSoC4/BLE_eventHandler.c **** * \return
 877:.\Generated_Source\PSoC4/BLE_eventHandler.c **** *  None
 878:.\Generated_Source\PSoC4/BLE_eventHandler.c **** * 
 879:.\Generated_Source\PSoC4/BLE_eventHandler.c **** ******************************************************************************/
 880:.\Generated_Source\PSoC4/BLE_eventHandler.c **** static void CyBle_IndicationEventHandler(CYBLE_GATTC_HANDLE_VALUE_IND_PARAM_T *eventParam)
 881:.\Generated_Source\PSoC4/BLE_eventHandler.c **** {
 882:.\Generated_Source\PSoC4/BLE_eventHandler.c **** #ifdef CYBLE_BCS_CLIENT
 883:.\Generated_Source\PSoC4/BLE_eventHandler.c ****     if((cyBle_eventHandlerFlag & CYBLE_CALLBACK) != 0u)
 884:.\Generated_Source\PSoC4/BLE_eventHandler.c ****     {
 885:.\Generated_Source\PSoC4/BLE_eventHandler.c ****         CyBle_BcscIndicationEventHandler(eventParam);
 886:.\Generated_Source\PSoC4/BLE_eventHandler.c ****     }
 887:.\Generated_Source\PSoC4/BLE_eventHandler.c **** #endif /* CYBLE_BCS_CLIENT */
 888:.\Generated_Source\PSoC4/BLE_eventHandler.c **** #ifdef CYBLE_BLS_CLIENT
 889:.\Generated_Source\PSoC4/BLE_eventHandler.c ****     if((cyBle_eventHandlerFlag & CYBLE_CALLBACK) != 0u)
 890:.\Generated_Source\PSoC4/BLE_eventHandler.c ****     {
 891:.\Generated_Source\PSoC4/BLE_eventHandler.c ****         CyBle_BlscIndicationEventHandler(eventParam);
 892:.\Generated_Source\PSoC4/BLE_eventHandler.c ****     }
 893:.\Generated_Source\PSoC4/BLE_eventHandler.c **** #endif /* CYBLE_BLS_CLIENT */
 894:.\Generated_Source\PSoC4/BLE_eventHandler.c **** #ifdef CYBLE_CGMS_CLIENT
 895:.\Generated_Source\PSoC4/BLE_eventHandler.c ****     if((cyBle_eventHandlerFlag & CYBLE_CALLBACK) != 0u)
 896:.\Generated_Source\PSoC4/BLE_eventHandler.c ****     {
 897:.\Generated_Source\PSoC4/BLE_eventHandler.c ****         CyBle_CgmscIndicationEventHandler(eventParam);
 898:.\Generated_Source\PSoC4/BLE_eventHandler.c ****     }
 899:.\Generated_Source\PSoC4/BLE_eventHandler.c **** #endif /* CYBLE_CGMS_CLIENT */
 900:.\Generated_Source\PSoC4/BLE_eventHandler.c **** #ifdef CYBLE_CPS_CLIENT
 901:.\Generated_Source\PSoC4/BLE_eventHandler.c ****     if((cyBle_eventHandlerFlag & CYBLE_CALLBACK) != 0u)
 902:.\Generated_Source\PSoC4/BLE_eventHandler.c ****     {
 903:.\Generated_Source\PSoC4/BLE_eventHandler.c ****         CyBle_CpscIndicationEventHandler(eventParam);
 904:.\Generated_Source\PSoC4/BLE_eventHandler.c ****     }
 905:.\Generated_Source\PSoC4/BLE_eventHandler.c **** #endif /* CYBLE_CPS_CLIENT */
 906:.\Generated_Source\PSoC4/BLE_eventHandler.c **** #ifdef CYBLE_CSCS_CLIENT
 907:.\Generated_Source\PSoC4/BLE_eventHandler.c ****     if((cyBle_eventHandlerFlag & CYBLE_CALLBACK) != 0u)
 908:.\Generated_Source\PSoC4/BLE_eventHandler.c ****     {
 909:.\Generated_Source\PSoC4/BLE_eventHandler.c ****         CyBle_CscscIndicationEventHandler(eventParam);
 910:.\Generated_Source\PSoC4/BLE_eventHandler.c ****     }
 911:.\Generated_Source\PSoC4/BLE_eventHandler.c **** #endif /* CYBLE_CSCS_CLIENT */
 912:.\Generated_Source\PSoC4/BLE_eventHandler.c **** #ifdef CYBLE_ESS_CLIENT
 913:.\Generated_Source\PSoC4/BLE_eventHandler.c ****     if((cyBle_eventHandlerFlag & CYBLE_CALLBACK) != 0u)
 914:.\Generated_Source\PSoC4/BLE_eventHandler.c ****     {
 915:.\Generated_Source\PSoC4/BLE_eventHandler.c ****         CyBle_EsscIndicationEventHandler(eventParam);
 916:.\Generated_Source\PSoC4/BLE_eventHandler.c ****     }
 917:.\Generated_Source\PSoC4/BLE_eventHandler.c **** #endif /* CYBLE_ESS_CLIENT */
 918:.\Generated_Source\PSoC4/BLE_eventHandler.c **** #ifdef CYBLE_GLS_CLIENT
 919:.\Generated_Source\PSoC4/BLE_eventHandler.c ****     if((cyBle_eventHandlerFlag & CYBLE_CALLBACK) != 0u)
 920:.\Generated_Source\PSoC4/BLE_eventHandler.c ****     {
 921:.\Generated_Source\PSoC4/BLE_eventHandler.c ****         CyBle_GlscIndicationEventHandler(eventParam);
ARM GAS  C:\Users\behrenb2\AppData\Local\Temp\ccNHrcVd.s 			page 21


 922:.\Generated_Source\PSoC4/BLE_eventHandler.c ****     }
 923:.\Generated_Source\PSoC4/BLE_eventHandler.c **** #endif /* CYBLE_GLS_CLIENT */
 924:.\Generated_Source\PSoC4/BLE_eventHandler.c **** #ifdef CYBLE_HTS_CLIENT
 925:.\Generated_Source\PSoC4/BLE_eventHandler.c ****     if((cyBle_eventHandlerFlag & CYBLE_CALLBACK) != 0u)
 926:.\Generated_Source\PSoC4/BLE_eventHandler.c ****     {
 927:.\Generated_Source\PSoC4/BLE_eventHandler.c ****         CyBle_HtscIndicationEventHandler(eventParam);
 928:.\Generated_Source\PSoC4/BLE_eventHandler.c ****     }
 929:.\Generated_Source\PSoC4/BLE_eventHandler.c **** #endif /* CYBLE_HTS_CLIENT */
 930:.\Generated_Source\PSoC4/BLE_eventHandler.c **** #ifdef CYBLE_LNS_CLIENT
 931:.\Generated_Source\PSoC4/BLE_eventHandler.c ****     if((cyBle_eventHandlerFlag & CYBLE_CALLBACK) != 0u)
 932:.\Generated_Source\PSoC4/BLE_eventHandler.c ****     {
 933:.\Generated_Source\PSoC4/BLE_eventHandler.c ****         CyBle_LnscIndicationEventHandler(eventParam);
 934:.\Generated_Source\PSoC4/BLE_eventHandler.c ****     }
 935:.\Generated_Source\PSoC4/BLE_eventHandler.c **** #endif /* CYBLE_LNS_CLIENT */
 936:.\Generated_Source\PSoC4/BLE_eventHandler.c **** #ifdef CYBLE_RSCS_CLIENT
 937:.\Generated_Source\PSoC4/BLE_eventHandler.c ****     if((cyBle_eventHandlerFlag & CYBLE_CALLBACK) != 0u)
 938:.\Generated_Source\PSoC4/BLE_eventHandler.c ****     {
 939:.\Generated_Source\PSoC4/BLE_eventHandler.c ****         CyBle_RscscIndicationEventHandler(eventParam);
 940:.\Generated_Source\PSoC4/BLE_eventHandler.c ****     }
 941:.\Generated_Source\PSoC4/BLE_eventHandler.c **** #endif /* CYBLE_RSCS_CLIENT */
 942:.\Generated_Source\PSoC4/BLE_eventHandler.c **** #ifdef CYBLE_UDS_CLIENT
 943:.\Generated_Source\PSoC4/BLE_eventHandler.c ****     if((cyBle_eventHandlerFlag & CYBLE_CALLBACK) != 0u)
 944:.\Generated_Source\PSoC4/BLE_eventHandler.c ****     {
 945:.\Generated_Source\PSoC4/BLE_eventHandler.c ****         CyBle_UdscIndicationEventHandler(eventParam);
 946:.\Generated_Source\PSoC4/BLE_eventHandler.c ****     }
 947:.\Generated_Source\PSoC4/BLE_eventHandler.c **** #endif /* CYBLE_UDS_CLIENT */
 948:.\Generated_Source\PSoC4/BLE_eventHandler.c **** #ifdef CYBLE_WPTS_CLIENT
 949:.\Generated_Source\PSoC4/BLE_eventHandler.c ****     if((cyBle_eventHandlerFlag & CYBLE_CALLBACK) != 0u)
 950:.\Generated_Source\PSoC4/BLE_eventHandler.c ****     {
 951:.\Generated_Source\PSoC4/BLE_eventHandler.c ****         CyBle_WptscIndicationEventHandler(eventParam);
 952:.\Generated_Source\PSoC4/BLE_eventHandler.c ****     }
 953:.\Generated_Source\PSoC4/BLE_eventHandler.c **** #endif /* CYBLE_WPTS_CLIENT */
 954:.\Generated_Source\PSoC4/BLE_eventHandler.c **** #ifdef CYBLE_WSS_CLIENT
 955:.\Generated_Source\PSoC4/BLE_eventHandler.c ****     if((cyBle_eventHandlerFlag & CYBLE_CALLBACK) != 0u)
 956:.\Generated_Source\PSoC4/BLE_eventHandler.c ****     {
 957:.\Generated_Source\PSoC4/BLE_eventHandler.c ****         CyBle_WsscIndicationEventHandler(eventParam);
 958:.\Generated_Source\PSoC4/BLE_eventHandler.c ****     }
 959:.\Generated_Source\PSoC4/BLE_eventHandler.c **** #endif /* CYBLE_WSS_CLIENT */
 960:.\Generated_Source\PSoC4/BLE_eventHandler.c **** }
 961:.\Generated_Source\PSoC4/BLE_eventHandler.c **** 
 962:.\Generated_Source\PSoC4/BLE_eventHandler.c **** 
 963:.\Generated_Source\PSoC4/BLE_eventHandler.c **** 
 964:.\Generated_Source\PSoC4/BLE_eventHandler.c **** /******************************************************************************    
 965:.\Generated_Source\PSoC4/BLE_eventHandler.c **** * Function Name: CyBle_ReadResponseEventHandler
 966:.\Generated_Source\PSoC4/BLE_eventHandler.c **** ***************************************************************************//**
 967:.\Generated_Source\PSoC4/BLE_eventHandler.c **** * 
 968:.\Generated_Source\PSoC4/BLE_eventHandler.c **** *  Handles the Read Response event from BLE stack.
 969:.\Generated_Source\PSoC4/BLE_eventHandler.c **** * 
 970:.\Generated_Source\PSoC4/BLE_eventHandler.c **** *  \param eventParam: event parameter
 971:.\Generated_Source\PSoC4/BLE_eventHandler.c **** * 
 972:.\Generated_Source\PSoC4/BLE_eventHandler.c **** * \return
 973:.\Generated_Source\PSoC4/BLE_eventHandler.c **** *  None
 974:.\Generated_Source\PSoC4/BLE_eventHandler.c **** * 
 975:.\Generated_Source\PSoC4/BLE_eventHandler.c **** ******************************************************************************/
 976:.\Generated_Source\PSoC4/BLE_eventHandler.c **** static void CyBle_ReadResponseEventHandler(CYBLE_GATTC_READ_RSP_PARAM_T *eventParam)
 977:.\Generated_Source\PSoC4/BLE_eventHandler.c **** {
 978:.\Generated_Source\PSoC4/BLE_eventHandler.c **** #ifdef CYBLE_CUSTOM_CLIENT
ARM GAS  C:\Users\behrenb2\AppData\Local\Temp\ccNHrcVd.s 			page 22


 979:.\Generated_Source\PSoC4/BLE_eventHandler.c ****     /* Read response with 128-bit included service uuid */
 980:.\Generated_Source\PSoC4/BLE_eventHandler.c ****     if((CYBLE_CLIENT_STATE_INCL_DISCOVERING == CyBle_GetClientState()) &&
 981:.\Generated_Source\PSoC4/BLE_eventHandler.c ****        (cyBle_discInclInfo.inclDefHandle != 0u))
 982:.\Generated_Source\PSoC4/BLE_eventHandler.c ****     {
 983:.\Generated_Source\PSoC4/BLE_eventHandler.c ****         CYBLE_DISC_SRVC128_INFO_T discServInfo;
 984:.\Generated_Source\PSoC4/BLE_eventHandler.c **** 
 985:.\Generated_Source\PSoC4/BLE_eventHandler.c ****         /* Store service range */
 986:.\Generated_Source\PSoC4/BLE_eventHandler.c ****         discServInfo.range = cyBle_discInclInfo.inclHandleRange;
 987:.\Generated_Source\PSoC4/BLE_eventHandler.c ****         (void)memcpy((void *) discServInfo.uuid.uuid128.value, (void *)eventParam->value.val, event
 988:.\Generated_Source\PSoC4/BLE_eventHandler.c ****         CyBle_CustomcDiscoverServiceEventHandler(&discServInfo);
 989:.\Generated_Source\PSoC4/BLE_eventHandler.c ****         
 990:.\Generated_Source\PSoC4/BLE_eventHandler.c ****         /* Re-initiate CyBle_GattcFindIncludedServices function, setting the start
 991:.\Generated_Source\PSoC4/BLE_eventHandler.c ****            handle to the attribute handle which is placed next to the one used in
 992:.\Generated_Source\PSoC4/BLE_eventHandler.c ****            the above step.
 993:.\Generated_Source\PSoC4/BLE_eventHandler.c ****         */
 994:.\Generated_Source\PSoC4/BLE_eventHandler.c ****         discServInfo.range.startHandle = cyBle_discInclInfo.inclDefHandle + 1u;
 995:.\Generated_Source\PSoC4/BLE_eventHandler.c ****         discServInfo.range.endHandle = cyBle_serverInfo[cyBle_disCount].range.endHandle;
 996:.\Generated_Source\PSoC4/BLE_eventHandler.c ****         if(discServInfo.range.startHandle <= discServInfo.range.endHandle)
 997:.\Generated_Source\PSoC4/BLE_eventHandler.c ****         {
 998:.\Generated_Source\PSoC4/BLE_eventHandler.c ****             if(CYBLE_ERROR_OK != CyBle_GattcFindIncludedServices(cyBle_connHandle, &discServInfo.ra
 999:.\Generated_Source\PSoC4/BLE_eventHandler.c ****             {
1000:.\Generated_Source\PSoC4/BLE_eventHandler.c ****                 CyBle_ApplCallback(CYBLE_EVT_GATTC_INCL_DISCOVERY_FAILED, NULL);
1001:.\Generated_Source\PSoC4/BLE_eventHandler.c ****                 cyBle_eventHandlerFlag &= (uint8)~CYBLE_AUTO_DISCOVERY;
1002:.\Generated_Source\PSoC4/BLE_eventHandler.c ****             }
1003:.\Generated_Source\PSoC4/BLE_eventHandler.c ****         }
1004:.\Generated_Source\PSoC4/BLE_eventHandler.c ****         else /* Continue discovery of the following service */
1005:.\Generated_Source\PSoC4/BLE_eventHandler.c ****         {
1006:.\Generated_Source\PSoC4/BLE_eventHandler.c ****             CyBle_NextInclDiscovery(CYBLE_DISCOVERY_CONTINUE);
1007:.\Generated_Source\PSoC4/BLE_eventHandler.c ****         }
1008:.\Generated_Source\PSoC4/BLE_eventHandler.c ****         
1009:.\Generated_Source\PSoC4/BLE_eventHandler.c ****         cyBle_eventHandlerFlag &= (uint8)~CYBLE_CALLBACK;
1010:.\Generated_Source\PSoC4/BLE_eventHandler.c ****     #ifdef CYBLE_CUSTOM_CLIENT
1011:.\Generated_Source\PSoC4/BLE_eventHandler.c ****         cyBle_discInclInfo.inclDefHandle = 0u;
1012:.\Generated_Source\PSoC4/BLE_eventHandler.c ****     #endif /* CYBLE_CUSTOM_CLIENT */
1013:.\Generated_Source\PSoC4/BLE_eventHandler.c ****     }
1014:.\Generated_Source\PSoC4/BLE_eventHandler.c **** #endif /* CYBLE_CUSTOM_CLIENT */
1015:.\Generated_Source\PSoC4/BLE_eventHandler.c **** #ifdef CYBLE_ANCS_CLIENT
1016:.\Generated_Source\PSoC4/BLE_eventHandler.c ****     if((cyBle_eventHandlerFlag & CYBLE_CALLBACK) != 0u)
1017:.\Generated_Source\PSoC4/BLE_eventHandler.c ****     {
1018:.\Generated_Source\PSoC4/BLE_eventHandler.c ****         CyBle_AncscReadResponseEventHandler(eventParam);
1019:.\Generated_Source\PSoC4/BLE_eventHandler.c ****     }
1020:.\Generated_Source\PSoC4/BLE_eventHandler.c **** #endif /* CYBLE_ANCS_CLIENT */
1021:.\Generated_Source\PSoC4/BLE_eventHandler.c **** #ifdef CYBLE_ANS_CLIENT
1022:.\Generated_Source\PSoC4/BLE_eventHandler.c ****     if((cyBle_eventHandlerFlag & CYBLE_CALLBACK) != 0u)
1023:.\Generated_Source\PSoC4/BLE_eventHandler.c ****     {
1024:.\Generated_Source\PSoC4/BLE_eventHandler.c ****         CyBle_AnscReadResponseEventHandler(eventParam);
1025:.\Generated_Source\PSoC4/BLE_eventHandler.c ****     }
1026:.\Generated_Source\PSoC4/BLE_eventHandler.c **** #endif /* CYBLE_ANS_CLIENT */
1027:.\Generated_Source\PSoC4/BLE_eventHandler.c **** #ifdef CYBLE_BAS_CLIENT
1028:.\Generated_Source\PSoC4/BLE_eventHandler.c ****     if((cyBle_eventHandlerFlag & CYBLE_CALLBACK) != 0u)
1029:.\Generated_Source\PSoC4/BLE_eventHandler.c ****     {
1030:.\Generated_Source\PSoC4/BLE_eventHandler.c ****         CyBle_BascReadResponseEventHandler(eventParam);
1031:.\Generated_Source\PSoC4/BLE_eventHandler.c ****     }
1032:.\Generated_Source\PSoC4/BLE_eventHandler.c **** #endif /* CYBLE_BAS_CLIENT */
1033:.\Generated_Source\PSoC4/BLE_eventHandler.c **** #ifdef CYBLE_BLS_CLIENT
1034:.\Generated_Source\PSoC4/BLE_eventHandler.c ****     if((cyBle_eventHandlerFlag & CYBLE_CALLBACK) != 0u)
1035:.\Generated_Source\PSoC4/BLE_eventHandler.c ****     {
ARM GAS  C:\Users\behrenb2\AppData\Local\Temp\ccNHrcVd.s 			page 23


1036:.\Generated_Source\PSoC4/BLE_eventHandler.c ****         CyBle_BlscReadResponseEventHandler(eventParam);
1037:.\Generated_Source\PSoC4/BLE_eventHandler.c ****     }
1038:.\Generated_Source\PSoC4/BLE_eventHandler.c **** #endif /* CYBLE_BLS_CLIENT */
1039:.\Generated_Source\PSoC4/BLE_eventHandler.c **** #ifdef CYBLE_BCS_CLIENT
1040:.\Generated_Source\PSoC4/BLE_eventHandler.c ****     if((cyBle_eventHandlerFlag & CYBLE_CALLBACK) != 0u)
1041:.\Generated_Source\PSoC4/BLE_eventHandler.c ****     {
1042:.\Generated_Source\PSoC4/BLE_eventHandler.c ****         CyBle_BcscReadResponseEventHandler(eventParam);
1043:.\Generated_Source\PSoC4/BLE_eventHandler.c ****     }
1044:.\Generated_Source\PSoC4/BLE_eventHandler.c **** #endif /* CYBLE_BCS_CLIENT */
1045:.\Generated_Source\PSoC4/BLE_eventHandler.c **** #ifdef CYBLE_BMS_CLIENT
1046:.\Generated_Source\PSoC4/BLE_eventHandler.c ****     if((cyBle_eventHandlerFlag & CYBLE_CALLBACK) != 0u)
1047:.\Generated_Source\PSoC4/BLE_eventHandler.c ****     {
1048:.\Generated_Source\PSoC4/BLE_eventHandler.c ****         CyBle_BmscReadResponseEventHandler(eventParam);
1049:.\Generated_Source\PSoC4/BLE_eventHandler.c ****     }
1050:.\Generated_Source\PSoC4/BLE_eventHandler.c **** #endif /* CYBLE_BMS_CLIENT */
1051:.\Generated_Source\PSoC4/BLE_eventHandler.c **** #ifdef CYBLE_CGMS_CLIENT
1052:.\Generated_Source\PSoC4/BLE_eventHandler.c ****     if((cyBle_eventHandlerFlag & CYBLE_CALLBACK) != 0u)
1053:.\Generated_Source\PSoC4/BLE_eventHandler.c ****     {
1054:.\Generated_Source\PSoC4/BLE_eventHandler.c ****         CyBle_CgmscReadResponseEventHandler(eventParam);
1055:.\Generated_Source\PSoC4/BLE_eventHandler.c ****     }
1056:.\Generated_Source\PSoC4/BLE_eventHandler.c **** #endif /* CYBLE_CGMS_CLIENT */
1057:.\Generated_Source\PSoC4/BLE_eventHandler.c **** #ifdef CYBLE_CPS_CLIENT
1058:.\Generated_Source\PSoC4/BLE_eventHandler.c ****     if((cyBle_eventHandlerFlag & CYBLE_CALLBACK) != 0u)
1059:.\Generated_Source\PSoC4/BLE_eventHandler.c ****     {
1060:.\Generated_Source\PSoC4/BLE_eventHandler.c ****         CyBle_CpscReadResponseEventHandler(eventParam);
1061:.\Generated_Source\PSoC4/BLE_eventHandler.c ****     }
1062:.\Generated_Source\PSoC4/BLE_eventHandler.c **** #endif /* CYBLE_CPS_CLIENT */
1063:.\Generated_Source\PSoC4/BLE_eventHandler.c **** #ifdef CYBLE_CSCS_CLIENT
1064:.\Generated_Source\PSoC4/BLE_eventHandler.c ****     if((cyBle_eventHandlerFlag & CYBLE_CALLBACK) != 0u)
1065:.\Generated_Source\PSoC4/BLE_eventHandler.c ****     {
1066:.\Generated_Source\PSoC4/BLE_eventHandler.c ****         CyBle_CscscReadResponseEventHandler(eventParam);
1067:.\Generated_Source\PSoC4/BLE_eventHandler.c ****     }
1068:.\Generated_Source\PSoC4/BLE_eventHandler.c **** #endif /* CYBLE_CSCS_CLIENT */
1069:.\Generated_Source\PSoC4/BLE_eventHandler.c **** #ifdef CYBLE_CTS_CLIENT
1070:.\Generated_Source\PSoC4/BLE_eventHandler.c ****     if((cyBle_eventHandlerFlag & CYBLE_CALLBACK) != 0u)
1071:.\Generated_Source\PSoC4/BLE_eventHandler.c ****     {
1072:.\Generated_Source\PSoC4/BLE_eventHandler.c ****         CyBle_CtscReadResponseEventHandler(eventParam);
1073:.\Generated_Source\PSoC4/BLE_eventHandler.c ****     }
1074:.\Generated_Source\PSoC4/BLE_eventHandler.c **** #endif /* CYBLE_BAS_CLIENT */
1075:.\Generated_Source\PSoC4/BLE_eventHandler.c **** #ifdef CYBLE_DIS_CLIENT
1076:.\Generated_Source\PSoC4/BLE_eventHandler.c ****     if((cyBle_eventHandlerFlag & CYBLE_CALLBACK) != 0u)
1077:.\Generated_Source\PSoC4/BLE_eventHandler.c ****     {
1078:.\Generated_Source\PSoC4/BLE_eventHandler.c ****         CyBle_DiscReadResponseEventHandler(eventParam);
1079:.\Generated_Source\PSoC4/BLE_eventHandler.c ****     }
1080:.\Generated_Source\PSoC4/BLE_eventHandler.c **** #endif /* CYBLE_DIS_CLIENT */
1081:.\Generated_Source\PSoC4/BLE_eventHandler.c **** #ifdef CYBLE_ESS_CLIENT
1082:.\Generated_Source\PSoC4/BLE_eventHandler.c ****     if((cyBle_eventHandlerFlag & CYBLE_CALLBACK) != 0u)
1083:.\Generated_Source\PSoC4/BLE_eventHandler.c ****     {
1084:.\Generated_Source\PSoC4/BLE_eventHandler.c ****         CyBle_EsscReadResponseEventHandler(eventParam);
1085:.\Generated_Source\PSoC4/BLE_eventHandler.c ****     }
1086:.\Generated_Source\PSoC4/BLE_eventHandler.c **** #endif /* CYBLE_ESS_CLIENT */
1087:.\Generated_Source\PSoC4/BLE_eventHandler.c **** #ifdef CYBLE_GLS_CLIENT
1088:.\Generated_Source\PSoC4/BLE_eventHandler.c ****     if((cyBle_eventHandlerFlag & CYBLE_CALLBACK) != 0u)
1089:.\Generated_Source\PSoC4/BLE_eventHandler.c ****     {
1090:.\Generated_Source\PSoC4/BLE_eventHandler.c ****         CyBle_GlscReadResponseEventHandler(eventParam);
1091:.\Generated_Source\PSoC4/BLE_eventHandler.c ****     }
1092:.\Generated_Source\PSoC4/BLE_eventHandler.c **** #endif /* CYBLE_GLS_CLIENT */
ARM GAS  C:\Users\behrenb2\AppData\Local\Temp\ccNHrcVd.s 			page 24


1093:.\Generated_Source\PSoC4/BLE_eventHandler.c **** #ifdef CYBLE_HIDS_CLIENT
1094:.\Generated_Source\PSoC4/BLE_eventHandler.c ****     if((cyBle_eventHandlerFlag & CYBLE_CALLBACK) != 0u)
1095:.\Generated_Source\PSoC4/BLE_eventHandler.c ****     {
1096:.\Generated_Source\PSoC4/BLE_eventHandler.c ****         CyBle_HidscReadResponseEventHandler(eventParam);
1097:.\Generated_Source\PSoC4/BLE_eventHandler.c ****     }
1098:.\Generated_Source\PSoC4/BLE_eventHandler.c **** #endif /* CYBLE_HIDS_CLIENT */
1099:.\Generated_Source\PSoC4/BLE_eventHandler.c **** #ifdef CYBLE_HPS_CLIENT
1100:.\Generated_Source\PSoC4/BLE_eventHandler.c ****     if((cyBle_eventHandlerFlag & CYBLE_CALLBACK) != 0u)
1101:.\Generated_Source\PSoC4/BLE_eventHandler.c ****     {
1102:.\Generated_Source\PSoC4/BLE_eventHandler.c ****         CyBle_HpscReadResponseEventHandler(eventParam);
1103:.\Generated_Source\PSoC4/BLE_eventHandler.c ****     }
1104:.\Generated_Source\PSoC4/BLE_eventHandler.c **** #endif /* CYBLE_HPS_CLIENT */
1105:.\Generated_Source\PSoC4/BLE_eventHandler.c **** #ifdef CYBLE_HRS_CLIENT
1106:.\Generated_Source\PSoC4/BLE_eventHandler.c ****     if((cyBle_eventHandlerFlag & CYBLE_CALLBACK) != 0u)
1107:.\Generated_Source\PSoC4/BLE_eventHandler.c ****     {
1108:.\Generated_Source\PSoC4/BLE_eventHandler.c ****         CyBle_HrscReadResponseEventHandler(eventParam);
1109:.\Generated_Source\PSoC4/BLE_eventHandler.c ****     }
1110:.\Generated_Source\PSoC4/BLE_eventHandler.c **** #endif /* CYBLE_HRS_CLIENT */
1111:.\Generated_Source\PSoC4/BLE_eventHandler.c **** #ifdef CYBLE_HTS_CLIENT
1112:.\Generated_Source\PSoC4/BLE_eventHandler.c ****     if((cyBle_eventHandlerFlag & CYBLE_CALLBACK) != 0u)
1113:.\Generated_Source\PSoC4/BLE_eventHandler.c ****     {
1114:.\Generated_Source\PSoC4/BLE_eventHandler.c ****         CyBle_HtscReadResponseEventHandler(eventParam);
1115:.\Generated_Source\PSoC4/BLE_eventHandler.c ****     }
1116:.\Generated_Source\PSoC4/BLE_eventHandler.c **** #endif /* CYBLE_HTS_CLIENT */
1117:.\Generated_Source\PSoC4/BLE_eventHandler.c **** #ifdef CYBLE_IPS_CLIENT
1118:.\Generated_Source\PSoC4/BLE_eventHandler.c ****     if((cyBle_eventHandlerFlag & CYBLE_CALLBACK) != 0u)
1119:.\Generated_Source\PSoC4/BLE_eventHandler.c ****     {
1120:.\Generated_Source\PSoC4/BLE_eventHandler.c ****         CyBle_IpscReadResponseEventHandler(eventParam);
1121:.\Generated_Source\PSoC4/BLE_eventHandler.c ****     }
1122:.\Generated_Source\PSoC4/BLE_eventHandler.c **** #endif /* CYBLE_IPS_CLIENT */
1123:.\Generated_Source\PSoC4/BLE_eventHandler.c **** #ifdef CYBLE_LLS_CLIENT
1124:.\Generated_Source\PSoC4/BLE_eventHandler.c ****     if((cyBle_eventHandlerFlag & CYBLE_CALLBACK) != 0u)
1125:.\Generated_Source\PSoC4/BLE_eventHandler.c ****     {
1126:.\Generated_Source\PSoC4/BLE_eventHandler.c ****         CyBle_LlscReadResponseEventHandler(eventParam);
1127:.\Generated_Source\PSoC4/BLE_eventHandler.c ****     }
1128:.\Generated_Source\PSoC4/BLE_eventHandler.c **** #endif /* CYBLE_LLS_CLIENT */
1129:.\Generated_Source\PSoC4/BLE_eventHandler.c **** #ifdef CYBLE_LNS_CLIENT
1130:.\Generated_Source\PSoC4/BLE_eventHandler.c ****     if((cyBle_eventHandlerFlag & CYBLE_CALLBACK) != 0u)
1131:.\Generated_Source\PSoC4/BLE_eventHandler.c ****     {
1132:.\Generated_Source\PSoC4/BLE_eventHandler.c ****         CyBle_LnscReadResponseEventHandler(eventParam);
1133:.\Generated_Source\PSoC4/BLE_eventHandler.c ****     }
1134:.\Generated_Source\PSoC4/BLE_eventHandler.c **** #endif /* CYBLE_LNS_CLIENT */
1135:.\Generated_Source\PSoC4/BLE_eventHandler.c **** #ifdef CYBLE_NDCS_CLIENT
1136:.\Generated_Source\PSoC4/BLE_eventHandler.c ****     if((cyBle_eventHandlerFlag & CYBLE_CALLBACK) != 0u)
1137:.\Generated_Source\PSoC4/BLE_eventHandler.c ****     {
1138:.\Generated_Source\PSoC4/BLE_eventHandler.c ****         CyBle_NdcscReadResponseEventHandler(eventParam);
1139:.\Generated_Source\PSoC4/BLE_eventHandler.c ****     }
1140:.\Generated_Source\PSoC4/BLE_eventHandler.c **** #endif /* CYBLE_NDCS_CLIENT */
1141:.\Generated_Source\PSoC4/BLE_eventHandler.c **** #ifdef CYBLE_PASS_CLIENT
1142:.\Generated_Source\PSoC4/BLE_eventHandler.c ****     if((cyBle_eventHandlerFlag & CYBLE_CALLBACK) != 0u)
1143:.\Generated_Source\PSoC4/BLE_eventHandler.c ****     {
1144:.\Generated_Source\PSoC4/BLE_eventHandler.c ****         CyBle_PasscReadResponseEventHandler(eventParam);
1145:.\Generated_Source\PSoC4/BLE_eventHandler.c ****     }
1146:.\Generated_Source\PSoC4/BLE_eventHandler.c **** #endif /* CYBLE_PASS_CLIENT */
1147:.\Generated_Source\PSoC4/BLE_eventHandler.c **** #ifdef CYBLE_RSCS_CLIENT
1148:.\Generated_Source\PSoC4/BLE_eventHandler.c ****     if((cyBle_eventHandlerFlag & CYBLE_CALLBACK) != 0u)
1149:.\Generated_Source\PSoC4/BLE_eventHandler.c ****     {
ARM GAS  C:\Users\behrenb2\AppData\Local\Temp\ccNHrcVd.s 			page 25


1150:.\Generated_Source\PSoC4/BLE_eventHandler.c ****         CyBle_RscscReadResponseEventHandler(eventParam);
1151:.\Generated_Source\PSoC4/BLE_eventHandler.c ****     }
1152:.\Generated_Source\PSoC4/BLE_eventHandler.c **** #endif /* CYBLE_RSCS_CLIENT */
1153:.\Generated_Source\PSoC4/BLE_eventHandler.c **** #ifdef CYBLE_RTUS_CLIENT
1154:.\Generated_Source\PSoC4/BLE_eventHandler.c ****     if((cyBle_eventHandlerFlag & CYBLE_CALLBACK) != 0u)
1155:.\Generated_Source\PSoC4/BLE_eventHandler.c ****     {
1156:.\Generated_Source\PSoC4/BLE_eventHandler.c ****         CyBle_RtuscReadResponseEventHandler(eventParam);
1157:.\Generated_Source\PSoC4/BLE_eventHandler.c ****     }
1158:.\Generated_Source\PSoC4/BLE_eventHandler.c **** #endif /* CYBLE_RTUS_CLIENT */
1159:.\Generated_Source\PSoC4/BLE_eventHandler.c **** #ifdef CYBLE_SCPS_CLIENT
1160:.\Generated_Source\PSoC4/BLE_eventHandler.c ****     if((cyBle_eventHandlerFlag & CYBLE_CALLBACK) != 0u)
1161:.\Generated_Source\PSoC4/BLE_eventHandler.c ****     {
1162:.\Generated_Source\PSoC4/BLE_eventHandler.c ****         CyBle_ScpscReadResponseEventHandler(eventParam);
1163:.\Generated_Source\PSoC4/BLE_eventHandler.c ****     }
1164:.\Generated_Source\PSoC4/BLE_eventHandler.c **** #endif /* CYBLE_SCPS_CLIENT */
1165:.\Generated_Source\PSoC4/BLE_eventHandler.c **** #ifdef CYBLE_TPS_CLIENT
1166:.\Generated_Source\PSoC4/BLE_eventHandler.c ****     if((cyBle_eventHandlerFlag & CYBLE_CALLBACK) != 0u)
1167:.\Generated_Source\PSoC4/BLE_eventHandler.c ****     {
1168:.\Generated_Source\PSoC4/BLE_eventHandler.c ****         CyBle_TpscReadResponseEventHandler(eventParam);
1169:.\Generated_Source\PSoC4/BLE_eventHandler.c ****     }
1170:.\Generated_Source\PSoC4/BLE_eventHandler.c **** #endif /* CYBLE_TPS_CLIENT */
1171:.\Generated_Source\PSoC4/BLE_eventHandler.c **** #ifdef CYBLE_UDS_CLIENT
1172:.\Generated_Source\PSoC4/BLE_eventHandler.c ****     if((cyBle_eventHandlerFlag & CYBLE_CALLBACK) != 0u)
1173:.\Generated_Source\PSoC4/BLE_eventHandler.c ****     {
1174:.\Generated_Source\PSoC4/BLE_eventHandler.c ****         CyBle_UdscReadResponseEventHandler(eventParam);
1175:.\Generated_Source\PSoC4/BLE_eventHandler.c ****     }
1176:.\Generated_Source\PSoC4/BLE_eventHandler.c **** #endif /* CYBLE_UDS_CLIENT */
1177:.\Generated_Source\PSoC4/BLE_eventHandler.c **** #ifdef CYBLE_WPTS_CLIENT
1178:.\Generated_Source\PSoC4/BLE_eventHandler.c ****     if((cyBle_eventHandlerFlag & CYBLE_CALLBACK) != 0u)
1179:.\Generated_Source\PSoC4/BLE_eventHandler.c ****     {
1180:.\Generated_Source\PSoC4/BLE_eventHandler.c ****         CyBle_WptscReadResponseEventHandler(eventParam);
1181:.\Generated_Source\PSoC4/BLE_eventHandler.c ****     }
1182:.\Generated_Source\PSoC4/BLE_eventHandler.c **** #endif /* CYBLE_WPTS_CLIENT */
1183:.\Generated_Source\PSoC4/BLE_eventHandler.c **** #ifdef CYBLE_WSS_CLIENT
1184:.\Generated_Source\PSoC4/BLE_eventHandler.c ****     if((cyBle_eventHandlerFlag & CYBLE_CALLBACK) != 0u)
1185:.\Generated_Source\PSoC4/BLE_eventHandler.c ****     {
1186:.\Generated_Source\PSoC4/BLE_eventHandler.c ****         CyBle_WsscReadResponseEventHandler(eventParam);
1187:.\Generated_Source\PSoC4/BLE_eventHandler.c ****     }
1188:.\Generated_Source\PSoC4/BLE_eventHandler.c **** #endif /* CYBLE_WSS_CLIENT */
1189:.\Generated_Source\PSoC4/BLE_eventHandler.c **** }
1190:.\Generated_Source\PSoC4/BLE_eventHandler.c **** 
1191:.\Generated_Source\PSoC4/BLE_eventHandler.c **** /******************************************************************************    
1192:.\Generated_Source\PSoC4/BLE_eventHandler.c **** * Function Name: CyBle_ReadMultipleResponseEventHandler
1193:.\Generated_Source\PSoC4/BLE_eventHandler.c **** ***************************************************************************//**
1194:.\Generated_Source\PSoC4/BLE_eventHandler.c **** * 
1195:.\Generated_Source\PSoC4/BLE_eventHandler.c **** *  Handles the Read Multiple Response event from BLE stack.
1196:.\Generated_Source\PSoC4/BLE_eventHandler.c **** * 
1197:.\Generated_Source\PSoC4/BLE_eventHandler.c **** *  \param eventParam: event parameter
1198:.\Generated_Source\PSoC4/BLE_eventHandler.c **** * 
1199:.\Generated_Source\PSoC4/BLE_eventHandler.c **** * \return
1200:.\Generated_Source\PSoC4/BLE_eventHandler.c **** *  None
1201:.\Generated_Source\PSoC4/BLE_eventHandler.c **** * 
1202:.\Generated_Source\PSoC4/BLE_eventHandler.c **** ******************************************************************************/
1203:.\Generated_Source\PSoC4/BLE_eventHandler.c **** static void CyBle_ReadMultipleResponseEventHandler(CYBLE_GATTC_READ_RSP_PARAM_T *eventParam)
1204:.\Generated_Source\PSoC4/BLE_eventHandler.c **** {
1205:.\Generated_Source\PSoC4/BLE_eventHandler.c **** #ifdef CYBLE_CUSTOM_CLIENT
1206:.\Generated_Source\PSoC4/BLE_eventHandler.c ****     /* Read response with 128-bit included service uuid */
ARM GAS  C:\Users\behrenb2\AppData\Local\Temp\ccNHrcVd.s 			page 26


1207:.\Generated_Source\PSoC4/BLE_eventHandler.c ****     if((CYBLE_CLIENT_STATE_INCL_DISCOVERING == CyBle_GetClientState()) &&
1208:.\Generated_Source\PSoC4/BLE_eventHandler.c ****        (cyBle_discInclInfo.inclDefHandle != 0u))
1209:.\Generated_Source\PSoC4/BLE_eventHandler.c ****     {
1210:.\Generated_Source\PSoC4/BLE_eventHandler.c ****         CYBLE_DISC_SRVC128_INFO_T discServInfo;
1211:.\Generated_Source\PSoC4/BLE_eventHandler.c **** 
1212:.\Generated_Source\PSoC4/BLE_eventHandler.c ****         /* Store service range */
1213:.\Generated_Source\PSoC4/BLE_eventHandler.c ****         discServInfo.range = cyBle_discInclInfo.inclHandleRange;
1214:.\Generated_Source\PSoC4/BLE_eventHandler.c ****         (void)memcpy((void *) discServInfo.uuid.uuid128.value, (void *)eventParam->value.val, event
1215:.\Generated_Source\PSoC4/BLE_eventHandler.c ****         CyBle_CustomcDiscoverServiceEventHandler(&discServInfo);
1216:.\Generated_Source\PSoC4/BLE_eventHandler.c ****         
1217:.\Generated_Source\PSoC4/BLE_eventHandler.c ****         /* Re-initiate CyBle_GattcFindIncludedServices function, setting the start
1218:.\Generated_Source\PSoC4/BLE_eventHandler.c ****            handle to the attribute handle which is placed next to the one used in
1219:.\Generated_Source\PSoC4/BLE_eventHandler.c ****            the above step.
1220:.\Generated_Source\PSoC4/BLE_eventHandler.c ****         */
1221:.\Generated_Source\PSoC4/BLE_eventHandler.c ****         discServInfo.range.startHandle = cyBle_discInclInfo.inclDefHandle + 1;
1222:.\Generated_Source\PSoC4/BLE_eventHandler.c ****         discServInfo.range.endHandle = cyBle_serverInfo[cyBle_disCount].range.endHandle;
1223:.\Generated_Source\PSoC4/BLE_eventHandler.c ****         if(discServInfo.range.startHandle <= discServInfo.range.endHandle)
1224:.\Generated_Source\PSoC4/BLE_eventHandler.c ****         {
1225:.\Generated_Source\PSoC4/BLE_eventHandler.c ****             if(CYBLE_ERROR_OK != CyBle_GattcFindIncludedServices(cyBle_connHandle, &discServInfo.ra
1226:.\Generated_Source\PSoC4/BLE_eventHandler.c ****             {
1227:.\Generated_Source\PSoC4/BLE_eventHandler.c ****                 CyBle_ApplCallback(CYBLE_EVT_GATTC_INCL_DISCOVERY_FAILED, NULL);
1228:.\Generated_Source\PSoC4/BLE_eventHandler.c ****                 cyBle_eventHandlerFlag &= (uint8)~CYBLE_AUTO_DISCOVERY;
1229:.\Generated_Source\PSoC4/BLE_eventHandler.c ****             }
1230:.\Generated_Source\PSoC4/BLE_eventHandler.c ****         }
1231:.\Generated_Source\PSoC4/BLE_eventHandler.c ****         else /* Continue discovery of the following service */
1232:.\Generated_Source\PSoC4/BLE_eventHandler.c ****         {
1233:.\Generated_Source\PSoC4/BLE_eventHandler.c ****             CyBle_NextInclDiscovery(CYBLE_DISCOVERY_CONTINUE);
1234:.\Generated_Source\PSoC4/BLE_eventHandler.c ****         }
1235:.\Generated_Source\PSoC4/BLE_eventHandler.c ****         
1236:.\Generated_Source\PSoC4/BLE_eventHandler.c ****         cyBle_eventHandlerFlag &= (uint8)~CYBLE_CALLBACK;
1237:.\Generated_Source\PSoC4/BLE_eventHandler.c ****     #ifdef CYBLE_CUSTOM_CLIENT
1238:.\Generated_Source\PSoC4/BLE_eventHandler.c ****         cyBle_discInclInfo.inclDefHandle = 0u;
1239:.\Generated_Source\PSoC4/BLE_eventHandler.c ****     #endif /* CYBLE_CUSTOM_CLIENT */
1240:.\Generated_Source\PSoC4/BLE_eventHandler.c ****     }
1241:.\Generated_Source\PSoC4/BLE_eventHandler.c **** #endif /* CYBLE_CUSTOM_CLIENT */
1242:.\Generated_Source\PSoC4/BLE_eventHandler.c **** #ifdef CYBLE_IPS_CLIENT
1243:.\Generated_Source\PSoC4/BLE_eventHandler.c ****     if((cyBle_eventHandlerFlag & CYBLE_CALLBACK) != 0u)
1244:.\Generated_Source\PSoC4/BLE_eventHandler.c ****     {
1245:.\Generated_Source\PSoC4/BLE_eventHandler.c ****         CyBle_IpscReadMultipleResponseEventHandler(eventParam);
1246:.\Generated_Source\PSoC4/BLE_eventHandler.c ****     }
1247:.\Generated_Source\PSoC4/BLE_eventHandler.c **** #endif /* CYBLE_IPS_CLIENT */
1248:.\Generated_Source\PSoC4/BLE_eventHandler.c ****     /* MISRA 16.7 violavion workarround */
1249:.\Generated_Source\PSoC4/BLE_eventHandler.c ****     eventParam = eventParam;
1250:.\Generated_Source\PSoC4/BLE_eventHandler.c **** }
1251:.\Generated_Source\PSoC4/BLE_eventHandler.c **** #endif /* CYBLE_GATT_ROLE_CLIENT */
1252:.\Generated_Source\PSoC4/BLE_eventHandler.c **** 
1253:.\Generated_Source\PSoC4/BLE_eventHandler.c **** 
1254:.\Generated_Source\PSoC4/BLE_eventHandler.c **** /****************************************************************************** 
1255:.\Generated_Source\PSoC4/BLE_eventHandler.c **** * Function Name: CyBle_DisconnectEventHandler
1256:.\Generated_Source\PSoC4/BLE_eventHandler.c **** ***************************************************************************//**
1257:.\Generated_Source\PSoC4/BLE_eventHandler.c **** * 
1258:.\Generated_Source\PSoC4/BLE_eventHandler.c **** *  Handles the GATT Disconnection event from the BLE stack.
1259:.\Generated_Source\PSoC4/BLE_eventHandler.c **** * 
1260:.\Generated_Source\PSoC4/BLE_eventHandler.c **** * \return
1261:.\Generated_Source\PSoC4/BLE_eventHandler.c **** *  None
1262:.\Generated_Source\PSoC4/BLE_eventHandler.c **** * 
1263:.\Generated_Source\PSoC4/BLE_eventHandler.c **** ******************************************************************************/
ARM GAS  C:\Users\behrenb2\AppData\Local\Temp\ccNHrcVd.s 			page 27


1264:.\Generated_Source\PSoC4/BLE_eventHandler.c **** static void CyBle_GattDisconnectEventHandler(void)
1265:.\Generated_Source\PSoC4/BLE_eventHandler.c **** {
 220              		.loc 1 1265 0
 221              		.cfi_startproc
 222 0000 80B5     		push	{r7, lr}
 223              		.cfi_def_cfa_offset 8
 224              		.cfi_offset 7, -8
 225              		.cfi_offset 14, -4
 226 0002 00AF     		add	r7, sp, #0
 227              		.cfi_def_cfa_register 7
1266:.\Generated_Source\PSoC4/BLE_eventHandler.c ****     cyBle_connHandle.attId = 0u;
 228              		.loc 1 1266 0
 229 0004 034B     		ldr	r3, .L13
 230 0006 0022     		mov	r2, #0
 231 0008 5A70     		strb	r2, [r3, #1]
1267:.\Generated_Source\PSoC4/BLE_eventHandler.c ****     cyBle_connHandle.bdHandle = 0u;
 232              		.loc 1 1267 0
 233 000a 024B     		ldr	r3, .L13
 234 000c 0022     		mov	r2, #0
 235 000e 1A70     		strb	r2, [r3]
1268:.\Generated_Source\PSoC4/BLE_eventHandler.c ****     
1269:.\Generated_Source\PSoC4/BLE_eventHandler.c ****     #if (CYBLE_GATT_ROLE_CLIENT)
1270:.\Generated_Source\PSoC4/BLE_eventHandler.c ****         if(CYBLE_CLIENT_STATE_DISCOVERED == CyBle_GetClientState())
1271:.\Generated_Source\PSoC4/BLE_eventHandler.c ****         {
1272:.\Generated_Source\PSoC4/BLE_eventHandler.c ****             CyBle_SetClientState(CYBLE_CLIENT_STATE_DISCONNECTED_DISCOVERED);
1273:.\Generated_Source\PSoC4/BLE_eventHandler.c ****         }
1274:.\Generated_Source\PSoC4/BLE_eventHandler.c ****         else
1275:.\Generated_Source\PSoC4/BLE_eventHandler.c ****         {
1276:.\Generated_Source\PSoC4/BLE_eventHandler.c ****             CyBle_SetClientState(CYBLE_CLIENT_STATE_DISCONNECTED);
1277:.\Generated_Source\PSoC4/BLE_eventHandler.c ****         }
1278:.\Generated_Source\PSoC4/BLE_eventHandler.c ****     #endif /* CYBLE_GATT_ROLE_CLIENT */
1279:.\Generated_Source\PSoC4/BLE_eventHandler.c ****         
1280:.\Generated_Source\PSoC4/BLE_eventHandler.c ****     #ifdef CYBLE_CPS_SERVER
1281:.\Generated_Source\PSoC4/BLE_eventHandler.c ****         #if CYBLE_GAP_ROLE_BROADCASTER
1282:.\Generated_Source\PSoC4/BLE_eventHandler.c ****             CyBle_CpssDisconnectEventHandler();
1283:.\Generated_Source\PSoC4/BLE_eventHandler.c ****         #endif /* CYBLE_GAP_ROLE_BROADCASTER */
1284:.\Generated_Source\PSoC4/BLE_eventHandler.c ****     #endif /* CYBLE_CPS_SERVER */
1285:.\Generated_Source\PSoC4/BLE_eventHandler.c **** 
1286:.\Generated_Source\PSoC4/BLE_eventHandler.c ****     #ifdef CYBLE_CPS_CLIENT
1287:.\Generated_Source\PSoC4/BLE_eventHandler.c ****         CyBle_CpscDisconnectEventHandler();
1288:.\Generated_Source\PSoC4/BLE_eventHandler.c ****     #endif /* CYBLE_CPS_CLIENT */
1289:.\Generated_Source\PSoC4/BLE_eventHandler.c **** 
1290:.\Generated_Source\PSoC4/BLE_eventHandler.c ****     #ifdef CYBLE_IAS_SERVER
1291:.\Generated_Source\PSoC4/BLE_eventHandler.c ****         CyBle_IassDisconnectEventHandler();
1292:.\Generated_Source\PSoC4/BLE_eventHandler.c ****     #endif /* CYBLE_IAS_SERVER */
1293:.\Generated_Source\PSoC4/BLE_eventHandler.c ****     
1294:.\Generated_Source\PSoC4/BLE_eventHandler.c ****     #ifdef CYBLE_GLS_SERVER
1295:.\Generated_Source\PSoC4/BLE_eventHandler.c ****         CyBle_GlsInit();
1296:.\Generated_Source\PSoC4/BLE_eventHandler.c ****     #endif /* CYBLE_GLS_SERVER */
1297:.\Generated_Source\PSoC4/BLE_eventHandler.c ****     
1298:.\Generated_Source\PSoC4/BLE_eventHandler.c ****     #ifdef CYBLE_LNS_SERVER
1299:.\Generated_Source\PSoC4/BLE_eventHandler.c ****         CyBle_LnsInit();
1300:.\Generated_Source\PSoC4/BLE_eventHandler.c ****     #endif /* CYBLE_LNS_SERVER */
1301:.\Generated_Source\PSoC4/BLE_eventHandler.c ****     
1302:.\Generated_Source\PSoC4/BLE_eventHandler.c ****     #ifdef CYBLE_UDS_SERVER
1303:.\Generated_Source\PSoC4/BLE_eventHandler.c ****         CyBle_UdsInit();
1304:.\Generated_Source\PSoC4/BLE_eventHandler.c ****     #endif /* CYBLE_UDS_SERVER */
ARM GAS  C:\Users\behrenb2\AppData\Local\Temp\ccNHrcVd.s 			page 28


1305:.\Generated_Source\PSoC4/BLE_eventHandler.c **** }
 236              		.loc 1 1305 0
 237 0010 BD46     		mov	sp, r7
 238              		@ sp needed
 239 0012 80BD     		pop	{r7, pc}
 240              	.L14:
 241              		.align	2
 242              	.L13:
 243 0014 00000000 		.word	cyBle_connHandle
 244              		.cfi_endproc
 245              	.LFE4:
 246              		.size	CyBle_GattDisconnectEventHandler, .-CyBle_GattDisconnectEventHandler
 247              		.section	.text.CyBle_TimeOutEventHandler,"ax",%progbits
 248              		.align	2
 249              		.code	16
 250              		.thumb_func
 251              		.type	CyBle_TimeOutEventHandler, %function
 252              	CyBle_TimeOutEventHandler:
 253              	.LFB5:
1306:.\Generated_Source\PSoC4/BLE_eventHandler.c **** 
1307:.\Generated_Source\PSoC4/BLE_eventHandler.c **** 
1308:.\Generated_Source\PSoC4/BLE_eventHandler.c **** /****************************************************************************** 
1309:.\Generated_Source\PSoC4/BLE_eventHandler.c **** * Function Name: CyBle_TimeOutEventHandler
1310:.\Generated_Source\PSoC4/BLE_eventHandler.c **** ***************************************************************************//**
1311:.\Generated_Source\PSoC4/BLE_eventHandler.c **** * 
1312:.\Generated_Source\PSoC4/BLE_eventHandler.c **** *  Handles the CYBLE_EVT_TIMEOUT event from the BLE stack.
1313:.\Generated_Source\PSoC4/BLE_eventHandler.c **** * 
1314:.\Generated_Source\PSoC4/BLE_eventHandler.c **** *  \param eventParam: The pointer to a structure of type CYBLE_TO_REASON_CODE_T.
1315:.\Generated_Source\PSoC4/BLE_eventHandler.c **** * 
1316:.\Generated_Source\PSoC4/BLE_eventHandler.c **** * \return
1317:.\Generated_Source\PSoC4/BLE_eventHandler.c **** *  None
1318:.\Generated_Source\PSoC4/BLE_eventHandler.c **** * 
1319:.\Generated_Source\PSoC4/BLE_eventHandler.c **** ******************************************************************************/
1320:.\Generated_Source\PSoC4/BLE_eventHandler.c **** static void CyBle_TimeOutEventHandler(const CYBLE_TO_REASON_CODE_T *eventParam)
1321:.\Generated_Source\PSoC4/BLE_eventHandler.c **** {
 254              		.loc 1 1321 0
 255              		.cfi_startproc
 256 0000 80B5     		push	{r7, lr}
 257              		.cfi_def_cfa_offset 8
 258              		.cfi_offset 7, -8
 259              		.cfi_offset 14, -4
 260 0002 82B0     		sub	sp, sp, #8
 261              		.cfi_def_cfa_offset 16
 262 0004 00AF     		add	r7, sp, #0
 263              		.cfi_def_cfa_register 7
 264 0006 7860     		str	r0, [r7, #4]
1322:.\Generated_Source\PSoC4/BLE_eventHandler.c ****     if(*eventParam == CYBLE_GATT_RSP_TO)
1323:.\Generated_Source\PSoC4/BLE_eventHandler.c ****     {
1324:.\Generated_Source\PSoC4/BLE_eventHandler.c ****     #if (CYBLE_GATT_ROLE_CLIENT)
1325:.\Generated_Source\PSoC4/BLE_eventHandler.c ****         if((cyBle_eventHandlerFlag & CYBLE_AUTO_DISCOVERY) != 0u)
1326:.\Generated_Source\PSoC4/BLE_eventHandler.c ****         {
1327:.\Generated_Source\PSoC4/BLE_eventHandler.c ****             switch(CyBle_GetClientState())
1328:.\Generated_Source\PSoC4/BLE_eventHandler.c ****             {
1329:.\Generated_Source\PSoC4/BLE_eventHandler.c ****                 case CYBLE_CLIENT_STATE_SRVC_DISCOVERING:
1330:.\Generated_Source\PSoC4/BLE_eventHandler.c ****                     CyBle_ApplCallback(CYBLE_EVT_GATTC_SRVC_DISCOVERY_FAILED, NULL);
1331:.\Generated_Source\PSoC4/BLE_eventHandler.c ****                     break;
1332:.\Generated_Source\PSoC4/BLE_eventHandler.c ****                 case CYBLE_CLIENT_STATE_INCL_DISCOVERING:
ARM GAS  C:\Users\behrenb2\AppData\Local\Temp\ccNHrcVd.s 			page 29


1333:.\Generated_Source\PSoC4/BLE_eventHandler.c ****                     CyBle_ApplCallback(CYBLE_EVT_GATTC_INCL_DISCOVERY_FAILED, NULL);
1334:.\Generated_Source\PSoC4/BLE_eventHandler.c ****                     break;
1335:.\Generated_Source\PSoC4/BLE_eventHandler.c ****                 case CYBLE_CLIENT_STATE_CHAR_DISCOVERING:
1336:.\Generated_Source\PSoC4/BLE_eventHandler.c ****                     CyBle_ApplCallback(CYBLE_EVT_GATTC_CHAR_DISCOVERY_FAILED, NULL);
1337:.\Generated_Source\PSoC4/BLE_eventHandler.c ****                     break;
1338:.\Generated_Source\PSoC4/BLE_eventHandler.c ****                 case CYBLE_CLIENT_STATE_DESCR_DISCOVERING:
1339:.\Generated_Source\PSoC4/BLE_eventHandler.c ****                     CyBle_ApplCallback(CYBLE_EVT_GATTC_DESCR_DISCOVERY_FAILED, NULL);
1340:.\Generated_Source\PSoC4/BLE_eventHandler.c ****                     break;
1341:.\Generated_Source\PSoC4/BLE_eventHandler.c ****                 default:        /* Other states should not be set in Auto discovery mode */
1342:.\Generated_Source\PSoC4/BLE_eventHandler.c ****                     break;
1343:.\Generated_Source\PSoC4/BLE_eventHandler.c ****             }
1344:.\Generated_Source\PSoC4/BLE_eventHandler.c ****             cyBle_eventHandlerFlag &= (uint8)~CYBLE_AUTO_DISCOVERY;
1345:.\Generated_Source\PSoC4/BLE_eventHandler.c ****             CyBle_SetClientState(CYBLE_CLIENT_STATE_CONNECTED);
1346:.\Generated_Source\PSoC4/BLE_eventHandler.c ****         }
1347:.\Generated_Source\PSoC4/BLE_eventHandler.c ****     #endif /* CYBLE_GATT_ROLE_CLIENT */
1348:.\Generated_Source\PSoC4/BLE_eventHandler.c ****     #ifdef CYBLE_CPS_SERVER
1349:.\Generated_Source\PSoC4/BLE_eventHandler.c ****         CyBle_CpssTimeOutEventHandler();
1350:.\Generated_Source\PSoC4/BLE_eventHandler.c ****     #endif /* CYBLE_CPS_SERVER */
1351:.\Generated_Source\PSoC4/BLE_eventHandler.c ****     }
1352:.\Generated_Source\PSoC4/BLE_eventHandler.c ****     
1353:.\Generated_Source\PSoC4/BLE_eventHandler.c ****     /* Connection procedure timeout */
1354:.\Generated_Source\PSoC4/BLE_eventHandler.c ****     if(*eventParam == CYBLE_GENERIC_TO)
1355:.\Generated_Source\PSoC4/BLE_eventHandler.c ****     {
1356:.\Generated_Source\PSoC4/BLE_eventHandler.c ****     #if(CYBLE_GAP_ROLE_CENTRAL)
1357:.\Generated_Source\PSoC4/BLE_eventHandler.c ****         if(CYBLE_STATE_CONNECTING == CyBle_GetState())
1358:.\Generated_Source\PSoC4/BLE_eventHandler.c ****         {
1359:.\Generated_Source\PSoC4/BLE_eventHandler.c ****             (void)CyBle_GapcCancelDeviceConnection();
1360:.\Generated_Source\PSoC4/BLE_eventHandler.c ****         }
1361:.\Generated_Source\PSoC4/BLE_eventHandler.c ****     #endif /* CYBLE_GAP_ROLE_CENTRAL */
1362:.\Generated_Source\PSoC4/BLE_eventHandler.c ****     }
1363:.\Generated_Source\PSoC4/BLE_eventHandler.c **** }
 265              		.loc 1 1363 0
 266 0008 BD46     		mov	sp, r7
 267 000a 02B0     		add	sp, sp, #8
 268              		@ sp needed
 269 000c 80BD     		pop	{r7, pc}
 270              		.cfi_endproc
 271              	.LFE5:
 272              		.size	CyBle_TimeOutEventHandler, .-CyBle_TimeOutEventHandler
 273              		.section	.text.CyBle_GattConnectReqHandler,"ax",%progbits
 274              		.align	2
 275              		.code	16
 276              		.thumb_func
 277              		.type	CyBle_GattConnectReqHandler, %function
 278              	CyBle_GattConnectReqHandler:
 279              	.LFB6:
1364:.\Generated_Source\PSoC4/BLE_eventHandler.c **** 
1365:.\Generated_Source\PSoC4/BLE_eventHandler.c **** 
1366:.\Generated_Source\PSoC4/BLE_eventHandler.c **** /****************************************************************************** 
1367:.\Generated_Source\PSoC4/BLE_eventHandler.c **** * Function Name: CyBle_GattConnectReqHandler
1368:.\Generated_Source\PSoC4/BLE_eventHandler.c **** ***************************************************************************//**
1369:.\Generated_Source\PSoC4/BLE_eventHandler.c **** * 
1370:.\Generated_Source\PSoC4/BLE_eventHandler.c **** *  Handles the GATT connect event from the BLE stack.
1371:.\Generated_Source\PSoC4/BLE_eventHandler.c **** * 
1372:.\Generated_Source\PSoC4/BLE_eventHandler.c **** * \return
1373:.\Generated_Source\PSoC4/BLE_eventHandler.c **** *  None
1374:.\Generated_Source\PSoC4/BLE_eventHandler.c **** * 
ARM GAS  C:\Users\behrenb2\AppData\Local\Temp\ccNHrcVd.s 			page 30


1375:.\Generated_Source\PSoC4/BLE_eventHandler.c **** ******************************************************************************/
1376:.\Generated_Source\PSoC4/BLE_eventHandler.c **** static void CyBle_GattConnectReqHandler(void)
1377:.\Generated_Source\PSoC4/BLE_eventHandler.c **** {
 280              		.loc 1 1377 0
 281              		.cfi_startproc
 282 0000 80B5     		push	{r7, lr}
 283              		.cfi_def_cfa_offset 8
 284              		.cfi_offset 7, -8
 285              		.cfi_offset 14, -4
 286 0002 00AF     		add	r7, sp, #0
 287              		.cfi_def_cfa_register 7
1378:.\Generated_Source\PSoC4/BLE_eventHandler.c ****     #ifdef CYBLE_CGMS_SERVER
1379:.\Generated_Source\PSoC4/BLE_eventHandler.c ****         CyBle_CgmsInit();
1380:.\Generated_Source\PSoC4/BLE_eventHandler.c ****     #endif /* CYBLE_CGMS_SERVER */
1381:.\Generated_Source\PSoC4/BLE_eventHandler.c ****     
1382:.\Generated_Source\PSoC4/BLE_eventHandler.c ****     #ifdef CYBLE_CPS_SERVER
1383:.\Generated_Source\PSoC4/BLE_eventHandler.c ****         CyBle_CpssConnectEventHandler();
1384:.\Generated_Source\PSoC4/BLE_eventHandler.c ****     #endif /* CYBLE_CPS_SERVER */
1385:.\Generated_Source\PSoC4/BLE_eventHandler.c ****     
1386:.\Generated_Source\PSoC4/BLE_eventHandler.c ****     #ifdef CYBLE_CSCS_SERVER
1387:.\Generated_Source\PSoC4/BLE_eventHandler.c ****             CyBle_CscsInit();
1388:.\Generated_Source\PSoC4/BLE_eventHandler.c ****     #endif /* CYBLE_CSCS_SERVER */
1389:.\Generated_Source\PSoC4/BLE_eventHandler.c ****     
1390:.\Generated_Source\PSoC4/BLE_eventHandler.c ****     #ifdef CYBLE_LLS_SERVER
1391:.\Generated_Source\PSoC4/BLE_eventHandler.c ****         CyBle_LlssConnectEventHandler();
1392:.\Generated_Source\PSoC4/BLE_eventHandler.c ****     #endif /* CYBLE_LLS_SERVER */
1393:.\Generated_Source\PSoC4/BLE_eventHandler.c ****     
1394:.\Generated_Source\PSoC4/BLE_eventHandler.c ****     #ifdef CYBLE_HIDS_SERVER
1395:.\Generated_Source\PSoC4/BLE_eventHandler.c ****         CyBle_HidssOnDeviceConnected();
1396:.\Generated_Source\PSoC4/BLE_eventHandler.c ****     #endif /* CYBLE_HIDS_SERVER */
1397:.\Generated_Source\PSoC4/BLE_eventHandler.c **** 
1398:.\Generated_Source\PSoC4/BLE_eventHandler.c ****     #ifdef CYBLE_RSCS_SERVER
1399:.\Generated_Source\PSoC4/BLE_eventHandler.c ****         CyBle_RscsInit();
1400:.\Generated_Source\PSoC4/BLE_eventHandler.c ****     #endif /* CYBLE_RSCS_SERVER */
1401:.\Generated_Source\PSoC4/BLE_eventHandler.c **** }
 288              		.loc 1 1401 0
 289 0004 BD46     		mov	sp, r7
 290              		@ sp needed
 291 0006 80BD     		pop	{r7, pc}
 292              		.cfi_endproc
 293              	.LFE6:
 294              		.size	CyBle_GattConnectReqHandler, .-CyBle_GattConnectReqHandler
 295              		.section	.text.CyBle_IsDeviceAddressValid,"ax",%progbits
 296              		.align	2
 297              		.global	CyBle_IsDeviceAddressValid
 298              		.code	16
 299              		.thumb_func
 300              		.type	CyBle_IsDeviceAddressValid, %function
 301              	CyBle_IsDeviceAddressValid:
 302              	.LFB7:
1402:.\Generated_Source\PSoC4/BLE_eventHandler.c **** 
1403:.\Generated_Source\PSoC4/BLE_eventHandler.c **** 
1404:.\Generated_Source\PSoC4/BLE_eventHandler.c **** #if (CYBLE_GATT_ROLE_SERVER || CYBLE_GATT_ROLE_CLIENT)
1405:.\Generated_Source\PSoC4/BLE_eventHandler.c **** 
1406:.\Generated_Source\PSoC4/BLE_eventHandler.c **** /****************************************************************************** 
1407:.\Generated_Source\PSoC4/BLE_eventHandler.c **** * Function Name: CyBle_IsDeviceAddressValid
1408:.\Generated_Source\PSoC4/BLE_eventHandler.c **** ***************************************************************************//**
ARM GAS  C:\Users\behrenb2\AppData\Local\Temp\ccNHrcVd.s 			page 31


1409:.\Generated_Source\PSoC4/BLE_eventHandler.c **** * 
1410:.\Generated_Source\PSoC4/BLE_eventHandler.c **** *  This function verifies that BLE public address has been programmed to SFLASH 
1411:.\Generated_Source\PSoC4/BLE_eventHandler.c **** *  during manufacture. It could be used to verify if public device address is 
1412:.\Generated_Source\PSoC4/BLE_eventHandler.c **** *  programmed to flash memory.
1413:.\Generated_Source\PSoC4/BLE_eventHandler.c **** * 
1414:.\Generated_Source\PSoC4/BLE_eventHandler.c **** *  \param deviceAddress: the pointer to the BD address of type CYBLE_GAP_BD_ADDR_T. 
1415:.\Generated_Source\PSoC4/BLE_eventHandler.c **** * 
1416:.\Generated_Source\PSoC4/BLE_eventHandler.c **** * \return
1417:.\Generated_Source\PSoC4/BLE_eventHandler.c **** *  Non zero value when a device address differs from the default SFLASH content.
1418:.\Generated_Source\PSoC4/BLE_eventHandler.c **** * 
1419:.\Generated_Source\PSoC4/BLE_eventHandler.c **** ******************************************************************************/
1420:.\Generated_Source\PSoC4/BLE_eventHandler.c **** uint8 CyBle_IsDeviceAddressValid(const CYBLE_GAP_BD_ADDR_T *deviceAddress)
1421:.\Generated_Source\PSoC4/BLE_eventHandler.c **** {
 303              		.loc 1 1421 0
 304              		.cfi_startproc
 305 0000 80B5     		push	{r7, lr}
 306              		.cfi_def_cfa_offset 8
 307              		.cfi_offset 7, -8
 308              		.cfi_offset 14, -4
 309 0002 84B0     		sub	sp, sp, #16
 310              		.cfi_def_cfa_offset 24
 311 0004 00AF     		add	r7, sp, #0
 312              		.cfi_def_cfa_register 7
 313 0006 7860     		str	r0, [r7, #4]
1422:.\Generated_Source\PSoC4/BLE_eventHandler.c ****     uint8 i;
1423:.\Generated_Source\PSoC4/BLE_eventHandler.c ****     uint8 addressValid = 0u;
 314              		.loc 1 1423 0
 315 0008 0E23     		mov	r3, #14
 316 000a FB18     		add	r3, r7, r3
 317 000c 0022     		mov	r2, #0
 318 000e 1A70     		strb	r2, [r3]
1424:.\Generated_Source\PSoC4/BLE_eventHandler.c ****     
1425:.\Generated_Source\PSoC4/BLE_eventHandler.c ****     if(deviceAddress -> type == CYBLE_GAP_ADDR_TYPE_PUBLIC)  
 319              		.loc 1 1425 0
 320 0010 7B68     		ldr	r3, [r7, #4]
 321 0012 9B79     		ldrb	r3, [r3, #6]
 322 0014 002B     		cmp	r3, #0
 323 0016 1CD1     		bne	.L18
1426:.\Generated_Source\PSoC4/BLE_eventHandler.c ****     {
1427:.\Generated_Source\PSoC4/BLE_eventHandler.c ****         for(i = 0u; i < CYBLE_GAP_BD_ADDR_SIZE; i++)
 324              		.loc 1 1427 0
 325 0018 0F23     		mov	r3, #15
 326 001a FB18     		add	r3, r7, r3
 327 001c 0022     		mov	r2, #0
 328 001e 1A70     		strb	r2, [r3]
 329 0020 12E0     		b	.L19
 330              	.L21:
1428:.\Generated_Source\PSoC4/BLE_eventHandler.c ****         {
1429:.\Generated_Source\PSoC4/BLE_eventHandler.c ****             if(deviceAddress->bdAddr[i] != 0u)
 331              		.loc 1 1429 0
 332 0022 0F23     		mov	r3, #15
 333 0024 FB18     		add	r3, r7, r3
 334 0026 1B78     		ldrb	r3, [r3]
 335 0028 7A68     		ldr	r2, [r7, #4]
 336 002a D35C     		ldrb	r3, [r2, r3]
 337 002c 002B     		cmp	r3, #0
 338 002e 04D0     		beq	.L20
ARM GAS  C:\Users\behrenb2\AppData\Local\Temp\ccNHrcVd.s 			page 32


1430:.\Generated_Source\PSoC4/BLE_eventHandler.c ****             {
1431:.\Generated_Source\PSoC4/BLE_eventHandler.c ****                 addressValid = 1u;
 339              		.loc 1 1431 0
 340 0030 0E23     		mov	r3, #14
 341 0032 FB18     		add	r3, r7, r3
 342 0034 0122     		mov	r2, #1
 343 0036 1A70     		strb	r2, [r3]
1432:.\Generated_Source\PSoC4/BLE_eventHandler.c ****                 break;
 344              		.loc 1 1432 0
 345 0038 0BE0     		b	.L18
 346              	.L20:
1427:.\Generated_Source\PSoC4/BLE_eventHandler.c ****         {
 347              		.loc 1 1427 0 discriminator 2
 348 003a 0F23     		mov	r3, #15
 349 003c FB18     		add	r3, r7, r3
 350 003e 1A78     		ldrb	r2, [r3]
 351 0040 0F23     		mov	r3, #15
 352 0042 FB18     		add	r3, r7, r3
 353 0044 0132     		add	r2, r2, #1
 354 0046 1A70     		strb	r2, [r3]
 355              	.L19:
1427:.\Generated_Source\PSoC4/BLE_eventHandler.c ****         {
 356              		.loc 1 1427 0 is_stmt 0 discriminator 1
 357 0048 0F23     		mov	r3, #15
 358 004a FB18     		add	r3, r7, r3
 359 004c 1B78     		ldrb	r3, [r3]
 360 004e 052B     		cmp	r3, #5
 361 0050 E7D9     		bls	.L21
 362              	.L18:
1433:.\Generated_Source\PSoC4/BLE_eventHandler.c ****             }
1434:.\Generated_Source\PSoC4/BLE_eventHandler.c ****         }
1435:.\Generated_Source\PSoC4/BLE_eventHandler.c ****     }
1436:.\Generated_Source\PSoC4/BLE_eventHandler.c ****     return (addressValid);
 363              		.loc 1 1436 0 is_stmt 1
 364 0052 0E23     		mov	r3, #14
 365 0054 FB18     		add	r3, r7, r3
 366 0056 1B78     		ldrb	r3, [r3]
1437:.\Generated_Source\PSoC4/BLE_eventHandler.c **** }
 367              		.loc 1 1437 0
 368 0058 181C     		mov	r0, r3
 369 005a BD46     		mov	sp, r7
 370 005c 04B0     		add	sp, sp, #16
 371              		@ sp needed
 372 005e 80BD     		pop	{r7, pc}
 373              		.cfi_endproc
 374              	.LFE7:
 375              		.size	CyBle_IsDeviceAddressValid, .-CyBle_IsDeviceAddressValid
 376              		.section	.text.CyBle_L2Cap_ConnParamUpdateRspEventHandler,"ax",%progbits
 377              		.align	2
 378              		.code	16
 379              		.thumb_func
 380              		.type	CyBle_L2Cap_ConnParamUpdateRspEventHandler, %function
 381              	CyBle_L2Cap_ConnParamUpdateRspEventHandler:
 382              	.LFB8:
1438:.\Generated_Source\PSoC4/BLE_eventHandler.c **** #endif /* CYBLE_GATT_ROLE_SERVER || CYBLE_GATT_ROLE_CLIENT */
1439:.\Generated_Source\PSoC4/BLE_eventHandler.c **** 
1440:.\Generated_Source\PSoC4/BLE_eventHandler.c **** 
ARM GAS  C:\Users\behrenb2\AppData\Local\Temp\ccNHrcVd.s 			page 33


1441:.\Generated_Source\PSoC4/BLE_eventHandler.c **** /****************************************************************************** 
1442:.\Generated_Source\PSoC4/BLE_eventHandler.c **** * Function Name: CyBle_L2Cap_ConnParamUpdateRspHandler
1443:.\Generated_Source\PSoC4/BLE_eventHandler.c **** ***************************************************************************//**
1444:.\Generated_Source\PSoC4/BLE_eventHandler.c **** * 
1445:.\Generated_Source\PSoC4/BLE_eventHandler.c **** *  Handles the L2CAP connection parameter response event from
1446:.\Generated_Source\PSoC4/BLE_eventHandler.c **** *  the BLE stack.
1447:.\Generated_Source\PSoC4/BLE_eventHandler.c **** * 
1448:.\Generated_Source\PSoC4/BLE_eventHandler.c **** *  \param response:
1449:.\Generated_Source\PSoC4/BLE_eventHandler.c **** *      * Accepted = 0x0000
1450:.\Generated_Source\PSoC4/BLE_eventHandler.c **** *      * Rejected = 0x0001
1451:.\Generated_Source\PSoC4/BLE_eventHandler.c **** * 
1452:.\Generated_Source\PSoC4/BLE_eventHandler.c **** * \return
1453:.\Generated_Source\PSoC4/BLE_eventHandler.c **** *  None
1454:.\Generated_Source\PSoC4/BLE_eventHandler.c **** * 
1455:.\Generated_Source\PSoC4/BLE_eventHandler.c **** ******************************************************************************/
1456:.\Generated_Source\PSoC4/BLE_eventHandler.c **** static void CyBle_L2Cap_ConnParamUpdateRspEventHandler(uint16 response)
1457:.\Generated_Source\PSoC4/BLE_eventHandler.c **** {
 383              		.loc 1 1457 0
 384              		.cfi_startproc
 385 0000 80B5     		push	{r7, lr}
 386              		.cfi_def_cfa_offset 8
 387              		.cfi_offset 7, -8
 388              		.cfi_offset 14, -4
 389 0002 82B0     		sub	sp, sp, #8
 390              		.cfi_def_cfa_offset 16
 391 0004 00AF     		add	r7, sp, #0
 392              		.cfi_def_cfa_register 7
 393 0006 021C     		mov	r2, r0
 394 0008 BB1D     		add	r3, r7, #6
 395 000a 1A80     		strh	r2, [r3]
1458:.\Generated_Source\PSoC4/BLE_eventHandler.c ****     #ifdef CYBLE_CPS_SERVER
1459:.\Generated_Source\PSoC4/BLE_eventHandler.c ****         CyBle_CpssConnParamUpdateRspEventHandler(response);
1460:.\Generated_Source\PSoC4/BLE_eventHandler.c ****     #endif /* CYBLE_CPS_SERVER */
1461:.\Generated_Source\PSoC4/BLE_eventHandler.c ****     
1462:.\Generated_Source\PSoC4/BLE_eventHandler.c ****     /* Unreferenced variable warning workaround */
1463:.\Generated_Source\PSoC4/BLE_eventHandler.c ****     if(response != 0u)
1464:.\Generated_Source\PSoC4/BLE_eventHandler.c ****     {
1465:.\Generated_Source\PSoC4/BLE_eventHandler.c ****     }
1466:.\Generated_Source\PSoC4/BLE_eventHandler.c **** }
 396              		.loc 1 1466 0
 397 000c BD46     		mov	sp, r7
 398 000e 02B0     		add	sp, sp, #8
 399              		@ sp needed
 400 0010 80BD     		pop	{r7, pc}
 401              		.cfi_endproc
 402              	.LFE8:
 403              		.size	CyBle_L2Cap_ConnParamUpdateRspEventHandler, .-CyBle_L2Cap_ConnParamUpdateRspEventHandler
 404 0012 C046     		.section	.text.CyBle_GapConnUpdateCompleteEventHandler,"ax",%progbits
 405              		.align	2
 406              		.code	16
 407              		.thumb_func
 408              		.type	CyBle_GapConnUpdateCompleteEventHandler, %function
 409              	CyBle_GapConnUpdateCompleteEventHandler:
 410              	.LFB9:
1467:.\Generated_Source\PSoC4/BLE_eventHandler.c **** 
1468:.\Generated_Source\PSoC4/BLE_eventHandler.c **** 
1469:.\Generated_Source\PSoC4/BLE_eventHandler.c **** /****************************************************************************** 
ARM GAS  C:\Users\behrenb2\AppData\Local\Temp\ccNHrcVd.s 			page 34


1470:.\Generated_Source\PSoC4/BLE_eventHandler.c **** * Function Name: CyBle_GapConnUpdateCompleteEventHandler
1471:.\Generated_Source\PSoC4/BLE_eventHandler.c **** ***************************************************************************//**
1472:.\Generated_Source\PSoC4/BLE_eventHandler.c **** * 
1473:.\Generated_Source\PSoC4/BLE_eventHandler.c **** *  Handles the CYBLE_EVT_GAP_CONNECTION_UPDATE_COMPLETE event from
1474:.\Generated_Source\PSoC4/BLE_eventHandler.c **** *  the BLE stack.
1475:.\Generated_Source\PSoC4/BLE_eventHandler.c **** * 
1476:.\Generated_Source\PSoC4/BLE_eventHandler.c **** *  \param eventParam: The pointer to the data structure specified by the event.
1477:.\Generated_Source\PSoC4/BLE_eventHandler.c **** * 
1478:.\Generated_Source\PSoC4/BLE_eventHandler.c **** * \return
1479:.\Generated_Source\PSoC4/BLE_eventHandler.c **** *  None
1480:.\Generated_Source\PSoC4/BLE_eventHandler.c **** * 
1481:.\Generated_Source\PSoC4/BLE_eventHandler.c **** ******************************************************************************/
1482:.\Generated_Source\PSoC4/BLE_eventHandler.c **** static void CyBle_GapConnUpdateCompleteEventHandler(const CYBLE_GAP_CONN_PARAM_UPDATED_IN_CONTROLLE
1483:.\Generated_Source\PSoC4/BLE_eventHandler.c **** {
 411              		.loc 1 1483 0
 412              		.cfi_startproc
 413 0000 80B5     		push	{r7, lr}
 414              		.cfi_def_cfa_offset 8
 415              		.cfi_offset 7, -8
 416              		.cfi_offset 14, -4
 417 0002 82B0     		sub	sp, sp, #8
 418              		.cfi_def_cfa_offset 16
 419 0004 00AF     		add	r7, sp, #0
 420              		.cfi_def_cfa_register 7
 421 0006 7860     		str	r0, [r7, #4]
1484:.\Generated_Source\PSoC4/BLE_eventHandler.c ****     #ifdef CYBLE_CPS_SERVER
1485:.\Generated_Source\PSoC4/BLE_eventHandler.c ****         CyBle_CpssConnUpdateCompleteEventHandler(eventParam);
1486:.\Generated_Source\PSoC4/BLE_eventHandler.c ****     #endif /* CYBLE_CPS_SERVER */
1487:.\Generated_Source\PSoC4/BLE_eventHandler.c ****     
1488:.\Generated_Source\PSoC4/BLE_eventHandler.c ****     /* Unreferenced variable warning workaround */
1489:.\Generated_Source\PSoC4/BLE_eventHandler.c ****     if(eventParam != 0u)
1490:.\Generated_Source\PSoC4/BLE_eventHandler.c ****     {
1491:.\Generated_Source\PSoC4/BLE_eventHandler.c ****     }
1492:.\Generated_Source\PSoC4/BLE_eventHandler.c **** }
 422              		.loc 1 1492 0
 423 0008 BD46     		mov	sp, r7
 424 000a 02B0     		add	sp, sp, #8
 425              		@ sp needed
 426 000c 80BD     		pop	{r7, pc}
 427              		.cfi_endproc
 428              	.LFE9:
 429              		.size	CyBle_GapConnUpdateCompleteEventHandler, .-CyBle_GapConnUpdateCompleteEventHandler
 430              		.section	.text.CyBle_EventHandler,"ax",%progbits
 431              		.align	2
 432              		.global	CyBle_EventHandler
 433              		.code	16
 434              		.thumb_func
 435              		.type	CyBle_EventHandler, %function
 436              	CyBle_EventHandler:
 437              	.LFB10:
1493:.\Generated_Source\PSoC4/BLE_eventHandler.c **** 
1494:.\Generated_Source\PSoC4/BLE_eventHandler.c **** 
1495:.\Generated_Source\PSoC4/BLE_eventHandler.c **** /****************************************************************************** 
1496:.\Generated_Source\PSoC4/BLE_eventHandler.c **** * Function Name: CyBle_EventHandler
1497:.\Generated_Source\PSoC4/BLE_eventHandler.c **** ***************************************************************************//**
1498:.\Generated_Source\PSoC4/BLE_eventHandler.c **** * 
1499:.\Generated_Source\PSoC4/BLE_eventHandler.c **** *  Handles the events from the BLE stack
ARM GAS  C:\Users\behrenb2\AppData\Local\Temp\ccNHrcVd.s 			page 35


1500:.\Generated_Source\PSoC4/BLE_eventHandler.c **** * 
1501:.\Generated_Source\PSoC4/BLE_eventHandler.c **** *  \param eventCode:    the event code
1502:.\Generated_Source\PSoC4/BLE_eventHandler.c **** *  \param eventParam:  the event parameters
1503:.\Generated_Source\PSoC4/BLE_eventHandler.c **** * 
1504:.\Generated_Source\PSoC4/BLE_eventHandler.c **** * \return
1505:.\Generated_Source\PSoC4/BLE_eventHandler.c **** *  None.
1506:.\Generated_Source\PSoC4/BLE_eventHandler.c **** * 
1507:.\Generated_Source\PSoC4/BLE_eventHandler.c **** ******************************************************************************/
1508:.\Generated_Source\PSoC4/BLE_eventHandler.c **** void CyBle_EventHandler(uint8 eventCode, void *eventParam)
1509:.\Generated_Source\PSoC4/BLE_eventHandler.c **** {
 438              		.loc 1 1509 0
 439              		.cfi_startproc
 440 0000 80B5     		push	{r7, lr}
 441              		.cfi_def_cfa_offset 8
 442              		.cfi_offset 7, -8
 443              		.cfi_offset 14, -4
 444 0002 86B0     		sub	sp, sp, #24
 445              		.cfi_def_cfa_offset 32
 446 0004 00AF     		add	r7, sp, #0
 447              		.cfi_def_cfa_register 7
 448 0006 021C     		mov	r2, r0
 449 0008 3960     		str	r1, [r7]
 450 000a FB1D     		add	r3, r7, #7
 451 000c 1A70     		strb	r2, [r3]
1510:.\Generated_Source\PSoC4/BLE_eventHandler.c ****     cyBle_eventHandlerFlag |= CYBLE_CALLBACK;
 452              		.loc 1 1510 0
 453 000e B14B     		ldr	r3, .L62
 454 0010 1B78     		ldrb	r3, [r3]
 455 0012 DBB2     		uxtb	r3, r3
 456 0014 0122     		mov	r2, #1
 457 0016 1343     		orr	r3, r2
 458 0018 DAB2     		uxtb	r2, r3
 459 001a AE4B     		ldr	r3, .L62
 460 001c 1A70     		strb	r2, [r3]
1511:.\Generated_Source\PSoC4/BLE_eventHandler.c **** 
1512:.\Generated_Source\PSoC4/BLE_eventHandler.c ****     /* Common Profile event handling */
1513:.\Generated_Source\PSoC4/BLE_eventHandler.c ****     switch(eventCode)
 461              		.loc 1 1513 0
 462 001e FB1D     		add	r3, r7, #7
 463 0020 1B78     		ldrb	r3, [r3]
 464 0022 712B     		cmp	r3, #113
 465 0024 00D9     		bls	.LCB390
 466 0026 39E1     		b	.L61	@long jump
 467              	.LCB390:
 468 0028 9A00     		lsl	r2, r3, #2
 469 002a AB4B     		ldr	r3, .L62+4
 470 002c D318     		add	r3, r2, r3
 471 002e 1B68     		ldr	r3, [r3]
 472 0030 9F46     		mov	pc, r3
 473              		.section	.rodata
 474              		.align	2
 475              	.L28:
 476 0000 9C020000 		.word	.L61
 477 0004 32000000 		.word	.L27
 478 0008 DC000000 		.word	.L29
 479 000c 9C020000 		.word	.L61
 480 0010 9C020000 		.word	.L61
ARM GAS  C:\Users\behrenb2\AppData\Local\Temp\ccNHrcVd.s 			page 36


 481 0014 E6000000 		.word	.L30
 482 0018 F0000000 		.word	.L31
 483 001c 9C020000 		.word	.L61
 484 0020 9C020000 		.word	.L61
 485 0024 9C020000 		.word	.L61
 486 0028 9C020000 		.word	.L61
 487 002c 9C020000 		.word	.L61
 488 0030 9C020000 		.word	.L61
 489 0034 9C020000 		.word	.L61
 490 0038 9C020000 		.word	.L61
 491 003c 9C020000 		.word	.L61
 492 0040 9C020000 		.word	.L61
 493 0044 9C020000 		.word	.L61
 494 0048 9C020000 		.word	.L61
 495 004c 9C020000 		.word	.L61
 496 0050 9C020000 		.word	.L61
 497 0054 9C020000 		.word	.L61
 498 0058 9C020000 		.word	.L61
 499 005c 9C020000 		.word	.L61
 500 0060 9C020000 		.word	.L61
 501 0064 9C020000 		.word	.L61
 502 0068 9C020000 		.word	.L61
 503 006c 9C020000 		.word	.L61
 504 0070 9C020000 		.word	.L61
 505 0074 9C020000 		.word	.L61
 506 0078 9C020000 		.word	.L61
 507 007c 9C020000 		.word	.L61
 508 0080 9C020000 		.word	.L61
 509 0084 30010000 		.word	.L32
 510 0088 9C020000 		.word	.L61
 511 008c 9C020000 		.word	.L61
 512 0090 9C020000 		.word	.L61
 513 0094 9C020000 		.word	.L61
 514 0098 90010000 		.word	.L34
 515 009c 78010000 		.word	.L35
 516 00a0 88010000 		.word	.L36
 517 00a4 9C020000 		.word	.L61
 518 00a8 6E010000 		.word	.L37
 519 00ac 9C020000 		.word	.L61
 520 00b0 9C020000 		.word	.L61
 521 00b4 9C020000 		.word	.L61
 522 00b8 9C020000 		.word	.L61
 523 00bc 9C020000 		.word	.L61
 524 00c0 9C020000 		.word	.L61
 525 00c4 9C020000 		.word	.L61
 526 00c8 9C020000 		.word	.L61
 527 00cc 9C020000 		.word	.L61
 528 00d0 9C020000 		.word	.L61
 529 00d4 9C020000 		.word	.L61
 530 00d8 9C020000 		.word	.L61
 531 00dc 9C020000 		.word	.L61
 532 00e0 9C020000 		.word	.L61
 533 00e4 9C020000 		.word	.L61
 534 00e8 9C020000 		.word	.L61
 535 00ec 9C020000 		.word	.L61
 536 00f0 9C020000 		.word	.L61
 537 00f4 9C020000 		.word	.L61
ARM GAS  C:\Users\behrenb2\AppData\Local\Temp\ccNHrcVd.s 			page 37


 538 00f8 9C020000 		.word	.L61
 539 00fc 9C020000 		.word	.L61
 540 0100 9C020000 		.word	.L61
 541 0104 28020000 		.word	.L38
 542 0108 48020000 		.word	.L39
 543 010c 4E020000 		.word	.L40
 544 0110 9C020000 		.word	.L61
 545 0114 9C020000 		.word	.L61
 546 0118 9C020000 		.word	.L61
 547 011c 9C020000 		.word	.L61
 548 0120 9C020000 		.word	.L61
 549 0124 9C020000 		.word	.L61
 550 0128 9C020000 		.word	.L61
 551 012c 9C020000 		.word	.L61
 552 0130 88020000 		.word	.L41
 553 0134 9C020000 		.word	.L61
 554 0138 9C020000 		.word	.L61
 555 013c 9C020000 		.word	.L61
 556 0140 9C020000 		.word	.L61
 557 0144 9C020000 		.word	.L61
 558 0148 9C020000 		.word	.L61
 559 014c 9C020000 		.word	.L61
 560 0150 92020000 		.word	.L45
 561 0154 9C020000 		.word	.L61
 562 0158 9C020000 		.word	.L61
 563 015c 9C020000 		.word	.L61
 564 0160 9C020000 		.word	.L61
 565 0164 9C020000 		.word	.L61
 566 0168 9C020000 		.word	.L61
 567 016c 9C020000 		.word	.L61
 568 0170 9C020000 		.word	.L61
 569 0174 9C020000 		.word	.L61
 570 0178 9C020000 		.word	.L61
 571 017c 9C020000 		.word	.L61
 572 0180 9C020000 		.word	.L61
 573 0184 9C020000 		.word	.L61
 574 0188 9C020000 		.word	.L61
 575 018c 9C020000 		.word	.L61
 576 0190 9C020000 		.word	.L61
 577 0194 9C020000 		.word	.L61
 578 0198 9C020000 		.word	.L61
 579 019c 9C020000 		.word	.L61
 580 01a0 9C020000 		.word	.L61
 581 01a4 9C020000 		.word	.L61
 582 01a8 9C020000 		.word	.L61
 583 01ac 9C020000 		.word	.L61
 584 01b0 9C020000 		.word	.L61
 585 01b4 9C020000 		.word	.L61
 586 01b8 9C020000 		.word	.L61
 587 01bc 9C020000 		.word	.L61
 588 01c0 9C020000 		.word	.L61
 589 01c4 1C020000 		.word	.L47
 590              		.section	.text.CyBle_EventHandler
 591              	.L27:
 592              	.LBB3:
1514:.\Generated_Source\PSoC4/BLE_eventHandler.c ****     {
1515:.\Generated_Source\PSoC4/BLE_eventHandler.c ****         /**********************************************************
ARM GAS  C:\Users\behrenb2\AppData\Local\Temp\ccNHrcVd.s 			page 38


1516:.\Generated_Source\PSoC4/BLE_eventHandler.c ****         * General events
1517:.\Generated_Source\PSoC4/BLE_eventHandler.c ****         ************************************************************/
1518:.\Generated_Source\PSoC4/BLE_eventHandler.c ****         case CYBLE_EVT_STACK_ON:
1519:.\Generated_Source\PSoC4/BLE_eventHandler.c ****         #if(CYBLE_MODE_PROFILE)
1520:.\Generated_Source\PSoC4/BLE_eventHandler.c ****         {
1521:.\Generated_Source\PSoC4/BLE_eventHandler.c ****             CYBLE_BLESS_PWR_IN_DB_T bleSsPowerLevel;
1522:.\Generated_Source\PSoC4/BLE_eventHandler.c ****             
1523:.\Generated_Source\PSoC4/BLE_eventHandler.c ****             /* Set Tx Power Level for advertising and connection channels */
1524:.\Generated_Source\PSoC4/BLE_eventHandler.c ****             bleSsPowerLevel.blePwrLevelInDbm = CYBLE_TX_POWER_LEVEL_ADV;
 593              		.loc 1 1524 0
 594 0032 0C23     		mov	r3, #12
 595 0034 FB18     		add	r3, r7, r3
 596 0036 0722     		mov	r2, #7
 597 0038 1A70     		strb	r2, [r3]
1525:.\Generated_Source\PSoC4/BLE_eventHandler.c ****             bleSsPowerLevel.bleSsChId = CYBLE_LL_ADV_CH_TYPE;
 598              		.loc 1 1525 0
 599 003a 0C23     		mov	r3, #12
 600 003c FB18     		add	r3, r7, r3
 601 003e 0022     		mov	r2, #0
 602 0040 5A70     		strb	r2, [r3, #1]
1526:.\Generated_Source\PSoC4/BLE_eventHandler.c ****             (void) CyBle_SetTxPowerLevel (&bleSsPowerLevel);
 603              		.loc 1 1526 0
 604 0042 0C23     		mov	r3, #12
 605 0044 FB18     		add	r3, r7, r3
 606 0046 181C     		mov	r0, r3
 607 0048 FFF7FEFF 		bl	CyBle_SetTxPowerLevel
1527:.\Generated_Source\PSoC4/BLE_eventHandler.c ****             bleSsPowerLevel.blePwrLevelInDbm = CYBLE_TX_POWER_LEVEL_CONN;
 608              		.loc 1 1527 0
 609 004c 0C23     		mov	r3, #12
 610 004e FB18     		add	r3, r7, r3
 611 0050 0722     		mov	r2, #7
 612 0052 1A70     		strb	r2, [r3]
1528:.\Generated_Source\PSoC4/BLE_eventHandler.c ****             bleSsPowerLevel.bleSsChId = CYBLE_LL_CONN_CH_TYPE;
 613              		.loc 1 1528 0
 614 0054 0C23     		mov	r3, #12
 615 0056 FB18     		add	r3, r7, r3
 616 0058 0122     		mov	r2, #1
 617 005a 5A70     		strb	r2, [r3, #1]
1529:.\Generated_Source\PSoC4/BLE_eventHandler.c ****             (void) CyBle_SetTxPowerLevel (&bleSsPowerLevel);
 618              		.loc 1 1529 0
 619 005c 0C23     		mov	r3, #12
 620 005e FB18     		add	r3, r7, r3
 621 0060 181C     		mov	r0, r3
 622 0062 FFF7FEFF 		bl	CyBle_SetTxPowerLevel
 623              	.LBE3:
1530:.\Generated_Source\PSoC4/BLE_eventHandler.c ****             
1531:.\Generated_Source\PSoC4/BLE_eventHandler.c ****         }
1532:.\Generated_Source\PSoC4/BLE_eventHandler.c ****         #endif /* CYBLE_MODE_PROFILE */
1533:.\Generated_Source\PSoC4/BLE_eventHandler.c ****         #if (CYBLE_GATT_ROLE_SERVER || CYBLE_GATT_ROLE_CLIENT)
1534:.\Generated_Source\PSoC4/BLE_eventHandler.c ****             /* Set device Address  */
1535:.\Generated_Source\PSoC4/BLE_eventHandler.c ****             if(CyBle_IsDeviceAddressValid(cyBle_sflashDeviceAddress) != 0u)
 624              		.loc 1 1535 0
 625 0066 9D4B     		ldr	r3, .L62+8
 626 0068 1B68     		ldr	r3, [r3]
 627 006a 181C     		mov	r0, r3
 628 006c FFF7FEFF 		bl	CyBle_IsDeviceAddressValid
 629 0070 031E     		sub	r3, r0, #0
ARM GAS  C:\Users\behrenb2\AppData\Local\Temp\ccNHrcVd.s 			page 39


 630 0072 11D0     		beq	.L48
1536:.\Generated_Source\PSoC4/BLE_eventHandler.c ****             {
1537:.\Generated_Source\PSoC4/BLE_eventHandler.c ****                 (void) CyBle_SetDeviceAddress(cyBle_sflashDeviceAddress);
 631              		.loc 1 1537 0
 632 0074 994B     		ldr	r3, .L62+8
 633 0076 1B68     		ldr	r3, [r3]
 634 0078 181C     		mov	r0, r3
 635 007a FFF7FEFF 		bl	CyBle_SetDeviceAddress
1538:.\Generated_Source\PSoC4/BLE_eventHandler.c ****                 #if(CYBLE_GAP_ROLE_PERIPHERAL || CYBLE_GAP_ROLE_BROADCASTER)
1539:.\Generated_Source\PSoC4/BLE_eventHandler.c ****                     CyBle_ChangeAdDeviceAddress(cyBle_sflashDeviceAddress, 0u);
 636              		.loc 1 1539 0
 637 007e 974B     		ldr	r3, .L62+8
 638 0080 1B68     		ldr	r3, [r3]
 639 0082 181C     		mov	r0, r3
 640 0084 0021     		mov	r1, #0
 641 0086 FFF7FEFF 		bl	CyBle_ChangeAdDeviceAddress
1540:.\Generated_Source\PSoC4/BLE_eventHandler.c ****                     CyBle_ChangeAdDeviceAddress(cyBle_sflashDeviceAddress, 1u);
 642              		.loc 1 1540 0
 643 008a 944B     		ldr	r3, .L62+8
 644 008c 1B68     		ldr	r3, [r3]
 645 008e 181C     		mov	r0, r3
 646 0090 0121     		mov	r1, #1
 647 0092 FFF7FEFF 		bl	CyBle_ChangeAdDeviceAddress
 648 0096 0DE0     		b	.L49
 649              	.L48:
1541:.\Generated_Source\PSoC4/BLE_eventHandler.c ****                 #endif /* CYBLE_GAP_ROLE_PERIPHERAL || CYBLE_GAP_ROLE_BROADCASTER */    
1542:.\Generated_Source\PSoC4/BLE_eventHandler.c ****             }
1543:.\Generated_Source\PSoC4/BLE_eventHandler.c ****             else
1544:.\Generated_Source\PSoC4/BLE_eventHandler.c ****             {
1545:.\Generated_Source\PSoC4/BLE_eventHandler.c ****             #if (SILICON_GENERATED_DEVICE_ADDRESS != 0u)
1546:.\Generated_Source\PSoC4/BLE_eventHandler.c ****             {
1547:.\Generated_Source\PSoC4/BLE_eventHandler.c ****                 uint32 bdAddrLoc;
1548:.\Generated_Source\PSoC4/BLE_eventHandler.c ****                 bdAddrLoc = (CYBLE_SFLASH_DIE_X_REG & CYBLE_SFLASH_DIE_X_MASK) |
1549:.\Generated_Source\PSoC4/BLE_eventHandler.c ****                     ((uint32)(((uint32)CYBLE_SFLASH_DIE_Y_REG) & ((uint32)CYBLE_SFLASH_DIE_Y_MASK))
1550:.\Generated_Source\PSoC4/BLE_eventHandler.c ****                         CYBLE_SFLASH_DIE_X_BITS) |
1551:.\Generated_Source\PSoC4/BLE_eventHandler.c ****                     ((uint32)(((uint32)CYBLE_SFLASH_DIE_WAFER_REG) & ((uint32)CYBLE_SFLASH_DIE_WAFE
1552:.\Generated_Source\PSoC4/BLE_eventHandler.c ****                         CYBLE_SFLASH_DIE_XY_BITS) |
1553:.\Generated_Source\PSoC4/BLE_eventHandler.c ****                     ((uint32)(((uint32)CYBLE_SFLASH_DIE_LOT_REG) & ((uint32)CYBLE_SFLASH_DIE_LOT_MA
1554:.\Generated_Source\PSoC4/BLE_eventHandler.c ****                         CYBLE_SFLASH_DIE_XYWAFER_BITS);
1555:.\Generated_Source\PSoC4/BLE_eventHandler.c ****                             
1556:.\Generated_Source\PSoC4/BLE_eventHandler.c ****                 cyBle_deviceAddress.bdAddr[0] = (uint8)bdAddrLoc;
1557:.\Generated_Source\PSoC4/BLE_eventHandler.c ****                 cyBle_deviceAddress.bdAddr[1] = (uint8)(bdAddrLoc >> 8u);
1558:.\Generated_Source\PSoC4/BLE_eventHandler.c ****                 cyBle_deviceAddress.bdAddr[2] = (uint8)(bdAddrLoc >> 16u);
1559:.\Generated_Source\PSoC4/BLE_eventHandler.c ****             }
1560:.\Generated_Source\PSoC4/BLE_eventHandler.c ****             #endif /* SILICON_GENERATED_DEVICE_ADDRESS != 0u */
1561:.\Generated_Source\PSoC4/BLE_eventHandler.c ****                 (void) CyBle_SetDeviceAddress(&cyBle_deviceAddress);
 650              		.loc 1 1561 0
 651 0098 914B     		ldr	r3, .L62+12
 652 009a 181C     		mov	r0, r3
 653 009c FFF7FEFF 		bl	CyBle_SetDeviceAddress
1562:.\Generated_Source\PSoC4/BLE_eventHandler.c ****                 #if(CYBLE_GAP_ROLE_PERIPHERAL || CYBLE_GAP_ROLE_BROADCASTER)
1563:.\Generated_Source\PSoC4/BLE_eventHandler.c ****                     CyBle_ChangeAdDeviceAddress(&cyBle_deviceAddress, 0u);
 654              		.loc 1 1563 0
 655 00a0 8F4B     		ldr	r3, .L62+12
 656 00a2 181C     		mov	r0, r3
 657 00a4 0021     		mov	r1, #0
 658 00a6 FFF7FEFF 		bl	CyBle_ChangeAdDeviceAddress
ARM GAS  C:\Users\behrenb2\AppData\Local\Temp\ccNHrcVd.s 			page 40


1564:.\Generated_Source\PSoC4/BLE_eventHandler.c ****                     CyBle_ChangeAdDeviceAddress(&cyBle_deviceAddress, 1u);
 659              		.loc 1 1564 0
 660 00aa 8D4B     		ldr	r3, .L62+12
 661 00ac 181C     		mov	r0, r3
 662 00ae 0121     		mov	r1, #1
 663 00b0 FFF7FEFF 		bl	CyBle_ChangeAdDeviceAddress
 664              	.L49:
1565:.\Generated_Source\PSoC4/BLE_eventHandler.c ****                 #endif /* CYBLE_GAP_ROLE_PERIPHERAL || CYBLE_GAP_ROLE_BROADCASTER */    
1566:.\Generated_Source\PSoC4/BLE_eventHandler.c ****             }
1567:.\Generated_Source\PSoC4/BLE_eventHandler.c ****             /* Set device IO Capability  */
1568:.\Generated_Source\PSoC4/BLE_eventHandler.c ****             (void) CyBle_GapSetIoCap(CYBLE_IO_CAPABILITY);    
 665              		.loc 1 1568 0
 666 00b4 0320     		mov	r0, #3
 667 00b6 FFF7FEFF 		bl	CyBle_GapSetIoCap
 668              	.LBB4:
1569:.\Generated_Source\PSoC4/BLE_eventHandler.c ****             {
1570:.\Generated_Source\PSoC4/BLE_eventHandler.c ****                 /* Enable all 4.1 events and configured 4.2 events */
1571:.\Generated_Source\PSoC4/BLE_eventHandler.c ****                 uint8 leMask[CYBLE_LE_MASK_LENGTH] = {LO8(CYBLE_LE_MASK), HI8(CYBLE_LE_MASK)};
 669              		.loc 1 1571 0
 670 00ba 0823     		mov	r3, #8
 671 00bc FB18     		add	r3, r7, r3
 672 00be 3F22     		mov	r2, #63
 673 00c0 1A70     		strb	r2, [r3]
 674 00c2 0823     		mov	r3, #8
 675 00c4 FB18     		add	r3, r7, r3
 676 00c6 0022     		mov	r2, #0
 677 00c8 5A70     		strb	r2, [r3, #1]
1572:.\Generated_Source\PSoC4/BLE_eventHandler.c ****                 (void) CyBle_GapSetLeEventMask(leMask);
 678              		.loc 1 1572 0
 679 00ca 0823     		mov	r3, #8
 680 00cc FB18     		add	r3, r7, r3
 681 00ce 181C     		mov	r0, r3
 682 00d0 FFF7FEFF 		bl	CyBle_GapSetLeEventMask
 683              	.LBE4:
1573:.\Generated_Source\PSoC4/BLE_eventHandler.c ****             }
1574:.\Generated_Source\PSoC4/BLE_eventHandler.c ****         #if(CYBLE_DLE_FEATURE_ENABLED)
1575:.\Generated_Source\PSoC4/BLE_eventHandler.c ****         {
1576:.\Generated_Source\PSoC4/BLE_eventHandler.c ****             /* Set maximum suggested TX payload size */
1577:.\Generated_Source\PSoC4/BLE_eventHandler.c ****             uint16 payloadTime = CYBLE_LL_MAX_TX_TIME;
1578:.\Generated_Source\PSoC4/BLE_eventHandler.c ****             (void) CyBle_GapConvertOctetToTime(CYBLE_GAP_PHY_1MBPS, CYBLE_LL_MAX_TX_PAYLOAD_SIZE, &
1579:.\Generated_Source\PSoC4/BLE_eventHandler.c ****             (void) CyBle_GapSetSuggestedDataLength(CYBLE_LL_MAX_TX_PAYLOAD_SIZE, payloadTime); 
1580:.\Generated_Source\PSoC4/BLE_eventHandler.c ****         }
1581:.\Generated_Source\PSoC4/BLE_eventHandler.c ****         #endif /* CYBLE_DLE_FEATURE != 0u */
1582:.\Generated_Source\PSoC4/BLE_eventHandler.c ****         
1583:.\Generated_Source\PSoC4/BLE_eventHandler.c ****         #endif /* CYBLE_GATT_ROLE_SERVER || CYBLE_GATT_ROLE_CLIENT */
1584:.\Generated_Source\PSoC4/BLE_eventHandler.c ****             CyBle_SetState(CYBLE_STATE_DISCONNECTED);
 684              		.loc 1 1584 0
 685 00d4 834B     		ldr	r3, .L62+16
 686 00d6 0422     		mov	r2, #4
 687 00d8 1A70     		strb	r2, [r3]
1585:.\Generated_Source\PSoC4/BLE_eventHandler.c ****             break;
 688              		.loc 1 1585 0
 689 00da E0E0     		b	.L50
 690              	.L29:
1586:.\Generated_Source\PSoC4/BLE_eventHandler.c ****         case CYBLE_EVT_TIMEOUT:
1587:.\Generated_Source\PSoC4/BLE_eventHandler.c ****             CyBle_TimeOutEventHandler((CYBLE_TO_REASON_CODE_T *)eventParam);
 691              		.loc 1 1587 0
ARM GAS  C:\Users\behrenb2\AppData\Local\Temp\ccNHrcVd.s 			page 41


 692 00dc 3B68     		ldr	r3, [r7]
 693 00de 181C     		mov	r0, r3
 694 00e0 FFF7FEFF 		bl	CyBle_TimeOutEventHandler
1588:.\Generated_Source\PSoC4/BLE_eventHandler.c ****             break;
 695              		.loc 1 1588 0
 696 00e4 DBE0     		b	.L50
 697              	.L30:
1589:.\Generated_Source\PSoC4/BLE_eventHandler.c ****     	case CYBLE_EVT_STACK_BUSY_STATUS:
1590:.\Generated_Source\PSoC4/BLE_eventHandler.c ****             cyBle_busyStatus = *(uint8 *)eventParam;
 698              		.loc 1 1590 0
 699 00e6 3B68     		ldr	r3, [r7]
 700 00e8 1A78     		ldrb	r2, [r3]
 701 00ea 7F4B     		ldr	r3, .L62+20
 702 00ec 1A70     		strb	r2, [r3]
1591:.\Generated_Source\PSoC4/BLE_eventHandler.c ****             break;
 703              		.loc 1 1591 0
 704 00ee D6E0     		b	.L50
 705              	.L31:
 706              	.LBB5:
1592:.\Generated_Source\PSoC4/BLE_eventHandler.c ****     	case CYBLE_EVT_MEMORY_REQUEST:
1593:.\Generated_Source\PSoC4/BLE_eventHandler.c ****         #if(CYBLE_MODE_PROFILE)
1594:.\Generated_Source\PSoC4/BLE_eventHandler.c ****         {
1595:.\Generated_Source\PSoC4/BLE_eventHandler.c ****             CYBLE_MEMORY_REQUEST_T *memReq = (CYBLE_MEMORY_REQUEST_T *)eventParam;
 707              		.loc 1 1595 0
 708 00f0 3B68     		ldr	r3, [r7]
 709 00f2 3B61     		str	r3, [r7, #16]
1596:.\Generated_Source\PSoC4/BLE_eventHandler.c ****             if(memReq->request == CYBLE_PREPARED_WRITE_REQUEST)
 710              		.loc 1 1596 0
 711 00f4 3B69     		ldr	r3, [r7, #16]
 712 00f6 1B78     		ldrb	r3, [r3]
 713 00f8 002B     		cmp	r3, #0
 714 00fa 18D1     		bne	.L51
1597:.\Generated_Source\PSoC4/BLE_eventHandler.c ****             {  
1598:.\Generated_Source\PSoC4/BLE_eventHandler.c ****             #if(CYBLE_GATT_ENABLE_EXTERNAL_PREP_WRITE_BUFF == 0u)
1599:.\Generated_Source\PSoC4/BLE_eventHandler.c ****                 /* Stack requests to provide memory to process remote request */
1600:.\Generated_Source\PSoC4/BLE_eventHandler.c ****                 if(memReq->allocFree == CYBLE_ALLOC_MEMORY)
 715              		.loc 1 1600 0
 716 00fc 3B69     		ldr	r3, [r7, #16]
 717 00fe 5B78     		ldrb	r3, [r3, #1]
 718 0100 002B     		cmp	r3, #0
 719 0102 0BD1     		bne	.L52
 720              	.LBB6:
1601:.\Generated_Source\PSoC4/BLE_eventHandler.c ****                 {
1602:.\Generated_Source\PSoC4/BLE_eventHandler.c ****                     static CYBLE_PREPARE_WRITE_REQUEST_MEMORY_T gPrepWriteReqMem;
1603:.\Generated_Source\PSoC4/BLE_eventHandler.c ****                     
1604:.\Generated_Source\PSoC4/BLE_eventHandler.c ****                     /* Configure and return statically allocated buffer at the end of cyBle_stackMe
1605:.\Generated_Source\PSoC4/BLE_eventHandler.c ****                     gPrepWriteReqMem.prepareWriteQueueSize = CYBLE_GATT_MAX_PREPARE_BUFF_COUNT;
 721              		.loc 1 1605 0
 722 0104 794B     		ldr	r3, .L62+24
 723 0106 0222     		mov	r2, #2
 724 0108 DA80     		strh	r2, [r3, #6]
1606:.\Generated_Source\PSoC4/BLE_eventHandler.c ****                     gPrepWriteReqMem.totalAttrValueLength = CYBLE_GATT_PREPARE_LENGTH_ALIGN;
 725              		.loc 1 1606 0
 726 010a 784B     		ldr	r3, .L62+24
 727 010c 1822     		mov	r2, #24
 728 010e 9A80     		strh	r2, [r3, #4]
1607:.\Generated_Source\PSoC4/BLE_eventHandler.c ****                     gPrepWriteReqMem.queueBuffer = &cyBle_stackMemoryRam[CYBLE_STACK_RAM_SIZE - 
ARM GAS  C:\Users\behrenb2\AppData\Local\Temp\ccNHrcVd.s 			page 42


 729              		.loc 1 1607 0
 730 0110 764B     		ldr	r3, .L62+24
 731 0112 774A     		ldr	r2, .L62+28
 732 0114 1A60     		str	r2, [r3]
1608:.\Generated_Source\PSoC4/BLE_eventHandler.c ****                                                                          CYBLE_GATT_PREPARE_WRITE_B
1609:.\Generated_Source\PSoC4/BLE_eventHandler.c ****                     memReq->configMemory = &gPrepWriteReqMem;  
 733              		.loc 1 1609 0
 734 0116 3B69     		ldr	r3, [r7, #16]
 735 0118 744A     		ldr	r2, .L62+24
 736 011a 5A60     		str	r2, [r3, #4]
 737              	.L52:
 738              	.LBE6:
1610:.\Generated_Source\PSoC4/BLE_eventHandler.c ****                 }                
1611:.\Generated_Source\PSoC4/BLE_eventHandler.c ****                 /* Clear CYBLE_CALLBACK flag not to provide handled event to application */
1612:.\Generated_Source\PSoC4/BLE_eventHandler.c ****                 cyBle_eventHandlerFlag &= (uint8)~CYBLE_CALLBACK;
 739              		.loc 1 1612 0
 740 011c 6D4B     		ldr	r3, .L62
 741 011e 1B78     		ldrb	r3, [r3]
 742 0120 DBB2     		uxtb	r3, r3
 743 0122 0122     		mov	r2, #1
 744 0124 9343     		bic	r3, r2
 745 0126 DAB2     		uxtb	r2, r3
 746 0128 6A4B     		ldr	r3, .L62
 747 012a 1A70     		strb	r2, [r3]
 748              	.LBE5:
1613:.\Generated_Source\PSoC4/BLE_eventHandler.c ****             #endif  /* CYBLE_GATT_ENABLE_EXTERNAL_PREP_WRITE_BUFF == 0u */
1614:.\Generated_Source\PSoC4/BLE_eventHandler.c ****             }
1615:.\Generated_Source\PSoC4/BLE_eventHandler.c ****         }
1616:.\Generated_Source\PSoC4/BLE_eventHandler.c ****         #endif /* CYBLE_MODE_PROFILE */
1617:.\Generated_Source\PSoC4/BLE_eventHandler.c ****             break;
 749              		.loc 1 1617 0
 750 012c B7E0     		b	.L50
 751              	.L51:
 752 012e B6E0     		b	.L50
 753              	.L32:
1618:.\Generated_Source\PSoC4/BLE_eventHandler.c ****         /**********************************************************
1619:.\Generated_Source\PSoC4/BLE_eventHandler.c ****         * GAP events
1620:.\Generated_Source\PSoC4/BLE_eventHandler.c ****         ************************************************************/
1621:.\Generated_Source\PSoC4/BLE_eventHandler.c ****         case CYBLE_EVT_GAP_AUTH_REQ:
1622:.\Generated_Source\PSoC4/BLE_eventHandler.c ****         #if(CYBLE_MODE_PROFILE)
1623:.\Generated_Source\PSoC4/BLE_eventHandler.c ****             if(0u == (cyBle_eventHandlerFlag & CYBLE_DISABLE_AUTOMATIC_AUTH))
 754              		.loc 1 1623 0
 755 0130 684B     		ldr	r3, .L62
 756 0132 1B78     		ldrb	r3, [r3]
 757 0134 DBB2     		uxtb	r3, r3
 758 0136 1A1C     		mov	r2, r3
 759 0138 2023     		mov	r3, #32
 760 013a 1340     		and	r3, r2
 761 013c 16D1     		bne	.L53
1624:.\Generated_Source\PSoC4/BLE_eventHandler.c ****             {
1625:.\Generated_Source\PSoC4/BLE_eventHandler.c ****                 /* If the responding device does not support pairing then the responding 
1626:.\Generated_Source\PSoC4/BLE_eventHandler.c ****                    device shall respond using the Pairing Failed message with the error 
1627:.\Generated_Source\PSoC4/BLE_eventHandler.c ****                    code "Pairing Not Supported" otherwise it responds with a Pairing 
1628:.\Generated_Source\PSoC4/BLE_eventHandler.c ****                    Response message.
1629:.\Generated_Source\PSoC4/BLE_eventHandler.c ****                 */
1630:.\Generated_Source\PSoC4/BLE_eventHandler.c ****                 if(cyBle_authInfo.security == (CYBLE_GAP_SEC_MODE_1 | CYBLE_GAP_SEC_LEVEL_1))
 762              		.loc 1 1630 0
ARM GAS  C:\Users\behrenb2\AppData\Local\Temp\ccNHrcVd.s 			page 43


 763 013e 6D4B     		ldr	r3, .L62+32
 764 0140 1B78     		ldrb	r3, [r3]
 765 0142 102B     		cmp	r3, #16
 766 0144 02D1     		bne	.L54
1631:.\Generated_Source\PSoC4/BLE_eventHandler.c ****                 {
1632:.\Generated_Source\PSoC4/BLE_eventHandler.c ****                     cyBle_authInfo.authErr = CYBLE_GAP_AUTH_ERROR_PAIRING_NOT_SUPPORTED;
 767              		.loc 1 1632 0
 768 0146 6B4B     		ldr	r3, .L62+32
 769 0148 0522     		mov	r2, #5
 770 014a DA70     		strb	r2, [r3, #3]
 771              	.L54:
1633:.\Generated_Source\PSoC4/BLE_eventHandler.c ****                 }    
1634:.\Generated_Source\PSoC4/BLE_eventHandler.c ****             #if(CYBLE_GAP_ROLE_PERIPHERAL)
1635:.\Generated_Source\PSoC4/BLE_eventHandler.c ****                 (void)CyBle_GappAuthReqReply(cyBle_connHandle.bdHandle, &cyBle_authInfo);
 772              		.loc 1 1635 0
 773 014c 6A4B     		ldr	r3, .L62+36
 774 014e 1A78     		ldrb	r2, [r3]
 775 0150 684B     		ldr	r3, .L62+32
 776 0152 101C     		mov	r0, r2
 777 0154 191C     		mov	r1, r3
 778 0156 FFF7FEFF 		bl	CyBle_GappAuthReqReply
1636:.\Generated_Source\PSoC4/BLE_eventHandler.c ****                 /* Setting callback flag again as CyBle_GappAuthReqReply() will generate
1637:.\Generated_Source\PSoC4/BLE_eventHandler.c ****                 * CYBLE_EVT_GAP_SMP_NEGOTIATED_AUTH_INFO event wich will clear the callback
1638:.\Generated_Source\PSoC4/BLE_eventHandler.c ****                 * flag.
1639:.\Generated_Source\PSoC4/BLE_eventHandler.c ****                 */
1640:.\Generated_Source\PSoC4/BLE_eventHandler.c ****                 cyBle_eventHandlerFlag |= CYBLE_CALLBACK;
 779              		.loc 1 1640 0
 780 015a 5E4B     		ldr	r3, .L62
 781 015c 1B78     		ldrb	r3, [r3]
 782 015e DBB2     		uxtb	r3, r3
 783 0160 0122     		mov	r2, #1
 784 0162 1343     		orr	r3, r2
 785 0164 DAB2     		uxtb	r2, r3
 786 0166 5B4B     		ldr	r3, .L62
 787 0168 1A70     		strb	r2, [r3]
1641:.\Generated_Source\PSoC4/BLE_eventHandler.c ****             #endif /* CYBLE_GAP_ROLE_PERIPHERAL */
1642:.\Generated_Source\PSoC4/BLE_eventHandler.c ****             #if (CYBLE_GAP_ROLE_CENTRAL)
1643:.\Generated_Source\PSoC4/BLE_eventHandler.c ****                 (void)CyBle_GapAuthReq(cyBle_connHandle.bdHandle, &cyBle_authInfo);
1644:.\Generated_Source\PSoC4/BLE_eventHandler.c ****             #endif /* CYBLE_GAP_ROLE_CENTRAL */
1645:.\Generated_Source\PSoC4/BLE_eventHandler.c ****             }
1646:.\Generated_Source\PSoC4/BLE_eventHandler.c ****         #endif /* CYBLE_MODE_PROFILE */
1647:.\Generated_Source\PSoC4/BLE_eventHandler.c ****             break;
 788              		.loc 1 1647 0
 789 016a 98E0     		b	.L50
 790              	.L53:
 791 016c 97E0     		b	.L50
 792              	.L37:
1648:.\Generated_Source\PSoC4/BLE_eventHandler.c ****         
1649:.\Generated_Source\PSoC4/BLE_eventHandler.c ****         case CYBLE_EVT_GAP_AUTH_COMPLETE:
1650:.\Generated_Source\PSoC4/BLE_eventHandler.c ****         #if((CYBLE_GAP_ROLE_PERIPHERAL || CYBLE_GAP_ROLE_CENTRAL) && (CYBLE_BONDING_REQUIREMENT == 
1651:.\Generated_Source\PSoC4/BLE_eventHandler.c ****             cyBle_peerBonding = ((CYBLE_GAP_AUTH_INFO_T *)eventParam)->bonding;
1652:.\Generated_Source\PSoC4/BLE_eventHandler.c ****         #endif  /* CYBLE_BONDING_REQUIREMENT == CYBLE_BONDING_YES */
1653:.\Generated_Source\PSoC4/BLE_eventHandler.c ****             break;
1654:.\Generated_Source\PSoC4/BLE_eventHandler.c ****         
1655:.\Generated_Source\PSoC4/BLE_eventHandler.c ****         case CYBLE_EVT_GAP_CONNECTION_UPDATE_COMPLETE:
1656:.\Generated_Source\PSoC4/BLE_eventHandler.c ****             CyBle_GapConnUpdateCompleteEventHandler((const CYBLE_GAP_CONN_PARAM_UPDATED_IN_CONTROLL
 793              		.loc 1 1656 0
ARM GAS  C:\Users\behrenb2\AppData\Local\Temp\ccNHrcVd.s 			page 44


 794 016e 3B68     		ldr	r3, [r7]
 795 0170 181C     		mov	r0, r3
 796 0172 FFF7FEFF 		bl	CyBle_GapConnUpdateCompleteEventHandler
1657:.\Generated_Source\PSoC4/BLE_eventHandler.c ****             break;
 797              		.loc 1 1657 0
 798 0176 92E0     		b	.L50
 799              	.L35:
1658:.\Generated_Source\PSoC4/BLE_eventHandler.c ****             
1659:.\Generated_Source\PSoC4/BLE_eventHandler.c ****     #if(CYBLE_LL_PRIVACY_FEATURE != 0u)        
1660:.\Generated_Source\PSoC4/BLE_eventHandler.c ****         case CYBLE_EVT_GAP_ENHANCE_CONN_COMPLETE:
1661:.\Generated_Source\PSoC4/BLE_eventHandler.c ****         {
1662:.\Generated_Source\PSoC4/BLE_eventHandler.c ****             CYBLE_GAP_CONN_PARAM_UPDATED_IN_CONTROLLER_T  connCParam;
1663:.\Generated_Source\PSoC4/BLE_eventHandler.c ****             CYBLE_GAP_ENHANCE_CONN_COMPLETE_T *connEnhanceParam;
1664:.\Generated_Source\PSoC4/BLE_eventHandler.c ****             
1665:.\Generated_Source\PSoC4/BLE_eventHandler.c ****             connEnhanceParam = (CYBLE_GAP_ENHANCE_CONN_COMPLETE_T *)eventParam;
1666:.\Generated_Source\PSoC4/BLE_eventHandler.c ****             connCParam.status = connEnhanceParam->status;
1667:.\Generated_Source\PSoC4/BLE_eventHandler.c ****             connCParam.connIntv = connEnhanceParam->connIntv;
1668:.\Generated_Source\PSoC4/BLE_eventHandler.c ****             connCParam.connLatency = connEnhanceParam->connLatency;
1669:.\Generated_Source\PSoC4/BLE_eventHandler.c ****             connCParam.supervisionTO = connEnhanceParam->supervisionTo;
1670:.\Generated_Source\PSoC4/BLE_eventHandler.c ****             CyBle_GapConnUpdateCompleteEventHandler((const CYBLE_GAP_CONN_PARAM_UPDATED_IN_CONTROLL
1671:.\Generated_Source\PSoC4/BLE_eventHandler.c ****             
1672:.\Generated_Source\PSoC4/BLE_eventHandler.c ****             #if(CYBLE_GAP_ROLE_CENTRAL)
1673:.\Generated_Source\PSoC4/BLE_eventHandler.c ****                 if(cyBle_connectingTimeout != 0u)
1674:.\Generated_Source\PSoC4/BLE_eventHandler.c ****                 {
1675:.\Generated_Source\PSoC4/BLE_eventHandler.c ****                    (void)CyBle_StopTimer();
1676:.\Generated_Source\PSoC4/BLE_eventHandler.c ****                 }
1677:.\Generated_Source\PSoC4/BLE_eventHandler.c ****             #endif /* CYBLE_GAP_ROLE_CENTRAL */
1678:.\Generated_Source\PSoC4/BLE_eventHandler.c ****             CyBle_SetState(CYBLE_STATE_CONNECTED);
1679:.\Generated_Source\PSoC4/BLE_eventHandler.c ****         }
1680:.\Generated_Source\PSoC4/BLE_eventHandler.c ****             break;
1681:.\Generated_Source\PSoC4/BLE_eventHandler.c ****     #endif /* CYBLE_LL_PRIVACY_FEATURE != 0u */      
1682:.\Generated_Source\PSoC4/BLE_eventHandler.c ****             
1683:.\Generated_Source\PSoC4/BLE_eventHandler.c ****         case CYBLE_EVT_GAP_DEVICE_CONNECTED:
1684:.\Generated_Source\PSoC4/BLE_eventHandler.c ****             CyBle_GapConnUpdateCompleteEventHandler((const CYBLE_GAP_CONN_PARAM_UPDATED_IN_CONTROLL
 800              		.loc 1 1684 0
 801 0178 3B68     		ldr	r3, [r7]
 802 017a 181C     		mov	r0, r3
 803 017c FFF7FEFF 		bl	CyBle_GapConnUpdateCompleteEventHandler
1685:.\Generated_Source\PSoC4/BLE_eventHandler.c ****             #if(CYBLE_GAP_ROLE_CENTRAL)
1686:.\Generated_Source\PSoC4/BLE_eventHandler.c ****                 if(cyBle_connectingTimeout != 0u)
1687:.\Generated_Source\PSoC4/BLE_eventHandler.c ****                 {
1688:.\Generated_Source\PSoC4/BLE_eventHandler.c ****                    (void)CyBle_StopTimer();
1689:.\Generated_Source\PSoC4/BLE_eventHandler.c ****                 }
1690:.\Generated_Source\PSoC4/BLE_eventHandler.c ****             #endif /* CYBLE_GAP_ROLE_CENTRAL */
1691:.\Generated_Source\PSoC4/BLE_eventHandler.c ****             CyBle_SetState(CYBLE_STATE_CONNECTED);
 804              		.loc 1 1691 0
 805 0180 584B     		ldr	r3, .L62+16
 806 0182 0222     		mov	r2, #2
 807 0184 1A70     		strb	r2, [r3]
1692:.\Generated_Source\PSoC4/BLE_eventHandler.c ****             break;
 808              		.loc 1 1692 0
 809 0186 8AE0     		b	.L50
 810              	.L36:
1693:.\Generated_Source\PSoC4/BLE_eventHandler.c **** 
1694:.\Generated_Source\PSoC4/BLE_eventHandler.c ****         case CYBLE_EVT_GAP_DEVICE_DISCONNECTED:
1695:.\Generated_Source\PSoC4/BLE_eventHandler.c ****             CyBle_SetState(CYBLE_STATE_DISCONNECTED);
 811              		.loc 1 1695 0
ARM GAS  C:\Users\behrenb2\AppData\Local\Temp\ccNHrcVd.s 			page 45


 812 0188 564B     		ldr	r3, .L62+16
 813 018a 0422     		mov	r2, #4
 814 018c 1A70     		strb	r2, [r3]
1696:.\Generated_Source\PSoC4/BLE_eventHandler.c ****             break;
 815              		.loc 1 1696 0
 816 018e 86E0     		b	.L50
 817              	.L34:
1697:.\Generated_Source\PSoC4/BLE_eventHandler.c ****         #if(CYBLE_GAP_ROLE_PERIPHERAL || CYBLE_GAP_ROLE_BROADCASTER)
1698:.\Generated_Source\PSoC4/BLE_eventHandler.c ****             
1699:.\Generated_Source\PSoC4/BLE_eventHandler.c ****         case CYBLE_EVT_GAPP_ADVERTISEMENT_START_STOP:
1700:.\Generated_Source\PSoC4/BLE_eventHandler.c ****             #ifdef CYBLE_CPS_SERVER
1701:.\Generated_Source\PSoC4/BLE_eventHandler.c ****                 #if(CYBLE_GAP_ROLE_BROADCASTER)
1702:.\Generated_Source\PSoC4/BLE_eventHandler.c ****                     CyBle_CpssAdvertisementStartStopEventHandler();
1703:.\Generated_Source\PSoC4/BLE_eventHandler.c ****                 #endif /* CYBLE_GAP_ROLE_BROADCASTER */
1704:.\Generated_Source\PSoC4/BLE_eventHandler.c ****             #endif /* CYBLE_CPS_SERVER */
1705:.\Generated_Source\PSoC4/BLE_eventHandler.c ****             
1706:.\Generated_Source\PSoC4/BLE_eventHandler.c ****             if((CYBLE_STATE_CONNECTED != CyBle_GetState()) && ((cyBle_eventHandlerFlag & CYBLE_CALL
 818              		.loc 1 1706 0
 819 0190 544B     		ldr	r3, .L62+16
 820 0192 1B78     		ldrb	r3, [r3]
 821 0194 022B     		cmp	r3, #2
 822 0196 40D0     		beq	.L55
 823              		.loc 1 1706 0 is_stmt 0 discriminator 1
 824 0198 4E4B     		ldr	r3, .L62
 825 019a 1B78     		ldrb	r3, [r3]
 826 019c DBB2     		uxtb	r3, r3
 827 019e 1A1C     		mov	r2, r3
 828 01a0 0123     		mov	r3, #1
 829 01a2 1340     		and	r3, r2
 830 01a4 39D0     		beq	.L55
1707:.\Generated_Source\PSoC4/BLE_eventHandler.c ****             {
1708:.\Generated_Source\PSoC4/BLE_eventHandler.c ****                 /* After CyBle_GappStartAdvertisement first event indicates that advertising has be
1709:.\Generated_Source\PSoC4/BLE_eventHandler.c ****                 if(0u != (cyBle_eventHandlerFlag & CYBLE_START_FLAG))
 831              		.loc 1 1709 0 is_stmt 1
 832 01a6 4B4B     		ldr	r3, .L62
 833 01a8 1B78     		ldrb	r3, [r3]
 834 01aa DBB2     		uxtb	r3, r3
 835 01ac 1A1C     		mov	r2, r3
 836 01ae 0423     		mov	r3, #4
 837 01b0 1340     		and	r3, r2
 838 01b2 0BD0     		beq	.L56
1710:.\Generated_Source\PSoC4/BLE_eventHandler.c ****                 {
1711:.\Generated_Source\PSoC4/BLE_eventHandler.c ****                     CyBle_SetState(CYBLE_STATE_ADVERTISING);
 839              		.loc 1 1711 0
 840 01b4 4B4B     		ldr	r3, .L62+16
 841 01b6 0322     		mov	r2, #3
 842 01b8 1A70     		strb	r2, [r3]
1712:.\Generated_Source\PSoC4/BLE_eventHandler.c ****                     cyBle_eventHandlerFlag &= (uint8)~CYBLE_START_FLAG;
 843              		.loc 1 1712 0
 844 01ba 464B     		ldr	r3, .L62
 845 01bc 1B78     		ldrb	r3, [r3]
 846 01be DBB2     		uxtb	r3, r3
 847 01c0 0422     		mov	r2, #4
 848 01c2 9343     		bic	r3, r2
 849 01c4 DAB2     		uxtb	r2, r3
 850 01c6 434B     		ldr	r3, .L62
 851 01c8 1A70     		strb	r2, [r3]
ARM GAS  C:\Users\behrenb2\AppData\Local\Temp\ccNHrcVd.s 			page 46


 852 01ca 26E0     		b	.L55
 853              	.L56:
1713:.\Generated_Source\PSoC4/BLE_eventHandler.c ****                 }
1714:.\Generated_Source\PSoC4/BLE_eventHandler.c ****                 /* When application initiated stop advertisement */
1715:.\Generated_Source\PSoC4/BLE_eventHandler.c ****                 else if(0u != (cyBle_eventHandlerFlag & CYBLE_STOP_FLAG))
 854              		.loc 1 1715 0
 855 01cc 414B     		ldr	r3, .L62
 856 01ce 1B78     		ldrb	r3, [r3]
 857 01d0 DBB2     		uxtb	r3, r3
 858 01d2 1A1C     		mov	r2, r3
 859 01d4 0823     		mov	r3, #8
 860 01d6 1340     		and	r3, r2
 861 01d8 0BD0     		beq	.L57
1716:.\Generated_Source\PSoC4/BLE_eventHandler.c ****                 {
1717:.\Generated_Source\PSoC4/BLE_eventHandler.c ****                     CyBle_SetState(CYBLE_STATE_DISCONNECTED);  
 862              		.loc 1 1717 0
 863 01da 424B     		ldr	r3, .L62+16
 864 01dc 0422     		mov	r2, #4
 865 01de 1A70     		strb	r2, [r3]
1718:.\Generated_Source\PSoC4/BLE_eventHandler.c ****                     cyBle_eventHandlerFlag &= (uint8)~CYBLE_STOP_FLAG;
 866              		.loc 1 1718 0
 867 01e0 3C4B     		ldr	r3, .L62
 868 01e2 1B78     		ldrb	r3, [r3]
 869 01e4 DBB2     		uxtb	r3, r3
 870 01e6 0822     		mov	r2, #8
 871 01e8 9343     		bic	r3, r2
 872 01ea DAB2     		uxtb	r2, r3
 873 01ec 394B     		ldr	r3, .L62
 874 01ee 1A70     		strb	r2, [r3]
 875 01f0 13E0     		b	.L55
 876              	.L57:
1719:.\Generated_Source\PSoC4/BLE_eventHandler.c ****                 }
1720:.\Generated_Source\PSoC4/BLE_eventHandler.c ****                 else /* Following event indicates that advertising has been stopped */
1721:.\Generated_Source\PSoC4/BLE_eventHandler.c ****                 {
1722:.\Generated_Source\PSoC4/BLE_eventHandler.c ****                     if(CYBLE_STATE_ADVERTISING == CyBle_GetState())
 877              		.loc 1 1722 0
 878 01f2 3C4B     		ldr	r3, .L62+16
 879 01f4 1B78     		ldrb	r3, [r3]
 880 01f6 032B     		cmp	r3, #3
 881 01f8 0FD1     		bne	.L55
1723:.\Generated_Source\PSoC4/BLE_eventHandler.c ****                     {
1724:.\Generated_Source\PSoC4/BLE_eventHandler.c ****                         CyBle_SetState(CYBLE_STATE_DISCONNECTED);
 882              		.loc 1 1724 0
 883 01fa 3A4B     		ldr	r3, .L62+16
 884 01fc 0422     		mov	r2, #4
 885 01fe 1A70     		strb	r2, [r3]
1725:.\Generated_Source\PSoC4/BLE_eventHandler.c ****                     #if ((CYBLE_SLOW_ADV_ENABLED != 0u) && (CYBLE_FAST_ADV_TIMEOUT != 0u))
1726:.\Generated_Source\PSoC4/BLE_eventHandler.c ****                         if(cyBle_advertisingIntervalType == CYBLE_ADVERTISING_FAST)
 886              		.loc 1 1726 0
 887 0200 3E4B     		ldr	r3, .L62+40
 888 0202 1B78     		ldrb	r3, [r3]
 889 0204 002B     		cmp	r3, #0
 890 0206 08D1     		bne	.L55
1727:.\Generated_Source\PSoC4/BLE_eventHandler.c ****                         {
1728:.\Generated_Source\PSoC4/BLE_eventHandler.c ****                             /* When fast advertising time out occur: Start slow advertising */
1729:.\Generated_Source\PSoC4/BLE_eventHandler.c ****                             if(CYBLE_ERROR_OK == CyBle_GappStartAdvertisement(CYBLE_ADVERTISING_SLO
 891              		.loc 1 1729 0
ARM GAS  C:\Users\behrenb2\AppData\Local\Temp\ccNHrcVd.s 			page 47


 892 0208 0120     		mov	r0, #1
 893 020a FFF7FEFF 		bl	CyBle_GappStartAdvertisement
 894 020e 031E     		sub	r3, r0, #0
 895 0210 03D1     		bne	.L55
1730:.\Generated_Source\PSoC4/BLE_eventHandler.c ****                             {
1731:.\Generated_Source\PSoC4/BLE_eventHandler.c ****                                 CyBle_SetState(CYBLE_STATE_ADVERTISING);
 896              		.loc 1 1731 0
 897 0212 344B     		ldr	r3, .L62+16
 898 0214 0322     		mov	r2, #3
 899 0216 1A70     		strb	r2, [r3]
1732:.\Generated_Source\PSoC4/BLE_eventHandler.c ****                             }
1733:.\Generated_Source\PSoC4/BLE_eventHandler.c ****                         }
1734:.\Generated_Source\PSoC4/BLE_eventHandler.c ****                     #endif /* CYBLE_SLOW_ADV_ENABLED */
1735:.\Generated_Source\PSoC4/BLE_eventHandler.c ****                     }
1736:.\Generated_Source\PSoC4/BLE_eventHandler.c ****                 }
1737:.\Generated_Source\PSoC4/BLE_eventHandler.c ****             }
1738:.\Generated_Source\PSoC4/BLE_eventHandler.c ****             break;
 900              		.loc 1 1738 0
 901 0218 41E0     		b	.L50
 902              	.L55:
 903 021a 40E0     		b	.L50
 904              	.L47:
1739:.\Generated_Source\PSoC4/BLE_eventHandler.c ****         #endif /* CYBLE_GAP_ROLE_PERIPHERAL || CYBLE_GAP_ROLE_BROADCASTER */
1740:.\Generated_Source\PSoC4/BLE_eventHandler.c ****         
1741:.\Generated_Source\PSoC4/BLE_eventHandler.c ****         #if(CYBLE_GAP_ROLE_CENTRAL || CYBLE_GAP_ROLE_OBSERVER)    
1742:.\Generated_Source\PSoC4/BLE_eventHandler.c ****         case CYBLE_EVT_GAPC_SCAN_START_STOP:
1743:.\Generated_Source\PSoC4/BLE_eventHandler.c ****             #ifdef CYBLE_CPS_CLIENT
1744:.\Generated_Source\PSoC4/BLE_eventHandler.c ****                 CyBle_CpscScanStartStopEventHandler();
1745:.\Generated_Source\PSoC4/BLE_eventHandler.c ****             #endif /* CYBLE_CPS_CLIENT */
1746:.\Generated_Source\PSoC4/BLE_eventHandler.c ****             
1747:.\Generated_Source\PSoC4/BLE_eventHandler.c ****             if((CYBLE_STATE_CONNECTED != CyBle_GetState()) && ((cyBle_eventHandlerFlag & CYBLE_CALL
1748:.\Generated_Source\PSoC4/BLE_eventHandler.c ****             {
1749:.\Generated_Source\PSoC4/BLE_eventHandler.c ****                 /* After CyBle_GapcStartScan first event indicates that scanning has been started *
1750:.\Generated_Source\PSoC4/BLE_eventHandler.c ****                 if(0u != (cyBle_eventHandlerFlag & CYBLE_START_FLAG))
1751:.\Generated_Source\PSoC4/BLE_eventHandler.c ****                 {
1752:.\Generated_Source\PSoC4/BLE_eventHandler.c ****                     CyBle_SetState(CYBLE_STATE_SCANNING);
1753:.\Generated_Source\PSoC4/BLE_eventHandler.c ****                     cyBle_eventHandlerFlag &= (uint8)~CYBLE_START_FLAG;
1754:.\Generated_Source\PSoC4/BLE_eventHandler.c ****                 }
1755:.\Generated_Source\PSoC4/BLE_eventHandler.c ****                 /* When application initiated stop scanning */
1756:.\Generated_Source\PSoC4/BLE_eventHandler.c ****                 else if(0u != (cyBle_eventHandlerFlag & CYBLE_STOP_FLAG))
1757:.\Generated_Source\PSoC4/BLE_eventHandler.c ****                 {
1758:.\Generated_Source\PSoC4/BLE_eventHandler.c ****                     CyBle_SetState(CYBLE_STATE_DISCONNECTED);  
1759:.\Generated_Source\PSoC4/BLE_eventHandler.c ****                     cyBle_eventHandlerFlag &= (uint8)~CYBLE_STOP_FLAG;
1760:.\Generated_Source\PSoC4/BLE_eventHandler.c ****                 }
1761:.\Generated_Source\PSoC4/BLE_eventHandler.c ****                 else /* Following event indicates that scanning has been stopped by stack */
1762:.\Generated_Source\PSoC4/BLE_eventHandler.c ****                 {
1763:.\Generated_Source\PSoC4/BLE_eventHandler.c ****                     if(CYBLE_STATE_SCANNING == CyBle_GetState())
1764:.\Generated_Source\PSoC4/BLE_eventHandler.c ****                     {
1765:.\Generated_Source\PSoC4/BLE_eventHandler.c ****                         CyBle_SetState(CYBLE_STATE_DISCONNECTED);  
1766:.\Generated_Source\PSoC4/BLE_eventHandler.c ****                     #if ((CYBLE_SLOW_SCAN_ENABLED != 0u) && (CYBLE_FAST_SCAN_TIMEOUT != 0u))
1767:.\Generated_Source\PSoC4/BLE_eventHandler.c ****                         if(cyBle_scanningIntervalType == CYBLE_SCANNING_FAST)
1768:.\Generated_Source\PSoC4/BLE_eventHandler.c ****                         {
1769:.\Generated_Source\PSoC4/BLE_eventHandler.c ****                             /* When fast scanning time out occur: Start slow scanning */
1770:.\Generated_Source\PSoC4/BLE_eventHandler.c ****                             if(CYBLE_ERROR_OK == CyBle_GapcStartScan(CYBLE_SCANNING_SLOW))
1771:.\Generated_Source\PSoC4/BLE_eventHandler.c ****                             {
1772:.\Generated_Source\PSoC4/BLE_eventHandler.c ****                                 CyBle_SetState(CYBLE_STATE_SCANNING);
1773:.\Generated_Source\PSoC4/BLE_eventHandler.c ****                             }
ARM GAS  C:\Users\behrenb2\AppData\Local\Temp\ccNHrcVd.s 			page 48


1774:.\Generated_Source\PSoC4/BLE_eventHandler.c ****                         }
1775:.\Generated_Source\PSoC4/BLE_eventHandler.c ****                     #endif /* CYBLE_SLOW_SCAN_ENABLED */
1776:.\Generated_Source\PSoC4/BLE_eventHandler.c ****                     }
1777:.\Generated_Source\PSoC4/BLE_eventHandler.c ****                 }
1778:.\Generated_Source\PSoC4/BLE_eventHandler.c ****             }
1779:.\Generated_Source\PSoC4/BLE_eventHandler.c ****             break;
1780:.\Generated_Source\PSoC4/BLE_eventHandler.c ****         #endif /* CYBLE_GAP_ROLE_CENTRAL || CYBLE_GAP_ROLE_OBSERVER */
1781:.\Generated_Source\PSoC4/BLE_eventHandler.c **** 
1782:.\Generated_Source\PSoC4/BLE_eventHandler.c ****         /**********************************************************
1783:.\Generated_Source\PSoC4/BLE_eventHandler.c ****         * L2AP events 
1784:.\Generated_Source\PSoC4/BLE_eventHandler.c ****         ************************************************************/
1785:.\Generated_Source\PSoC4/BLE_eventHandler.c ****         case CYBLE_EVT_L2CAP_CONN_PARAM_UPDATE_RSP:
1786:.\Generated_Source\PSoC4/BLE_eventHandler.c ****             CyBle_L2Cap_ConnParamUpdateRspEventHandler(*(uint16 *)eventParam);
 905              		.loc 1 1786 0
 906 021c 3B68     		ldr	r3, [r7]
 907 021e 1B88     		ldrh	r3, [r3]
 908 0220 181C     		mov	r0, r3
 909 0222 FFF7FEFF 		bl	CyBle_L2Cap_ConnParamUpdateRspEventHandler
1787:.\Generated_Source\PSoC4/BLE_eventHandler.c ****             break;
 910              		.loc 1 1787 0
 911 0226 3AE0     		b	.L50
 912              	.L38:
1788:.\Generated_Source\PSoC4/BLE_eventHandler.c ****         
1789:.\Generated_Source\PSoC4/BLE_eventHandler.c ****         /**********************************************************
1790:.\Generated_Source\PSoC4/BLE_eventHandler.c ****         * GATT events
1791:.\Generated_Source\PSoC4/BLE_eventHandler.c ****         ************************************************************/        
1792:.\Generated_Source\PSoC4/BLE_eventHandler.c ****         case CYBLE_EVT_GATT_CONNECT_IND:
1793:.\Generated_Source\PSoC4/BLE_eventHandler.c ****             cyBle_connHandle = *(CYBLE_CONN_HANDLE_T *)eventParam;
 913              		.loc 1 1793 0
 914 0228 334A     		ldr	r2, .L62+36
 915 022a 3B68     		ldr	r3, [r7]
 916 022c 111C     		mov	r1, r2
 917 022e 1A1C     		mov	r2, r3
 918 0230 0223     		mov	r3, #2
 919 0232 081C     		mov	r0, r1
 920 0234 111C     		mov	r1, r2
 921 0236 1A1C     		mov	r2, r3
 922 0238 FFF7FEFF 		bl	memcpy
1794:.\Generated_Source\PSoC4/BLE_eventHandler.c ****             cyBle_busyStatus = CYBLE_STACK_STATE_FREE;
 923              		.loc 1 1794 0
 924 023c 2A4B     		ldr	r3, .L62+20
 925 023e 0022     		mov	r2, #0
 926 0240 1A70     		strb	r2, [r3]
1795:.\Generated_Source\PSoC4/BLE_eventHandler.c ****             
1796:.\Generated_Source\PSoC4/BLE_eventHandler.c ****         #if((CYBLE_GATT_ROLE_SERVER) && (CYBLE_GATT_DB_CCCD_COUNT != 0u) && \
1797:.\Generated_Source\PSoC4/BLE_eventHandler.c ****             (CYBLE_BONDING_REQUIREMENT == CYBLE_BONDING_YES))
1798:.\Generated_Source\PSoC4/BLE_eventHandler.c ****             /* Init CCCD values in RAM when bonding is enabled */
1799:.\Generated_Source\PSoC4/BLE_eventHandler.c ****         	(void) memcpy (cyBle_attValuesCCCD, cyBle_flashStorage.attValuesCCCDFlashMemory[cyBle_conn
1800:.\Generated_Source\PSoC4/BLE_eventHandler.c ****                             CYBLE_GATT_DB_CCCD_COUNT);
1801:.\Generated_Source\PSoC4/BLE_eventHandler.c ****         #endif /* CYBLE_GATT_ROLE_SERVER && (CYBLE_BONDING_REQUIREMENT == CYBLE_BONDING_YES) */
1802:.\Generated_Source\PSoC4/BLE_eventHandler.c ****         
1803:.\Generated_Source\PSoC4/BLE_eventHandler.c ****         #if (CYBLE_GATT_ROLE_CLIENT)
1804:.\Generated_Source\PSoC4/BLE_eventHandler.c ****             CyBle_SetClientState(CYBLE_CLIENT_STATE_CONNECTED);
1805:.\Generated_Source\PSoC4/BLE_eventHandler.c ****         #endif /* CYBLE_GATT_ROLE_CLIENT */
1806:.\Generated_Source\PSoC4/BLE_eventHandler.c ****         
1807:.\Generated_Source\PSoC4/BLE_eventHandler.c ****             CyBle_GattConnectReqHandler();
 927              		.loc 1 1807 0
ARM GAS  C:\Users\behrenb2\AppData\Local\Temp\ccNHrcVd.s 			page 49


 928 0242 FFF7FEFF 		bl	CyBle_GattConnectReqHandler
1808:.\Generated_Source\PSoC4/BLE_eventHandler.c ****             break;
 929              		.loc 1 1808 0
 930 0246 2AE0     		b	.L50
 931              	.L39:
1809:.\Generated_Source\PSoC4/BLE_eventHandler.c **** 
1810:.\Generated_Source\PSoC4/BLE_eventHandler.c ****         case CYBLE_EVT_GATT_DISCONNECT_IND:
1811:.\Generated_Source\PSoC4/BLE_eventHandler.c ****             CyBle_GattDisconnectEventHandler();
 932              		.loc 1 1811 0
 933 0248 FFF7FEFF 		bl	CyBle_GattDisconnectEventHandler
1812:.\Generated_Source\PSoC4/BLE_eventHandler.c ****             break;
 934              		.loc 1 1812 0
 935 024c 27E0     		b	.L50
 936              	.L40:
 937              	.LBB7:
1813:.\Generated_Source\PSoC4/BLE_eventHandler.c **** 
1814:.\Generated_Source\PSoC4/BLE_eventHandler.c ****     #if((CYBLE_GATT_ROLE_SERVER) || (CYBLE_GATT_ROLE_CLIENT))
1815:.\Generated_Source\PSoC4/BLE_eventHandler.c ****         case CYBLE_EVT_GATTS_XCNHG_MTU_REQ:
1816:.\Generated_Source\PSoC4/BLE_eventHandler.c ****             {
1817:.\Generated_Source\PSoC4/BLE_eventHandler.c ****                 uint16 cyBle_mtuSize;
1818:.\Generated_Source\PSoC4/BLE_eventHandler.c ****                 if(CYBLE_GATT_MTU > ((CYBLE_GATT_XCHG_MTU_PARAM_T *)eventParam)->mtu)
 938              		.loc 1 1818 0
 939 024e 3B68     		ldr	r3, [r7]
 940 0250 5B88     		ldrh	r3, [r3, #2]
 941 0252 162B     		cmp	r3, #22
 942 0254 05D8     		bhi	.L58
1819:.\Generated_Source\PSoC4/BLE_eventHandler.c ****                 {
1820:.\Generated_Source\PSoC4/BLE_eventHandler.c ****                     cyBle_mtuSize = ((CYBLE_GATT_XCHG_MTU_PARAM_T *)eventParam)->mtu;
 943              		.loc 1 1820 0
 944 0256 1623     		mov	r3, #22
 945 0258 FB18     		add	r3, r7, r3
 946 025a 3A68     		ldr	r2, [r7]
 947 025c 5288     		ldrh	r2, [r2, #2]
 948 025e 1A80     		strh	r2, [r3]
 949 0260 03E0     		b	.L59
 950              	.L58:
1821:.\Generated_Source\PSoC4/BLE_eventHandler.c ****                 }
1822:.\Generated_Source\PSoC4/BLE_eventHandler.c ****                 else
1823:.\Generated_Source\PSoC4/BLE_eventHandler.c ****                 {
1824:.\Generated_Source\PSoC4/BLE_eventHandler.c ****                     cyBle_mtuSize = CYBLE_GATT_MTU;
 951              		.loc 1 1824 0
 952 0262 1623     		mov	r3, #22
 953 0264 FB18     		add	r3, r7, r3
 954 0266 1722     		mov	r2, #23
 955 0268 1A80     		strh	r2, [r3]
 956              	.L59:
1825:.\Generated_Source\PSoC4/BLE_eventHandler.c ****                 }
1826:.\Generated_Source\PSoC4/BLE_eventHandler.c ****                 (void)CyBle_GattsExchangeMtuRsp(((CYBLE_GATT_XCHG_MTU_PARAM_T *)eventParam)->connHa
 957              		.loc 1 1826 0
 958 026a 3B68     		ldr	r3, [r7]
 959 026c 1622     		mov	r2, #22
 960 026e BA18     		add	r2, r7, r2
 961 0270 1188     		ldrh	r1, [r2]
 962 0272 1A88     		ldrh	r2, [r3]
 963 0274 0023     		mov	r3, #0
 964 0276 1204     		lsl	r2, r2, #16
 965 0278 120C     		lsr	r2, r2, #16
ARM GAS  C:\Users\behrenb2\AppData\Local\Temp\ccNHrcVd.s 			page 50


 966 027a 1B0C     		lsr	r3, r3, #16
 967 027c 1B04     		lsl	r3, r3, #16
 968 027e 1343     		orr	r3, r2
 969 0280 181C     		mov	r0, r3
 970 0282 FFF7FEFF 		bl	CyBle_GattsExchangeMtuRsp
 971              	.LBE7:
1827:.\Generated_Source\PSoC4/BLE_eventHandler.c ****             }
1828:.\Generated_Source\PSoC4/BLE_eventHandler.c ****             break;
 972              		.loc 1 1828 0
 973 0286 0AE0     		b	.L50
 974              	.L41:
1829:.\Generated_Source\PSoC4/BLE_eventHandler.c ****     #endif /* CYBLE_GATT_ROLE_SERVER || CYBLE_GATT_ROLE_CLIENT */
1830:.\Generated_Source\PSoC4/BLE_eventHandler.c ****     
1831:.\Generated_Source\PSoC4/BLE_eventHandler.c ****     #if (CYBLE_GATT_ROLE_CLIENT)
1832:.\Generated_Source\PSoC4/BLE_eventHandler.c ****         case CYBLE_EVT_GAPC_SCAN_PROGRESS_RESULT:
1833:.\Generated_Source\PSoC4/BLE_eventHandler.c ****         #ifdef CYBLE_CPS_CLIENT
1834:.\Generated_Source\PSoC4/BLE_eventHandler.c ****             CyBle_CpscScanProcessEventHandler((CYBLE_GAPC_ADV_REPORT_T *)eventParam);
1835:.\Generated_Source\PSoC4/BLE_eventHandler.c ****         #endif /* CYBLE_CPS_CLIENT */
1836:.\Generated_Source\PSoC4/BLE_eventHandler.c ****             break;
1837:.\Generated_Source\PSoC4/BLE_eventHandler.c ****     #endif /* CYBLE_GATT_ROLE_CLIENT */
1838:.\Generated_Source\PSoC4/BLE_eventHandler.c **** 
1839:.\Generated_Source\PSoC4/BLE_eventHandler.c ****     #if(CYBLE_GATT_ROLE_SERVER)
1840:.\Generated_Source\PSoC4/BLE_eventHandler.c ****         case CYBLE_EVT_GATTS_WRITE_REQ:
1841:.\Generated_Source\PSoC4/BLE_eventHandler.c ****             CyBle_WriteReqHandler((CYBLE_GATTS_WRITE_REQ_PARAM_T *)eventParam);
 975              		.loc 1 1841 0
 976 0288 3B68     		ldr	r3, [r7]
 977 028a 181C     		mov	r0, r3
 978 028c FFF7FEFF 		bl	CyBle_WriteReqHandler
1842:.\Generated_Source\PSoC4/BLE_eventHandler.c ****             break;
 979              		.loc 1 1842 0
 980 0290 05E0     		b	.L50
 981              	.L45:
1843:.\Generated_Source\PSoC4/BLE_eventHandler.c **** 
1844:.\Generated_Source\PSoC4/BLE_eventHandler.c ****         case CYBLE_EVT_GATTS_WRITE_CMD_REQ:
1845:.\Generated_Source\PSoC4/BLE_eventHandler.c ****         #ifdef CYBLE_IAS_SERVER
1846:.\Generated_Source\PSoC4/BLE_eventHandler.c ****             if((cyBle_eventHandlerFlag & CYBLE_CALLBACK) != 0u)
1847:.\Generated_Source\PSoC4/BLE_eventHandler.c ****             {
1848:.\Generated_Source\PSoC4/BLE_eventHandler.c ****                 (void)CyBle_IassWriteCmdEventHandler((CYBLE_GATTS_WRITE_REQ_PARAM_T *)eventParam);
1849:.\Generated_Source\PSoC4/BLE_eventHandler.c ****             }
1850:.\Generated_Source\PSoC4/BLE_eventHandler.c ****         #endif /* CYBLE_IAS_SERVER */
1851:.\Generated_Source\PSoC4/BLE_eventHandler.c ****         #ifdef CYBLE_IPS_SERVER
1852:.\Generated_Source\PSoC4/BLE_eventHandler.c ****             if((cyBle_eventHandlerFlag & CYBLE_CALLBACK) != 0u)
1853:.\Generated_Source\PSoC4/BLE_eventHandler.c ****             {
1854:.\Generated_Source\PSoC4/BLE_eventHandler.c ****                 (void)CyBle_IpssWriteCmdEventHandler((CYBLE_GATTS_WRITE_REQ_PARAM_T *)eventParam);
1855:.\Generated_Source\PSoC4/BLE_eventHandler.c ****             }
1856:.\Generated_Source\PSoC4/BLE_eventHandler.c ****         #endif /* CYBLE_IPS_SERVER */
1857:.\Generated_Source\PSoC4/BLE_eventHandler.c ****         #ifdef CYBLE_HIDS_SERVER
1858:.\Generated_Source\PSoC4/BLE_eventHandler.c ****             if((cyBle_eventHandlerFlag & CYBLE_CALLBACK) != 0u)
1859:.\Generated_Source\PSoC4/BLE_eventHandler.c ****             {
1860:.\Generated_Source\PSoC4/BLE_eventHandler.c ****                 (void)CyBle_HidssWriteEventHandler((CYBLE_GATTS_WRITE_REQ_PARAM_T *)eventParam);
1861:.\Generated_Source\PSoC4/BLE_eventHandler.c ****             }
1862:.\Generated_Source\PSoC4/BLE_eventHandler.c ****         #endif /* CYBLE_HIDS_SERVER */
1863:.\Generated_Source\PSoC4/BLE_eventHandler.c ****         #ifdef CYBLE_PASS_SERVER
1864:.\Generated_Source\PSoC4/BLE_eventHandler.c ****             if((cyBle_eventHandlerFlag & CYBLE_CALLBACK) != 0u)
1865:.\Generated_Source\PSoC4/BLE_eventHandler.c ****             {
1866:.\Generated_Source\PSoC4/BLE_eventHandler.c ****                 (void)CyBle_PasssWriteCmdEventHandler((CYBLE_GATTS_WRITE_REQ_PARAM_T *)eventParam);
1867:.\Generated_Source\PSoC4/BLE_eventHandler.c ****             }
ARM GAS  C:\Users\behrenb2\AppData\Local\Temp\ccNHrcVd.s 			page 51


1868:.\Generated_Source\PSoC4/BLE_eventHandler.c ****         #endif /* CYBLE_PASS_SERVER */
1869:.\Generated_Source\PSoC4/BLE_eventHandler.c ****         #ifdef CYBLE_RTUS_SERVER
1870:.\Generated_Source\PSoC4/BLE_eventHandler.c ****             if((cyBle_eventHandlerFlag & CYBLE_CALLBACK) != 0u)
1871:.\Generated_Source\PSoC4/BLE_eventHandler.c ****             {
1872:.\Generated_Source\PSoC4/BLE_eventHandler.c ****                 (void)CyBle_RtussWriteCmdEventHandler((CYBLE_GATTS_WRITE_REQ_PARAM_T *)eventParam);
1873:.\Generated_Source\PSoC4/BLE_eventHandler.c ****             }
1874:.\Generated_Source\PSoC4/BLE_eventHandler.c ****         #endif /* CYBLE_RTUS_SERVER */
1875:.\Generated_Source\PSoC4/BLE_eventHandler.c ****         #ifdef CYBLE_SCPS_SERVER
1876:.\Generated_Source\PSoC4/BLE_eventHandler.c ****             if((cyBle_eventHandlerFlag & CYBLE_CALLBACK) != 0u)
1877:.\Generated_Source\PSoC4/BLE_eventHandler.c ****             {
1878:.\Generated_Source\PSoC4/BLE_eventHandler.c ****                 (void)CyBle_ScpssWriteEventHandler((CYBLE_GATTS_WRITE_REQ_PARAM_T *)eventParam);
1879:.\Generated_Source\PSoC4/BLE_eventHandler.c ****             }
1880:.\Generated_Source\PSoC4/BLE_eventHandler.c ****         #endif /* CYBLE_SCPS_SERVER */
1881:.\Generated_Source\PSoC4/BLE_eventHandler.c ****             break;
1882:.\Generated_Source\PSoC4/BLE_eventHandler.c ****         
1883:.\Generated_Source\PSoC4/BLE_eventHandler.c ****         case CYBLE_EVT_GATTS_PREP_WRITE_REQ:
1884:.\Generated_Source\PSoC4/BLE_eventHandler.c ****         #ifdef CYBLE_BMS_SERVER
1885:.\Generated_Source\PSoC4/BLE_eventHandler.c ****             CyBle_BmssPrepareWriteRequestEventHandler((CYBLE_GATTS_PREP_WRITE_REQ_PARAM_T *)eventPa
1886:.\Generated_Source\PSoC4/BLE_eventHandler.c ****         #endif /* CYBLE_BMS_SERVER */
1887:.\Generated_Source\PSoC4/BLE_eventHandler.c ****         #ifdef CYBLE_BTS_SERVER
1888:.\Generated_Source\PSoC4/BLE_eventHandler.c ****             if((cyBle_eventHandlerFlag & CYBLE_CALLBACK) != 0u)
1889:.\Generated_Source\PSoC4/BLE_eventHandler.c ****             {
1890:.\Generated_Source\PSoC4/BLE_eventHandler.c ****                 CyBle_BtssPrepareWriteRequestEventHandler((CYBLE_GATTS_PREP_WRITE_REQ_PARAM_T *)eve
1891:.\Generated_Source\PSoC4/BLE_eventHandler.c ****             }
1892:.\Generated_Source\PSoC4/BLE_eventHandler.c ****         #endif /* CYBLE_BTS_SERVER */
1893:.\Generated_Source\PSoC4/BLE_eventHandler.c ****         #ifdef CYBLE_ESS_SERVER
1894:.\Generated_Source\PSoC4/BLE_eventHandler.c ****             if((cyBle_eventHandlerFlag & CYBLE_CALLBACK) != 0u)
1895:.\Generated_Source\PSoC4/BLE_eventHandler.c ****             {
1896:.\Generated_Source\PSoC4/BLE_eventHandler.c ****                 CyBle_EsssPrepareWriteRequestEventHandler((CYBLE_GATTS_PREP_WRITE_REQ_PARAM_T *)eve
1897:.\Generated_Source\PSoC4/BLE_eventHandler.c ****             }
1898:.\Generated_Source\PSoC4/BLE_eventHandler.c ****         #endif /* CYBLE_ESS_SERVER */
1899:.\Generated_Source\PSoC4/BLE_eventHandler.c ****         #ifdef CYBLE_HPS_SERVER
1900:.\Generated_Source\PSoC4/BLE_eventHandler.c ****             if((cyBle_eventHandlerFlag & CYBLE_CALLBACK) != 0u)
1901:.\Generated_Source\PSoC4/BLE_eventHandler.c ****             {
1902:.\Generated_Source\PSoC4/BLE_eventHandler.c ****                 CyBle_HpssPrepareWriteRequestEventHandler((CYBLE_GATTS_PREP_WRITE_REQ_PARAM_T *)eve
1903:.\Generated_Source\PSoC4/BLE_eventHandler.c ****             }
1904:.\Generated_Source\PSoC4/BLE_eventHandler.c ****         #endif /* CYBLE_HPS_SERVER */
1905:.\Generated_Source\PSoC4/BLE_eventHandler.c ****         #ifdef CYBLE_IPS_SERVER
1906:.\Generated_Source\PSoC4/BLE_eventHandler.c ****             if((cyBle_eventHandlerFlag & CYBLE_CALLBACK) != 0u)
1907:.\Generated_Source\PSoC4/BLE_eventHandler.c ****             {
1908:.\Generated_Source\PSoC4/BLE_eventHandler.c ****                 CyBle_IpssPrepareWriteRequestEventHandler((CYBLE_GATTS_PREP_WRITE_REQ_PARAM_T *)eve
1909:.\Generated_Source\PSoC4/BLE_eventHandler.c ****             }
1910:.\Generated_Source\PSoC4/BLE_eventHandler.c ****         #endif /* CYBLE_IPS_SERVER */
1911:.\Generated_Source\PSoC4/BLE_eventHandler.c ****         #ifdef CYBLE_UDS_SERVER
1912:.\Generated_Source\PSoC4/BLE_eventHandler.c ****             if((cyBle_eventHandlerFlag & CYBLE_CALLBACK) != 0u)
1913:.\Generated_Source\PSoC4/BLE_eventHandler.c ****             {
1914:.\Generated_Source\PSoC4/BLE_eventHandler.c ****                 CyBle_UdssPrepareWriteRequestEventHandler((CYBLE_GATTS_PREP_WRITE_REQ_PARAM_T *)eve
1915:.\Generated_Source\PSoC4/BLE_eventHandler.c ****             }
1916:.\Generated_Source\PSoC4/BLE_eventHandler.c ****         #endif /* CYBLE_UDS_SERVER */
1917:.\Generated_Source\PSoC4/BLE_eventHandler.c ****             break;
1918:.\Generated_Source\PSoC4/BLE_eventHandler.c **** 
1919:.\Generated_Source\PSoC4/BLE_eventHandler.c ****         case CYBLE_EVT_GATTS_EXEC_WRITE_REQ:
1920:.\Generated_Source\PSoC4/BLE_eventHandler.c ****         #ifdef CYBLE_BMS_SERVER
1921:.\Generated_Source\PSoC4/BLE_eventHandler.c ****             CyBle_BmssExecuteWriteRequestEventHandler((CYBLE_GATTS_EXEC_WRITE_REQ_T *)eventParam);
1922:.\Generated_Source\PSoC4/BLE_eventHandler.c ****         #endif /* CYBLE_BMS_SERVER */
1923:.\Generated_Source\PSoC4/BLE_eventHandler.c ****         #ifdef CYBLE_BTS_SERVER
1924:.\Generated_Source\PSoC4/BLE_eventHandler.c ****             CyBle_BtssExecuteWriteRequestEventHandler((CYBLE_GATTS_EXEC_WRITE_REQ_T *)eventParam);
ARM GAS  C:\Users\behrenb2\AppData\Local\Temp\ccNHrcVd.s 			page 52


1925:.\Generated_Source\PSoC4/BLE_eventHandler.c ****         #endif /* CYBLE_BTS_SERVER */
1926:.\Generated_Source\PSoC4/BLE_eventHandler.c ****         #ifdef CYBLE_ESS_SERVER
1927:.\Generated_Source\PSoC4/BLE_eventHandler.c ****             CyBle_EsssExecuteWriteRequestEventHandler((CYBLE_GATTS_EXEC_WRITE_REQ_T *)eventParam);
1928:.\Generated_Source\PSoC4/BLE_eventHandler.c ****         #endif /* CYBLE_ESS_SERVER */
1929:.\Generated_Source\PSoC4/BLE_eventHandler.c ****         #ifdef CYBLE_HPS_SERVER
1930:.\Generated_Source\PSoC4/BLE_eventHandler.c ****             CyBle_HpssExecuteWriteRequestEventHandler((CYBLE_GATTS_EXEC_WRITE_REQ_T *)eventParam);
1931:.\Generated_Source\PSoC4/BLE_eventHandler.c ****         #endif /* CYBLE_HPS_SERVER */
1932:.\Generated_Source\PSoC4/BLE_eventHandler.c ****         #ifdef CYBLE_IPS_SERVER
1933:.\Generated_Source\PSoC4/BLE_eventHandler.c ****             CyBle_IpssExecuteWriteRequestEventHandler((CYBLE_GATTS_EXEC_WRITE_REQ_T *)eventParam);
1934:.\Generated_Source\PSoC4/BLE_eventHandler.c ****         #endif /* CYBLE_IPS_SERVER */
1935:.\Generated_Source\PSoC4/BLE_eventHandler.c **** 		#ifdef CYBLE_UDS_SERVER
1936:.\Generated_Source\PSoC4/BLE_eventHandler.c ****             CyBle_UdssExecuteWriteRequestEventHandler((CYBLE_GATTS_EXEC_WRITE_REQ_T *)eventParam);
1937:.\Generated_Source\PSoC4/BLE_eventHandler.c ****         #endif /* CYBLE_UDS_SERVER */
1938:.\Generated_Source\PSoC4/BLE_eventHandler.c ****             break;
1939:.\Generated_Source\PSoC4/BLE_eventHandler.c ****         
1940:.\Generated_Source\PSoC4/BLE_eventHandler.c ****         case CYBLE_EVT_GATTS_HANDLE_VALUE_CNF:
1941:.\Generated_Source\PSoC4/BLE_eventHandler.c ****             CyBle_ValueConfirmation((CYBLE_CONN_HANDLE_T *)eventParam);
 982              		.loc 1 1941 0
 983 0292 3B68     		ldr	r3, [r7]
 984 0294 181C     		mov	r0, r3
 985 0296 FFF7FEFF 		bl	CyBle_ValueConfirmation
1942:.\Generated_Source\PSoC4/BLE_eventHandler.c ****             break;
 986              		.loc 1 1942 0
 987 029a 00E0     		b	.L50
 988              	.L61:
1943:.\Generated_Source\PSoC4/BLE_eventHandler.c ****             
1944:.\Generated_Source\PSoC4/BLE_eventHandler.c ****         case CYBLE_EVT_GATTS_READ_CHAR_VAL_ACCESS_REQ:
1945:.\Generated_Source\PSoC4/BLE_eventHandler.c ****         #ifdef CYBLE_UDS_SERVER
1946:.\Generated_Source\PSoC4/BLE_eventHandler.c ****             CyBle_UdssReadRequestEventHandler((CYBLE_GATTS_CHAR_VAL_READ_REQ_T *)eventParam);
1947:.\Generated_Source\PSoC4/BLE_eventHandler.c ****         #endif /* CYBLE_UDS_SERVER */
1948:.\Generated_Source\PSoC4/BLE_eventHandler.c ****             break;
1949:.\Generated_Source\PSoC4/BLE_eventHandler.c ****             
1950:.\Generated_Source\PSoC4/BLE_eventHandler.c ****     #endif /* CYBLE_GATT_ROLE_SERVER */
1951:.\Generated_Source\PSoC4/BLE_eventHandler.c **** 
1952:.\Generated_Source\PSoC4/BLE_eventHandler.c ****     #if (CYBLE_GATT_ROLE_CLIENT)
1953:.\Generated_Source\PSoC4/BLE_eventHandler.c ****         
1954:.\Generated_Source\PSoC4/BLE_eventHandler.c ****         case CYBLE_EVT_GATTC_READ_BY_GROUP_TYPE_RSP:
1955:.\Generated_Source\PSoC4/BLE_eventHandler.c ****             CyBle_ReadByGroupEventHandler((CYBLE_GATTC_READ_BY_GRP_RSP_PARAM_T *)eventParam);
1956:.\Generated_Source\PSoC4/BLE_eventHandler.c ****             break;
1957:.\Generated_Source\PSoC4/BLE_eventHandler.c **** 
1958:.\Generated_Source\PSoC4/BLE_eventHandler.c ****         case CYBLE_EVT_GATTC_READ_BY_TYPE_RSP:
1959:.\Generated_Source\PSoC4/BLE_eventHandler.c ****             CyBle_ReadByTypeEventHandler((CYBLE_GATTC_READ_BY_TYPE_RSP_PARAM_T *)eventParam);
1960:.\Generated_Source\PSoC4/BLE_eventHandler.c ****             break;
1961:.\Generated_Source\PSoC4/BLE_eventHandler.c **** 
1962:.\Generated_Source\PSoC4/BLE_eventHandler.c ****         case CYBLE_EVT_GATTC_READ_BLOB_RSP:
1963:.\Generated_Source\PSoC4/BLE_eventHandler.c ****         #ifdef CYBLE_ESS_CLIENT
1964:.\Generated_Source\PSoC4/BLE_eventHandler.c ****             CyBle_EsscReadLongRespEventHandler((CYBLE_GATTC_READ_RSP_PARAM_T *)eventParam);
1965:.\Generated_Source\PSoC4/BLE_eventHandler.c ****         #endif /* CYBLE_ESS_CLIENT */
1966:.\Generated_Source\PSoC4/BLE_eventHandler.c ****         #ifdef CYBLE_HPS_CLIENT
1967:.\Generated_Source\PSoC4/BLE_eventHandler.c ****             CyBle_HpscReadLongRespEventHandler((CYBLE_GATTC_READ_RSP_PARAM_T *)eventParam);
1968:.\Generated_Source\PSoC4/BLE_eventHandler.c ****         #endif /* CYBLE_HPS_CLIENT */
1969:.\Generated_Source\PSoC4/BLE_eventHandler.c **** 		#ifdef CYBLE_IPS_CLIENT
1970:.\Generated_Source\PSoC4/BLE_eventHandler.c ****             CyBle_IpscReadLongRespEventHandler((CYBLE_GATTC_READ_RSP_PARAM_T *)eventParam);
1971:.\Generated_Source\PSoC4/BLE_eventHandler.c ****         #endif /* CYBLE_IPS_CLIENT */
1972:.\Generated_Source\PSoC4/BLE_eventHandler.c ****         #ifdef CYBLE_UDS_CLIENT
1973:.\Generated_Source\PSoC4/BLE_eventHandler.c ****             if((cyBle_eventHandlerFlag & CYBLE_CALLBACK) != 0u)
1974:.\Generated_Source\PSoC4/BLE_eventHandler.c ****             {
ARM GAS  C:\Users\behrenb2\AppData\Local\Temp\ccNHrcVd.s 			page 53


1975:.\Generated_Source\PSoC4/BLE_eventHandler.c ****                 CyBle_UdscReadLongRespEventHandler((CYBLE_GATTC_READ_RSP_PARAM_T *)eventParam);
1976:.\Generated_Source\PSoC4/BLE_eventHandler.c ****             }
1977:.\Generated_Source\PSoC4/BLE_eventHandler.c ****         #endif /* CYBLE_UDS_CLIENT */
1978:.\Generated_Source\PSoC4/BLE_eventHandler.c ****             break;
1979:.\Generated_Source\PSoC4/BLE_eventHandler.c ****         
1980:.\Generated_Source\PSoC4/BLE_eventHandler.c ****         case CYBLE_EVT_GATTC_LONG_PROCEDURE_END:
1981:.\Generated_Source\PSoC4/BLE_eventHandler.c ****             CyBle_LongProcedureEndEventHandler();
1982:.\Generated_Source\PSoC4/BLE_eventHandler.c ****             break;
1983:.\Generated_Source\PSoC4/BLE_eventHandler.c ****         
1984:.\Generated_Source\PSoC4/BLE_eventHandler.c ****         case CYBLE_EVT_GATTC_FIND_INFO_RSP:
1985:.\Generated_Source\PSoC4/BLE_eventHandler.c ****             CyBle_FindInfoEventHandler((CYBLE_GATTC_FIND_INFO_RSP_PARAM_T *)eventParam);
1986:.\Generated_Source\PSoC4/BLE_eventHandler.c ****             break;
1987:.\Generated_Source\PSoC4/BLE_eventHandler.c **** 
1988:.\Generated_Source\PSoC4/BLE_eventHandler.c ****         case CYBLE_EVT_GATTC_ERROR_RSP:
1989:.\Generated_Source\PSoC4/BLE_eventHandler.c ****             CyBle_ErrorResponseEventHandler((CYBLE_GATTC_ERR_RSP_PARAM_T *)eventParam);
1990:.\Generated_Source\PSoC4/BLE_eventHandler.c ****             break;
1991:.\Generated_Source\PSoC4/BLE_eventHandler.c **** 
1992:.\Generated_Source\PSoC4/BLE_eventHandler.c ****         case CYBLE_EVT_GATTC_HANDLE_VALUE_NTF:
1993:.\Generated_Source\PSoC4/BLE_eventHandler.c ****             CyBle_NotificationEventHandler((CYBLE_GATTC_HANDLE_VALUE_NTF_PARAM_T *)eventParam);
1994:.\Generated_Source\PSoC4/BLE_eventHandler.c ****             break;
1995:.\Generated_Source\PSoC4/BLE_eventHandler.c **** 
1996:.\Generated_Source\PSoC4/BLE_eventHandler.c ****         case CYBLE_EVT_GATTC_HANDLE_VALUE_IND:
1997:.\Generated_Source\PSoC4/BLE_eventHandler.c ****             CyBle_GattcIndicationEventHandler((CYBLE_GATTC_HANDLE_VALUE_IND_PARAM_T *)eventParam);
1998:.\Generated_Source\PSoC4/BLE_eventHandler.c ****             CyBle_IndicationEventHandler((CYBLE_GATTC_HANDLE_VALUE_IND_PARAM_T *)eventParam);
1999:.\Generated_Source\PSoC4/BLE_eventHandler.c ****         
2000:.\Generated_Source\PSoC4/BLE_eventHandler.c ****             /* Respond with a Handle Value Confirmation when request handled */
2001:.\Generated_Source\PSoC4/BLE_eventHandler.c ****             if((cyBle_eventHandlerFlag & CYBLE_CALLBACK) == 0u)
2002:.\Generated_Source\PSoC4/BLE_eventHandler.c ****             {
2003:.\Generated_Source\PSoC4/BLE_eventHandler.c ****                 (void)CyBle_GattcConfirmation(((CYBLE_GATTC_HANDLE_VALUE_IND_PARAM_T *)eventParam)-
2004:.\Generated_Source\PSoC4/BLE_eventHandler.c ****             }
2005:.\Generated_Source\PSoC4/BLE_eventHandler.c ****             break;
2006:.\Generated_Source\PSoC4/BLE_eventHandler.c ****         
2007:.\Generated_Source\PSoC4/BLE_eventHandler.c ****         case CYBLE_EVT_GATTC_READ_RSP:
2008:.\Generated_Source\PSoC4/BLE_eventHandler.c ****             CyBle_ReadResponseEventHandler((CYBLE_GATTC_READ_RSP_PARAM_T *)eventParam);
2009:.\Generated_Source\PSoC4/BLE_eventHandler.c ****             break;
2010:.\Generated_Source\PSoC4/BLE_eventHandler.c ****         
2011:.\Generated_Source\PSoC4/BLE_eventHandler.c ****         case CYBLE_EVT_GATTC_READ_MULTI_RSP:
2012:.\Generated_Source\PSoC4/BLE_eventHandler.c ****             CyBle_ReadMultipleResponseEventHandler((CYBLE_GATTC_READ_RSP_PARAM_T *)eventParam);
2013:.\Generated_Source\PSoC4/BLE_eventHandler.c ****             break;
2014:.\Generated_Source\PSoC4/BLE_eventHandler.c ****             
2015:.\Generated_Source\PSoC4/BLE_eventHandler.c ****         case CYBLE_EVT_GATTC_WRITE_RSP:
2016:.\Generated_Source\PSoC4/BLE_eventHandler.c ****             CyBle_GattcWriteResponseEventHandler((CYBLE_CONN_HANDLE_T *)eventParam);
2017:.\Generated_Source\PSoC4/BLE_eventHandler.c ****             break;
2018:.\Generated_Source\PSoC4/BLE_eventHandler.c ****             
2019:.\Generated_Source\PSoC4/BLE_eventHandler.c ****         case CYBLE_EVT_GATTC_EXEC_WRITE_RSP:
2020:.\Generated_Source\PSoC4/BLE_eventHandler.c ****         #ifdef CYBLE_BMS_CLIENT
2021:.\Generated_Source\PSoC4/BLE_eventHandler.c ****             CyBle_BmscExecuteWriteResponseEventHandler((CYBLE_GATTC_EXEC_WRITE_RSP_T *)eventParam);
2022:.\Generated_Source\PSoC4/BLE_eventHandler.c ****         #endif /* CYBLE_BMS_CLIENT */
2023:.\Generated_Source\PSoC4/BLE_eventHandler.c ****         #ifdef CYBLE_ESS_CLIENT
2024:.\Generated_Source\PSoC4/BLE_eventHandler.c ****             if((cyBle_eventHandlerFlag & CYBLE_CALLBACK) != 0u)
2025:.\Generated_Source\PSoC4/BLE_eventHandler.c ****             {
2026:.\Generated_Source\PSoC4/BLE_eventHandler.c ****                 CyBle_EsscExecuteWriteResponseEventHandler((CYBLE_GATTC_EXEC_WRITE_RSP_T *)eventPar
2027:.\Generated_Source\PSoC4/BLE_eventHandler.c ****             }
2028:.\Generated_Source\PSoC4/BLE_eventHandler.c ****         #endif /* CYBLE_ESS_CLIENT */
2029:.\Generated_Source\PSoC4/BLE_eventHandler.c ****         #ifdef CYBLE_HPS_CLIENT
2030:.\Generated_Source\PSoC4/BLE_eventHandler.c ****             if((cyBle_eventHandlerFlag & CYBLE_CALLBACK) != 0u)
2031:.\Generated_Source\PSoC4/BLE_eventHandler.c ****             {
ARM GAS  C:\Users\behrenb2\AppData\Local\Temp\ccNHrcVd.s 			page 54


2032:.\Generated_Source\PSoC4/BLE_eventHandler.c ****                 CyBle_HpscExecuteWriteResponseEventHandler((CYBLE_GATTC_EXEC_WRITE_RSP_T *)eventPar
2033:.\Generated_Source\PSoC4/BLE_eventHandler.c ****             }
2034:.\Generated_Source\PSoC4/BLE_eventHandler.c ****         #endif /* CYBLE_HPS_CLIENT */
2035:.\Generated_Source\PSoC4/BLE_eventHandler.c ****         #ifdef CYBLE_IPS_CLIENT
2036:.\Generated_Source\PSoC4/BLE_eventHandler.c ****             if((cyBle_eventHandlerFlag & CYBLE_CALLBACK) != 0u)
2037:.\Generated_Source\PSoC4/BLE_eventHandler.c ****             {
2038:.\Generated_Source\PSoC4/BLE_eventHandler.c ****                 CyBle_IpscExecuteWriteResponseEventHandler((CYBLE_GATTC_EXEC_WRITE_RSP_T *)eventPar
2039:.\Generated_Source\PSoC4/BLE_eventHandler.c ****             }
2040:.\Generated_Source\PSoC4/BLE_eventHandler.c ****         #endif /* CYBLE_IPS_CLIENT */
2041:.\Generated_Source\PSoC4/BLE_eventHandler.c ****         #ifdef CYBLE_UDS_CLIENT
2042:.\Generated_Source\PSoC4/BLE_eventHandler.c ****             if((cyBle_eventHandlerFlag & CYBLE_CALLBACK) != 0u)
2043:.\Generated_Source\PSoC4/BLE_eventHandler.c ****             {
2044:.\Generated_Source\PSoC4/BLE_eventHandler.c ****                 CyBle_UdscExecuteWriteResponseEventHandler((CYBLE_GATTC_EXEC_WRITE_RSP_T *)eventPar
2045:.\Generated_Source\PSoC4/BLE_eventHandler.c ****             }
2046:.\Generated_Source\PSoC4/BLE_eventHandler.c ****         #endif /* CYBLE_UDS_CLIENT */
2047:.\Generated_Source\PSoC4/BLE_eventHandler.c ****             break;
2048:.\Generated_Source\PSoC4/BLE_eventHandler.c ****             
2049:.\Generated_Source\PSoC4/BLE_eventHandler.c ****     #endif /* CYBLE_GATT_ROLE_CLIENT */
2050:.\Generated_Source\PSoC4/BLE_eventHandler.c **** 
2051:.\Generated_Source\PSoC4/BLE_eventHandler.c ****     #if((CYBLE_GAP_ROLE_PERIPHERAL || CYBLE_GAP_ROLE_CENTRAL) && (CYBLE_BONDING_REQUIREMENT == CYBL
2052:.\Generated_Source\PSoC4/BLE_eventHandler.c **** 
2053:.\Generated_Source\PSoC4/BLE_eventHandler.c ****         case CYBLE_EVT_PENDING_FLASH_WRITE:
2054:.\Generated_Source\PSoC4/BLE_eventHandler.c ****             cyBle_pendingFlashWrite |= CYBLE_PENDING_STACK_FLASH_WRITE_BIT;
2055:.\Generated_Source\PSoC4/BLE_eventHandler.c ****             break;
2056:.\Generated_Source\PSoC4/BLE_eventHandler.c ****         
2057:.\Generated_Source\PSoC4/BLE_eventHandler.c ****     #endif  /* (CYBLE_BONDING_REQUIREMENT == CYBLE_BONDING_YES) */
2058:.\Generated_Source\PSoC4/BLE_eventHandler.c ****     
2059:.\Generated_Source\PSoC4/BLE_eventHandler.c ****         default:
2060:.\Generated_Source\PSoC4/BLE_eventHandler.c ****             break;
 989              		.loc 1 2060 0
 990 029c C046     		mov	r8, r8
 991              	.L50:
2061:.\Generated_Source\PSoC4/BLE_eventHandler.c ****     }
2062:.\Generated_Source\PSoC4/BLE_eventHandler.c **** 
2063:.\Generated_Source\PSoC4/BLE_eventHandler.c ****     if(0u != (cyBle_eventHandlerFlag & (CYBLE_CALLBACK | CYBLE_ENABLE_ALL_EVENTS))) 
 992              		.loc 1 2063 0
 993 029e 0D4B     		ldr	r3, .L62
 994 02a0 1B78     		ldrb	r3, [r3]
 995 02a2 DBB2     		uxtb	r3, r3
 996 02a4 1A1C     		mov	r2, r3
 997 02a6 1123     		mov	r3, #17
 998 02a8 1340     		and	r3, r2
 999 02aa 0FD0     		beq	.L25
2064:.\Generated_Source\PSoC4/BLE_eventHandler.c ****     {
2065:.\Generated_Source\PSoC4/BLE_eventHandler.c ****         cyBle_eventHandlerFlag &= (uint8)~CYBLE_CALLBACK;
 1000              		.loc 1 2065 0
 1001 02ac 094B     		ldr	r3, .L62
 1002 02ae 1B78     		ldrb	r3, [r3]
 1003 02b0 DBB2     		uxtb	r3, r3
 1004 02b2 0122     		mov	r2, #1
 1005 02b4 9343     		bic	r3, r2
 1006 02b6 DAB2     		uxtb	r2, r3
 1007 02b8 064B     		ldr	r3, .L62
 1008 02ba 1A70     		strb	r2, [r3]
2066:.\Generated_Source\PSoC4/BLE_eventHandler.c ****         CyBle_ApplCallback((uint32)eventCode, eventParam);
 1009              		.loc 1 2066 0
 1010 02bc 104B     		ldr	r3, .L62+44
ARM GAS  C:\Users\behrenb2\AppData\Local\Temp\ccNHrcVd.s 			page 55


 1011 02be 1B68     		ldr	r3, [r3]
 1012 02c0 FA1D     		add	r2, r7, #7
 1013 02c2 1178     		ldrb	r1, [r2]
 1014 02c4 3A68     		ldr	r2, [r7]
 1015 02c6 081C     		mov	r0, r1
 1016 02c8 111C     		mov	r1, r2
 1017 02ca 9847     		blx	r3
 1018              	.L25:
2067:.\Generated_Source\PSoC4/BLE_eventHandler.c ****     }
2068:.\Generated_Source\PSoC4/BLE_eventHandler.c **** }
 1019              		.loc 1 2068 0
 1020 02cc BD46     		mov	sp, r7
 1021 02ce 06B0     		add	sp, sp, #24
 1022              		@ sp needed
 1023 02d0 80BD     		pop	{r7, pc}
 1024              	.L63:
 1025 02d2 C046     		.align	2
 1026              	.L62:
 1027 02d4 00000000 		.word	cyBle_eventHandlerFlag
 1028 02d8 00000000 		.word	.L28
 1029 02dc 00000000 		.word	cyBle_sflashDeviceAddress
 1030 02e0 00000000 		.word	cyBle_deviceAddress
 1031 02e4 00000000 		.word	cyBle_state
 1032 02e8 00000000 		.word	cyBle_busyStatus
 1033 02ec 00000000 		.word	gPrepWriteReqMem.6505
 1034 02f0 E00A0000 		.word	cyBle_stackMemoryRam+2784
 1035 02f4 00000000 		.word	cyBle_authInfo
 1036 02f8 00000000 		.word	cyBle_connHandle
 1037 02fc 00000000 		.word	cyBle_advertisingIntervalType
 1038 0300 00000000 		.word	CyBle_ApplCallback
 1039              		.cfi_endproc
 1040              	.LFE10:
 1041              		.size	CyBle_EventHandler, .-CyBle_EventHandler
 1042              		.bss
 1043              		.align	2
 1044              	gPrepWriteReqMem.6505:
 1045 0000 00000000 		.space	8
 1045      00000000 
 1046              		.text
 1047              	.Letext0:
 1048              		.file 2 ".\\Generated_Source\\PSoC4\\cytypes.h"
 1049              		.file 3 ".\\Generated_Source\\PSoC4\\BLE_Stack.h"
 1050              		.file 4 ".\\Generated_Source\\PSoC4\\BLE_StackHostMain.h"
 1051              		.file 5 ".\\Generated_Source\\PSoC4\\BLE_StackGap.h"
 1052              		.file 6 ".\\Generated_Source\\PSoC4\\BLE_StackGatt.h"
 1053              		.file 7 ".\\Generated_Source\\PSoC4\\BLE_StackGattServer.h"
 1054              		.file 8 ".\\Generated_Source\\PSoC4\\BLE.h"
 1055              		.file 9 ".\\Generated_Source\\PSoC4\\BLE_dis.h"
 1056              		.file 10 ".\\Generated_Source\\PSoC4\\BLE_hts.h"
 1057              		.file 11 ".\\Generated_Source\\PSoC4\\BLE_eventHandler.h"