ARM GAS  C:\Users\behrenb2\AppData\Local\Temp\ccNHrcVd.s 			page 1


   1              		.cpu cortex-m0
   2              		.fpu softvfp
   3              		.eabi_attribute 20, 1
   4              		.eabi_attribute 21, 1
   5              		.eabi_attribute 23, 3
   6              		.eabi_attribute 24, 1
   7              		.eabi_attribute 25, 1
   8              		.eabi_attribute 26, 1
   9              		.eabi_attribute 30, 6
  10              		.eabi_attribute 34, 0
  11              		.eabi_attribute 18, 4
  12              		.code	16
  13              		.file	"BLE_eventHandler.c"
  14              		.text
  15              	.Ltext0:
  16              		.cfi_sections	.debug_frame
  17              		.comm	cyBle_connHandle,2,4
  18              		.comm	cyBle_eventHandlerFlag,1,1
  19              		.comm	cyBle_busyStatus,1,1
  20              		.comm	cyBle_advertisingIntervalType,1,1
  21              		.global	cyBle_authInfo
  22              		.data
  23              		.align	2
  24              		.type	cyBle_authInfo, %object
  25              		.size	cyBle_authInfo, 5
  26              	cyBle_authInfo:
  27 0000 11       		.byte	17
  28 0001 00       		.byte	0
  29 0002 10       		.byte	16
  30 0003 00       		.byte	0
  31 0004 00       		.byte	0
  32 0005 000000   		.section	.text.CyBle_WriteReqHandler,"ax",%progbits
  33              		.align	2
  34              		.code	16
  35              		.thumb_func
  36              		.type	CyBle_WriteReqHandler, %function
  37              	CyBle_WriteReqHandler:
  38              	.LFB2:
  39              		.file 1 ".\\Generated_Source\\PSoC4\\BLE_eventHandler.c"
   1:.\Generated_Source\PSoC4/BLE_eventHandler.c **** /***************************************************************************//**
   2:.\Generated_Source\PSoC4/BLE_eventHandler.c **** * \file CYBLE_eventHandler.c
   3:.\Generated_Source\PSoC4/BLE_eventHandler.c **** * \version 3.10
   4:.\Generated_Source\PSoC4/BLE_eventHandler.c **** * 
   5:.\Generated_Source\PSoC4/BLE_eventHandler.c **** * \brief
   6:.\Generated_Source\PSoC4/BLE_eventHandler.c **** *  This file contains the source code for the Event Handler State Machine
   7:.\Generated_Source\PSoC4/BLE_eventHandler.c **** *  of the BLE Component.
   8:.\Generated_Source\PSoC4/BLE_eventHandler.c **** * 
   9:.\Generated_Source\PSoC4/BLE_eventHandler.c **** ********************************************************************************
  10:.\Generated_Source\PSoC4/BLE_eventHandler.c **** * \copyright
  11:.\Generated_Source\PSoC4/BLE_eventHandler.c **** * Copyright 2014-2016, Cypress Semiconductor Corporation.  All rights reserved.
  12:.\Generated_Source\PSoC4/BLE_eventHandler.c **** * You may use this file only in accordance with the license, terms, conditions,
  13:.\Generated_Source\PSoC4/BLE_eventHandler.c **** * disclaimers, and limitations in the end user license agreement accompanying
  14:.\Generated_Source\PSoC4/BLE_eventHandler.c **** * the software package with which this file was provided.
  15:.\Generated_Source\PSoC4/BLE_eventHandler.c **** *******************************************************************************/
  16:.\Generated_Source\PSoC4/BLE_eventHandler.c **** 
  17:.\Generated_Source\PSoC4/BLE_eventHandler.c **** #include "BLE_eventHandler.h"
  18:.\Generated_Source\PSoC4/BLE_eventHandler.c **** 
ARM GAS  C:\Users\behrenb2\AppData\Local\Temp\ccNHrcVd.s 			page 2


  19:.\Generated_Source\PSoC4/BLE_eventHandler.c **** 
  20:.\Generated_Source\PSoC4/BLE_eventHandler.c **** /***************************************
  21:.\Generated_Source\PSoC4/BLE_eventHandler.c **** * Private Function Prototypes
  22:.\Generated_Source\PSoC4/BLE_eventHandler.c **** ***************************************/
  23:.\Generated_Source\PSoC4/BLE_eventHandler.c **** 
  24:.\Generated_Source\PSoC4/BLE_eventHandler.c **** static void CyBle_GattDisconnectEventHandler(void);
  25:.\Generated_Source\PSoC4/BLE_eventHandler.c **** static void CyBle_TimeOutEventHandler(const CYBLE_TO_REASON_CODE_T *eventParam);
  26:.\Generated_Source\PSoC4/BLE_eventHandler.c **** static void CyBle_GattConnectReqHandler(void);
  27:.\Generated_Source\PSoC4/BLE_eventHandler.c **** static void CyBle_L2Cap_ConnParamUpdateRspEventHandler(uint16 response);
  28:.\Generated_Source\PSoC4/BLE_eventHandler.c **** static void CyBle_GapConnUpdateCompleteEventHandler(const CYBLE_GAP_CONN_PARAM_UPDATED_IN_CONTROLLE
  29:.\Generated_Source\PSoC4/BLE_eventHandler.c **** 
  30:.\Generated_Source\PSoC4/BLE_eventHandler.c **** 
  31:.\Generated_Source\PSoC4/BLE_eventHandler.c **** #if (CYBLE_GATT_ROLE_SERVER)
  32:.\Generated_Source\PSoC4/BLE_eventHandler.c **** 
  33:.\Generated_Source\PSoC4/BLE_eventHandler.c **** static void CyBle_WriteReqHandler(CYBLE_GATTS_WRITE_REQ_PARAM_T *eventParam);
  34:.\Generated_Source\PSoC4/BLE_eventHandler.c **** static void CyBle_ValueConfirmation(const CYBLE_CONN_HANDLE_T *eventParam);
  35:.\Generated_Source\PSoC4/BLE_eventHandler.c **** 
  36:.\Generated_Source\PSoC4/BLE_eventHandler.c **** #endif /* CYBLE_GATT_ROLE_SERVER */
  37:.\Generated_Source\PSoC4/BLE_eventHandler.c **** 
  38:.\Generated_Source\PSoC4/BLE_eventHandler.c **** #if (CYBLE_GATT_ROLE_CLIENT)
  39:.\Generated_Source\PSoC4/BLE_eventHandler.c **** 
  40:.\Generated_Source\PSoC4/BLE_eventHandler.c **** static void CyBle_GapcDiscoverCharacteristicsEventHandler(CYBLE_DISC_CHAR_INFO_T *discCharInfo);
  41:.\Generated_Source\PSoC4/BLE_eventHandler.c **** static CYBLE_GATT_ATTR_HANDLE_RANGE_T CyBle_GetCharRange(void);
  42:.\Generated_Source\PSoC4/BLE_eventHandler.c **** static void CyBle_GattcWriteResponseEventHandler(const CYBLE_CONN_HANDLE_T *eventParam);
  43:.\Generated_Source\PSoC4/BLE_eventHandler.c **** static void CyBle_NotificationEventHandler(CYBLE_GATTC_HANDLE_VALUE_NTF_PARAM_T *eventParam);
  44:.\Generated_Source\PSoC4/BLE_eventHandler.c **** static void CyBle_IndicationEventHandler(CYBLE_GATTC_HANDLE_VALUE_IND_PARAM_T *eventParam);
  45:.\Generated_Source\PSoC4/BLE_eventHandler.c **** static void CyBle_ReadResponseEventHandler(CYBLE_GATTC_READ_RSP_PARAM_T *eventParam);
  46:.\Generated_Source\PSoC4/BLE_eventHandler.c **** static void CyBle_ReadMultipleResponseEventHandler(CYBLE_GATTC_READ_RSP_PARAM_T *eventParam);
  47:.\Generated_Source\PSoC4/BLE_eventHandler.c **** 
  48:.\Generated_Source\PSoC4/BLE_eventHandler.c **** #endif /* CYBLE_GATT_ROLE_CLIENT */
  49:.\Generated_Source\PSoC4/BLE_eventHandler.c **** 
  50:.\Generated_Source\PSoC4/BLE_eventHandler.c **** 
  51:.\Generated_Source\PSoC4/BLE_eventHandler.c **** /***************************************
  52:.\Generated_Source\PSoC4/BLE_eventHandler.c **** * Global Variables
  53:.\Generated_Source\PSoC4/BLE_eventHandler.c **** ***************************************/
  54:.\Generated_Source\PSoC4/BLE_eventHandler.c **** 
  55:.\Generated_Source\PSoC4/BLE_eventHandler.c **** /* This global variable is initialized after connection with peer device, 
  56:.\Generated_Source\PSoC4/BLE_eventHandler.c ****    after CYBLE_EVT_GATT_CONNECT_IND event, and could be used by application code
  57:.\Generated_Source\PSoC4/BLE_eventHandler.c ****    to send data to peer device. 
  58:.\Generated_Source\PSoC4/BLE_eventHandler.c **** */
  59:.\Generated_Source\PSoC4/BLE_eventHandler.c **** CYBLE_CONN_HANDLE_T cyBle_connHandle;
  60:.\Generated_Source\PSoC4/BLE_eventHandler.c **** 
  61:.\Generated_Source\PSoC4/BLE_eventHandler.c **** volatile uint8 cyBle_eventHandlerFlag;
  62:.\Generated_Source\PSoC4/BLE_eventHandler.c **** volatile uint8 cyBle_busyStatus;
  63:.\Generated_Source\PSoC4/BLE_eventHandler.c **** 
  64:.\Generated_Source\PSoC4/BLE_eventHandler.c **** #if(CYBLE_GAP_ROLE_PERIPHERAL || CYBLE_GAP_ROLE_BROADCASTER) 
  65:.\Generated_Source\PSoC4/BLE_eventHandler.c ****     uint8 cyBle_advertisingIntervalType;
  66:.\Generated_Source\PSoC4/BLE_eventHandler.c **** #endif /* CYBLE_GAP_ROLE_PERIPHERAL || CYBLE_GAP_ROLE_BROADCASTER) */
  67:.\Generated_Source\PSoC4/BLE_eventHandler.c **** 
  68:.\Generated_Source\PSoC4/BLE_eventHandler.c **** #if(CYBLE_GAP_ROLE_CENTRAL || CYBLE_GAP_ROLE_OBSERVER) 
  69:.\Generated_Source\PSoC4/BLE_eventHandler.c ****     uint8 cyBle_scanningIntervalType;
  70:.\Generated_Source\PSoC4/BLE_eventHandler.c **** #endif /* CYBLE_GAP_ROLE_CENTRAL || CYBLE_GAP_ROLE_OBSERVER */
  71:.\Generated_Source\PSoC4/BLE_eventHandler.c **** 
  72:.\Generated_Source\PSoC4/BLE_eventHandler.c **** #if(CYBLE_GATT_ROLE_SERVER)
  73:.\Generated_Source\PSoC4/BLE_eventHandler.c **** #if defined CYBLE_CTS_SERVER || defined CYBLE_ESS_SERVER
  74:.\Generated_Source\PSoC4/BLE_eventHandler.c **** CYBLE_GATT_ERR_CODE_T cyBle_gattError;
  75:.\Generated_Source\PSoC4/BLE_eventHandler.c **** #endif /* defined CYBLE_CTS_SERVER || defined CYBLE_ESS_SERVER */
ARM GAS  C:\Users\behrenb2\AppData\Local\Temp\ccNHrcVd.s 			page 3


  76:.\Generated_Source\PSoC4/BLE_eventHandler.c **** #endif /* CYBLE_GATT_ROLE_SERVER */
  77:.\Generated_Source\PSoC4/BLE_eventHandler.c **** 
  78:.\Generated_Source\PSoC4/BLE_eventHandler.c **** #if(CYBLE_GATT_ROLE_CLIENT)
  79:.\Generated_Source\PSoC4/BLE_eventHandler.c **** uint8 cyBle_disCount; /* Counter for discovery procedures */
  80:.\Generated_Source\PSoC4/BLE_eventHandler.c **** 
  81:.\Generated_Source\PSoC4/BLE_eventHandler.c **** #ifdef CYBLE_CUSTOM_CLIENT
  82:.\Generated_Source\PSoC4/BLE_eventHandler.c **** /* Discovery included service information, used for 128-bit UUID read response handle 
  83:.\Generated_Source\PSoC4/BLE_eventHandler.c ****    and for continue discovery. 
  84:.\Generated_Source\PSoC4/BLE_eventHandler.c **** */
  85:.\Generated_Source\PSoC4/BLE_eventHandler.c **** static CYBLE_DISC_INCL_INFO_T cyBle_discInclInfo;
  86:.\Generated_Source\PSoC4/BLE_eventHandler.c **** #endif /* CYBLE_CUSTOM_CLIENT */
  87:.\Generated_Source\PSoC4/BLE_eventHandler.c **** 
  88:.\Generated_Source\PSoC4/BLE_eventHandler.c **** #ifdef CYBLE_HIDS_CLIENT
  89:.\Generated_Source\PSoC4/BLE_eventHandler.c ****     static uint8 disServiceIndex;      /* To discovery descriptors for multiple HID service instanc
  90:.\Generated_Source\PSoC4/BLE_eventHandler.c **** #endif /* CYBLE_HIDS_CLIENT */
  91:.\Generated_Source\PSoC4/BLE_eventHandler.c **** 
  92:.\Generated_Source\PSoC4/BLE_eventHandler.c **** CYBLE_DISC_SRVC_INFO_T cyBle_serverInfo[CYBLE_SRVI_COUNT] = /*5*/
  93:.\Generated_Source\PSoC4/BLE_eventHandler.c **** {
  94:.\Generated_Source\PSoC4/BLE_eventHandler.c ****     {{CYBLE_GATT_INVALID_ATTR_HANDLE_VALUE, CYBLE_GATT_INVALID_ATTR_HANDLE_VALUE}, CYBLE_UUID_GAP_S
  95:.\Generated_Source\PSoC4/BLE_eventHandler.c ****     {{CYBLE_GATT_INVALID_ATTR_HANDLE_VALUE, CYBLE_GATT_INVALID_ATTR_HANDLE_VALUE}, CYBLE_UUID_GATT_
  96:.\Generated_Source\PSoC4/BLE_eventHandler.c **** #ifdef CYBLE_ANCS_CLIENT
  97:.\Generated_Source\PSoC4/BLE_eventHandler.c ****     {{CYBLE_GATT_INVALID_ATTR_HANDLE_VALUE, CYBLE_GATT_INVALID_ATTR_HANDLE_VALUE}, 0x0000u},
  98:.\Generated_Source\PSoC4/BLE_eventHandler.c **** #endif /* CYBLE_ANCS_CLIENT */
  99:.\Generated_Source\PSoC4/BLE_eventHandler.c **** #ifdef CYBLE_ANS_CLIENT
 100:.\Generated_Source\PSoC4/BLE_eventHandler.c ****     {{CYBLE_GATT_INVALID_ATTR_HANDLE_VALUE, CYBLE_GATT_INVALID_ATTR_HANDLE_VALUE}, 
 101:.\Generated_Source\PSoC4/BLE_eventHandler.c ****         CYBLE_UUID_ALERT_NOTIFICATION_SERVICE},
 102:.\Generated_Source\PSoC4/BLE_eventHandler.c **** #endif /* CYBLE_ANS_CLIENT */
 103:.\Generated_Source\PSoC4/BLE_eventHandler.c **** #ifdef CYBLE_BAS_CLIENT
 104:.\Generated_Source\PSoC4/BLE_eventHandler.c ****     {{CYBLE_GATT_INVALID_ATTR_HANDLE_VALUE, CYBLE_GATT_INVALID_ATTR_HANDLE_VALUE}, CYBLE_UUID_BAS_S
 105:.\Generated_Source\PSoC4/BLE_eventHandler.c ****     #if(CYBLE_BASC_SERVICE_COUNT > 1u) /* Generate it by GUI */
 106:.\Generated_Source\PSoC4/BLE_eventHandler.c ****         
 107:.\Generated_Source\PSoC4/BLE_eventHandler.c ****     #endif /* CYBLE_BASC_SERVICE_COUNT > 1u */
 108:.\Generated_Source\PSoC4/BLE_eventHandler.c **** #endif /* CYBLE_BAS_CLIENT */
 109:.\Generated_Source\PSoC4/BLE_eventHandler.c **** #ifdef CYBLE_BCS_CLIENT
 110:.\Generated_Source\PSoC4/BLE_eventHandler.c ****     {{CYBLE_GATT_INVALID_ATTR_HANDLE_VALUE, CYBLE_GATT_INVALID_ATTR_HANDLE_VALUE}, CYBLE_UUID_BODY_
 111:.\Generated_Source\PSoC4/BLE_eventHandler.c **** #endif /* CYBLE_BCS_CLIENT */
 112:.\Generated_Source\PSoC4/BLE_eventHandler.c **** #ifdef CYBLE_BLS_CLIENT
 113:.\Generated_Source\PSoC4/BLE_eventHandler.c ****     {{CYBLE_GATT_INVALID_ATTR_HANDLE_VALUE, CYBLE_GATT_INVALID_ATTR_HANDLE_VALUE}, CYBLE_UUID_BLOOD
 114:.\Generated_Source\PSoC4/BLE_eventHandler.c **** #endif /* CYBLE_BLS_CLIENT */
 115:.\Generated_Source\PSoC4/BLE_eventHandler.c **** #ifdef CYBLE_BMS_CLIENT
 116:.\Generated_Source\PSoC4/BLE_eventHandler.c ****     {{CYBLE_GATT_INVALID_ATTR_HANDLE_VALUE, CYBLE_GATT_INVALID_ATTR_HANDLE_VALUE}, CYBLE_UUID_BOND_
 117:.\Generated_Source\PSoC4/BLE_eventHandler.c **** #endif /* CYBLE_BMS_CLIENT */
 118:.\Generated_Source\PSoC4/BLE_eventHandler.c **** #ifdef CYBLE_CGMS_CLIENT
 119:.\Generated_Source\PSoC4/BLE_eventHandler.c ****     {{CYBLE_GATT_INVALID_ATTR_HANDLE_VALUE, CYBLE_GATT_INVALID_ATTR_HANDLE_VALUE}, CYBLE_UUID_CGM_S
 120:.\Generated_Source\PSoC4/BLE_eventHandler.c **** #endif /* CYBLE_CGMS_CLIENT */
 121:.\Generated_Source\PSoC4/BLE_eventHandler.c **** #ifdef CYBLE_CPS_CLIENT
 122:.\Generated_Source\PSoC4/BLE_eventHandler.c ****     {{CYBLE_GATT_INVALID_ATTR_HANDLE_VALUE, CYBLE_GATT_INVALID_ATTR_HANDLE_VALUE}, CYBLE_UUID_CPS_S
 123:.\Generated_Source\PSoC4/BLE_eventHandler.c **** #endif /* CYBLE_CPS_CLIENT */
 124:.\Generated_Source\PSoC4/BLE_eventHandler.c **** #ifdef CYBLE_CSCS_CLIENT
 125:.\Generated_Source\PSoC4/BLE_eventHandler.c ****     {{CYBLE_GATT_INVALID_ATTR_HANDLE_VALUE, CYBLE_GATT_INVALID_ATTR_HANDLE_VALUE}, 
 126:.\Generated_Source\PSoC4/BLE_eventHandler.c ****         CYBLE_UUID_CYCLING_SPEED_AND_CADENCE_SERVICE},
 127:.\Generated_Source\PSoC4/BLE_eventHandler.c **** #endif /* CYBLE_CSCS_CLIENT */
 128:.\Generated_Source\PSoC4/BLE_eventHandler.c **** #ifdef CYBLE_CTS_CLIENT
 129:.\Generated_Source\PSoC4/BLE_eventHandler.c ****     {{CYBLE_GATT_INVALID_ATTR_HANDLE_VALUE, CYBLE_GATT_INVALID_ATTR_HANDLE_VALUE}, CYBLE_UUID_CURRE
 130:.\Generated_Source\PSoC4/BLE_eventHandler.c **** #endif /* CYBLE_CTS_CLIENT */
 131:.\Generated_Source\PSoC4/BLE_eventHandler.c **** #ifdef CYBLE_CUSTOM_CLIENT
 132:.\Generated_Source\PSoC4/BLE_eventHandler.c ****     
ARM GAS  C:\Users\behrenb2\AppData\Local\Temp\ccNHrcVd.s 			page 4


 133:.\Generated_Source\PSoC4/BLE_eventHandler.c **** #endif /* CYBLE_CUSTOM_CLIENT */
 134:.\Generated_Source\PSoC4/BLE_eventHandler.c **** #ifdef CYBLE_DIS_CLIENT
 135:.\Generated_Source\PSoC4/BLE_eventHandler.c ****     {{CYBLE_GATT_INVALID_ATTR_HANDLE_VALUE, CYBLE_GATT_INVALID_ATTR_HANDLE_VALUE}, CYBLE_UUID_DEVIC
 136:.\Generated_Source\PSoC4/BLE_eventHandler.c **** #endif /* CYBLE_DIS_CLIENT */
 137:.\Generated_Source\PSoC4/BLE_eventHandler.c **** #ifdef CYBLE_ESS_CLIENT
 138:.\Generated_Source\PSoC4/BLE_eventHandler.c ****     {{CYBLE_GATT_INVALID_ATTR_HANDLE_VALUE, CYBLE_GATT_INVALID_ATTR_HANDLE_VALUE}, 
 139:.\Generated_Source\PSoC4/BLE_eventHandler.c ****         CYBLE_UUID_ENVIRONMENTAL_SENSING_SERVICE},
 140:.\Generated_Source\PSoC4/BLE_eventHandler.c **** #endif /* CYBLE_ESS_CLIENT */
 141:.\Generated_Source\PSoC4/BLE_eventHandler.c **** #ifdef CYBLE_GLS_CLIENT
 142:.\Generated_Source\PSoC4/BLE_eventHandler.c ****     {{CYBLE_GATT_INVALID_ATTR_HANDLE_VALUE, CYBLE_GATT_INVALID_ATTR_HANDLE_VALUE}, CYBLE_UUID_GLUCO
 143:.\Generated_Source\PSoC4/BLE_eventHandler.c **** #endif /* CYBLE_GLS_CLIENT */
 144:.\Generated_Source\PSoC4/BLE_eventHandler.c **** #ifdef CYBLE_HIDS_CLIENT
 145:.\Generated_Source\PSoC4/BLE_eventHandler.c ****     {{CYBLE_GATT_INVALID_ATTR_HANDLE_VALUE, CYBLE_GATT_INVALID_ATTR_HANDLE_VALUE}, CYBLE_UUID_HIDS_
 146:.\Generated_Source\PSoC4/BLE_eventHandler.c ****     #if(CYBLE_HIDSC_SERVICE_COUNT > 1u) /* Generate it by GUI */
 147:.\Generated_Source\PSoC4/BLE_eventHandler.c ****         
 148:.\Generated_Source\PSoC4/BLE_eventHandler.c ****     #endif /* CYBLE_HIDSC_SERVICE_COUNT > 1u */
 149:.\Generated_Source\PSoC4/BLE_eventHandler.c **** #endif /* CYBLE_HIDS_CLIENT */
 150:.\Generated_Source\PSoC4/BLE_eventHandler.c **** #ifdef CYBLE_HPS_CLIENT
 151:.\Generated_Source\PSoC4/BLE_eventHandler.c ****     {{CYBLE_GATT_INVALID_ATTR_HANDLE_VALUE, CYBLE_GATT_INVALID_ATTR_HANDLE_VALUE}, CYBLE_UUID_HTTP_
 152:.\Generated_Source\PSoC4/BLE_eventHandler.c **** #endif /* CYBLE_HPS_CLIENT */
 153:.\Generated_Source\PSoC4/BLE_eventHandler.c **** #ifdef CYBLE_HRS_CLIENT
 154:.\Generated_Source\PSoC4/BLE_eventHandler.c ****     {{CYBLE_GATT_INVALID_ATTR_HANDLE_VALUE, CYBLE_GATT_INVALID_ATTR_HANDLE_VALUE}, CYBLE_UUID_HEART
 155:.\Generated_Source\PSoC4/BLE_eventHandler.c **** #endif /* CYBLE_HRS_CLIENT */
 156:.\Generated_Source\PSoC4/BLE_eventHandler.c **** #ifdef CYBLE_HTS_CLIENT
 157:.\Generated_Source\PSoC4/BLE_eventHandler.c ****     {{CYBLE_GATT_INVALID_ATTR_HANDLE_VALUE, CYBLE_GATT_INVALID_ATTR_HANDLE_VALUE}, CYBLE_UUID_HEALT
 158:.\Generated_Source\PSoC4/BLE_eventHandler.c **** #endif /* CYBLE_HTS_CLIENT */
 159:.\Generated_Source\PSoC4/BLE_eventHandler.c **** #ifdef CYBLE_IAS_CLIENT
 160:.\Generated_Source\PSoC4/BLE_eventHandler.c ****     {{CYBLE_GATT_INVALID_ATTR_HANDLE_VALUE, CYBLE_GATT_INVALID_ATTR_HANDLE_VALUE}, CYBLE_UUID_IMMED
 161:.\Generated_Source\PSoC4/BLE_eventHandler.c **** #endif /* CYBLE_IAS_CLIENT */
 162:.\Generated_Source\PSoC4/BLE_eventHandler.c **** #ifdef CYBLE_IPS_CLIENT
 163:.\Generated_Source\PSoC4/BLE_eventHandler.c ****     {{CYBLE_GATT_INVALID_ATTR_HANDLE_VALUE, CYBLE_GATT_INVALID_ATTR_HANDLE_VALUE}, CYBLE_UUID_IPS_S
 164:.\Generated_Source\PSoC4/BLE_eventHandler.c **** #endif /* CYBLE_IPS_CLIENT */
 165:.\Generated_Source\PSoC4/BLE_eventHandler.c **** #ifdef CYBLE_LLS_CLIENT
 166:.\Generated_Source\PSoC4/BLE_eventHandler.c ****     {{CYBLE_GATT_INVALID_ATTR_HANDLE_VALUE, CYBLE_GATT_INVALID_ATTR_HANDLE_VALUE}, CYBLE_UUID_LINK_
 167:.\Generated_Source\PSoC4/BLE_eventHandler.c **** #endif /* CYBLE_LLS_CLIENT */
 168:.\Generated_Source\PSoC4/BLE_eventHandler.c **** #ifdef CYBLE_LNS_CLIENT
 169:.\Generated_Source\PSoC4/BLE_eventHandler.c ****     {{CYBLE_GATT_INVALID_ATTR_HANDLE_VALUE, CYBLE_GATT_INVALID_ATTR_HANDLE_VALUE}, CYBLE_UUID_LOCAT
 170:.\Generated_Source\PSoC4/BLE_eventHandler.c **** #endif /* CYBLE_LNS_CLIENT */
 171:.\Generated_Source\PSoC4/BLE_eventHandler.c **** #ifdef CYBLE_NDCS_CLIENT
 172:.\Generated_Source\PSoC4/BLE_eventHandler.c ****     {{CYBLE_GATT_INVALID_ATTR_HANDLE_VALUE, CYBLE_GATT_INVALID_ATTR_HANDLE_VALUE}, CYBLE_UUID_NEXT_
 173:.\Generated_Source\PSoC4/BLE_eventHandler.c **** #endif /* CYBLE_NDCS_CLIENT */
 174:.\Generated_Source\PSoC4/BLE_eventHandler.c **** #ifdef CYBLE_IPSS_CLIENT
 175:.\Generated_Source\PSoC4/BLE_eventHandler.c ****     {{CYBLE_GATT_INVALID_ATTR_HANDLE_VALUE, CYBLE_GATT_INVALID_ATTR_HANDLE_VALUE}, CYBLE_UUID_INTER
 176:.\Generated_Source\PSoC4/BLE_eventHandler.c **** #endif /* CYBLE_IPSS_CLIENT */
 177:.\Generated_Source\PSoC4/BLE_eventHandler.c **** #ifdef CYBLE_PASS_CLIENT
 178:.\Generated_Source\PSoC4/BLE_eventHandler.c ****     {{CYBLE_GATT_INVALID_ATTR_HANDLE_VALUE, CYBLE_GATT_INVALID_ATTR_HANDLE_VALUE}, CYBLE_UUID_PHONE
 179:.\Generated_Source\PSoC4/BLE_eventHandler.c **** #endif /* CYBLE_PASS_CLIENT */
 180:.\Generated_Source\PSoC4/BLE_eventHandler.c **** #ifdef CYBLE_RSCS_CLIENT
 181:.\Generated_Source\PSoC4/BLE_eventHandler.c ****     {{CYBLE_GATT_INVALID_ATTR_HANDLE_VALUE, CYBLE_GATT_INVALID_ATTR_HANDLE_VALUE}, CYBLE_UUID_RUNNI
 182:.\Generated_Source\PSoC4/BLE_eventHandler.c **** #endif /* CYBLE_RSCS_CLIENT */
 183:.\Generated_Source\PSoC4/BLE_eventHandler.c **** #ifdef CYBLE_RTUS_CLIENT
 184:.\Generated_Source\PSoC4/BLE_eventHandler.c ****     {{CYBLE_GATT_INVALID_ATTR_HANDLE_VALUE, CYBLE_GATT_INVALID_ATTR_HANDLE_VALUE}, CYBLE_UUID_REF_T
 185:.\Generated_Source\PSoC4/BLE_eventHandler.c **** #endif /* CYBLE_RTUS_CLIENT */
 186:.\Generated_Source\PSoC4/BLE_eventHandler.c **** #ifdef CYBLE_SCPS_CLIENT
 187:.\Generated_Source\PSoC4/BLE_eventHandler.c ****     {{CYBLE_GATT_INVALID_ATTR_HANDLE_VALUE, CYBLE_GATT_INVALID_ATTR_HANDLE_VALUE}, CYBLE_UUID_SCAN_
 188:.\Generated_Source\PSoC4/BLE_eventHandler.c **** #endif /* CYBLE_SCPS_CLIENT */
 189:.\Generated_Source\PSoC4/BLE_eventHandler.c **** #ifdef CYBLE_TPS_CLIENT
ARM GAS  C:\Users\behrenb2\AppData\Local\Temp\ccNHrcVd.s 			page 5


 190:.\Generated_Source\PSoC4/BLE_eventHandler.c ****     {{CYBLE_GATT_INVALID_ATTR_HANDLE_VALUE, CYBLE_GATT_INVALID_ATTR_HANDLE_VALUE}, CYBLE_UUID_TX_PO
 191:.\Generated_Source\PSoC4/BLE_eventHandler.c **** #endif /* CYBLE_TPS_CLIENT */
 192:.\Generated_Source\PSoC4/BLE_eventHandler.c **** #ifdef CYBLE_UDS_CLIENT
 193:.\Generated_Source\PSoC4/BLE_eventHandler.c ****     {{CYBLE_GATT_INVALID_ATTR_HANDLE_VALUE, CYBLE_GATT_INVALID_ATTR_HANDLE_VALUE}, CYBLE_UUID_USER_
 194:.\Generated_Source\PSoC4/BLE_eventHandler.c **** #endif /* CYBLE_UDS_CLIENT */
 195:.\Generated_Source\PSoC4/BLE_eventHandler.c **** #ifdef CYBLE_WSS_CLIENT
 196:.\Generated_Source\PSoC4/BLE_eventHandler.c ****     {{CYBLE_GATT_INVALID_ATTR_HANDLE_VALUE, CYBLE_GATT_INVALID_ATTR_HANDLE_VALUE}, CYBLE_UUID_WEIGH
 197:.\Generated_Source\PSoC4/BLE_eventHandler.c **** #endif /* CYBLE_WSS_CLIENT */
 198:.\Generated_Source\PSoC4/BLE_eventHandler.c **** #ifdef CYBLE_WPTS_CLIENT
 199:.\Generated_Source\PSoC4/BLE_eventHandler.c ****     {{CYBLE_GATT_INVALID_ATTR_HANDLE_VALUE, CYBLE_GATT_INVALID_ATTR_HANDLE_VALUE}, CYBLE_UUID_WIREL
 200:.\Generated_Source\PSoC4/BLE_eventHandler.c **** #endif /* CYBLE_WPTS_CLIENT */
 201:.\Generated_Source\PSoC4/BLE_eventHandler.c **** };
 202:.\Generated_Source\PSoC4/BLE_eventHandler.c **** 
 203:.\Generated_Source\PSoC4/BLE_eventHandler.c **** CYBLE_GAPC_T cyBle_gapc;
 204:.\Generated_Source\PSoC4/BLE_eventHandler.c **** 
 205:.\Generated_Source\PSoC4/BLE_eventHandler.c **** #endif /* CYBLE_GATT_ROLE_CLIENT */
 206:.\Generated_Source\PSoC4/BLE_eventHandler.c **** 
 207:.\Generated_Source\PSoC4/BLE_eventHandler.c **** /* Default device security */
 208:.\Generated_Source\PSoC4/BLE_eventHandler.c **** CYBLE_GAP_AUTH_INFO_T cyBle_authInfo =
 209:.\Generated_Source\PSoC4/BLE_eventHandler.c **** {
 210:.\Generated_Source\PSoC4/BLE_eventHandler.c ****     (CYBLE_GAP_SEC_MODE_1 | CYBLE_GAP_SEC_LEVEL_2 ), /* uint8 security */
 211:.\Generated_Source\PSoC4/BLE_eventHandler.c ****     CYBLE_GAP_BONDING_NONE, /* uint8 bonding */
 212:.\Generated_Source\PSoC4/BLE_eventHandler.c ****     0x10u,      /* uint8 ekeySize */
 213:.\Generated_Source\PSoC4/BLE_eventHandler.c ****     CYBLE_GAP_AUTH_ERROR_NONE, /* CYBLE_AUTH_FAILED_REASON_T authErr */
 214:.\Generated_Source\PSoC4/BLE_eventHandler.c ****     0x00u,      /* uint8 pairingProperties */
 215:.\Generated_Source\PSoC4/BLE_eventHandler.c **** };
 216:.\Generated_Source\PSoC4/BLE_eventHandler.c **** 
 217:.\Generated_Source\PSoC4/BLE_eventHandler.c **** #if(CYBLE_GATT_ROLE_SERVER)
 218:.\Generated_Source\PSoC4/BLE_eventHandler.c **** 
 219:.\Generated_Source\PSoC4/BLE_eventHandler.c **** 
 220:.\Generated_Source\PSoC4/BLE_eventHandler.c **** /******************************************************************************    
 221:.\Generated_Source\PSoC4/BLE_eventHandler.c **** * Function Name: CyBle_WriteReqHandler
 222:.\Generated_Source\PSoC4/BLE_eventHandler.c **** ***************************************************************************//**
 223:.\Generated_Source\PSoC4/BLE_eventHandler.c **** * 
 224:.\Generated_Source\PSoC4/BLE_eventHandler.c **** *  Handles the Write Request event from BLE stack.
 225:.\Generated_Source\PSoC4/BLE_eventHandler.c **** * 
 226:.\Generated_Source\PSoC4/BLE_eventHandler.c **** *  CYBLE_GATTS_WRITE_REQ_PARAM_T * eventParam - event parameter
 227:.\Generated_Source\PSoC4/BLE_eventHandler.c **** * 
 228:.\Generated_Source\PSoC4/BLE_eventHandler.c **** * \return
 229:.\Generated_Source\PSoC4/BLE_eventHandler.c **** *  None
 230:.\Generated_Source\PSoC4/BLE_eventHandler.c **** * 
 231:.\Generated_Source\PSoC4/BLE_eventHandler.c **** ******************************************************************************/
 232:.\Generated_Source\PSoC4/BLE_eventHandler.c **** static void CyBle_WriteReqHandler(CYBLE_GATTS_WRITE_REQ_PARAM_T *eventParam)
 233:.\Generated_Source\PSoC4/BLE_eventHandler.c **** {
  40              		.loc 1 233 0
  41              		.cfi_startproc
  42 0000 90B5     		push	{r4, r7, lr}
  43              		.cfi_def_cfa_offset 12
  44              		.cfi_offset 4, -12
  45              		.cfi_offset 7, -8
  46              		.cfi_offset 14, -4
  47 0002 85B0     		sub	sp, sp, #20
  48              		.cfi_def_cfa_offset 32
  49 0004 00AF     		add	r7, sp, #0
  50              		.cfi_def_cfa_register 7
  51 0006 7860     		str	r0, [r7, #4]
 234:.\Generated_Source\PSoC4/BLE_eventHandler.c ****     CYBLE_GATT_ERR_CODE_T gattErr;
ARM GAS  C:\Users\behrenb2\AppData\Local\Temp\ccNHrcVd.s 			page 6


 235:.\Generated_Source\PSoC4/BLE_eventHandler.c **** #if defined CYBLE_CTS_SERVER || defined CYBLE_ESS_SERVER
 236:.\Generated_Source\PSoC4/BLE_eventHandler.c ****     cyBle_gattError = CYBLE_GATT_ERR_NONE;
 237:.\Generated_Source\PSoC4/BLE_eventHandler.c **** #endif /* defined CYBLE_CTS_SERVER || defined CYBLE_ESS_SERVER */
 238:.\Generated_Source\PSoC4/BLE_eventHandler.c ****     
 239:.\Generated_Source\PSoC4/BLE_eventHandler.c ****     gattErr = CyBle_GattsWriteEventHandler(eventParam);
  52              		.loc 1 239 0
  53 0008 0F23     		mov	r3, #15
  54 000a FC18     		add	r4, r7, r3
  55 000c 7B68     		ldr	r3, [r7, #4]
  56 000e 181C     		mov	r0, r3
  57 0010 FFF7FEFF 		bl	CyBle_GattsWriteEventHandler
  58 0014 031C     		mov	r3, r0
  59 0016 2370     		strb	r3, [r4]
 240:.\Generated_Source\PSoC4/BLE_eventHandler.c **** #ifdef CYBLE_ANCS_SERVER
 241:.\Generated_Source\PSoC4/BLE_eventHandler.c ****     if(((cyBle_eventHandlerFlag & CYBLE_CALLBACK) != 0u) && (gattErr == CYBLE_GATT_ERR_NONE))
 242:.\Generated_Source\PSoC4/BLE_eventHandler.c ****     {
 243:.\Generated_Source\PSoC4/BLE_eventHandler.c ****         gattErr = CyBle_AncssWriteEventHandler(eventParam);
 244:.\Generated_Source\PSoC4/BLE_eventHandler.c ****     }
 245:.\Generated_Source\PSoC4/BLE_eventHandler.c **** #endif /* CYBLE_ANCS_SERVER */
 246:.\Generated_Source\PSoC4/BLE_eventHandler.c **** #ifdef CYBLE_ANS_SERVER
 247:.\Generated_Source\PSoC4/BLE_eventHandler.c ****     if(((cyBle_eventHandlerFlag & CYBLE_CALLBACK) != 0u) && (gattErr == CYBLE_GATT_ERR_NONE))
 248:.\Generated_Source\PSoC4/BLE_eventHandler.c ****     {
 249:.\Generated_Source\PSoC4/BLE_eventHandler.c ****         gattErr = CyBle_AnssWriteEventHandler(eventParam);
 250:.\Generated_Source\PSoC4/BLE_eventHandler.c ****     }
 251:.\Generated_Source\PSoC4/BLE_eventHandler.c **** #endif /* CYBLE_ANS_SERVER */
 252:.\Generated_Source\PSoC4/BLE_eventHandler.c **** #ifdef CYBLE_BAS_SERVER
 253:.\Generated_Source\PSoC4/BLE_eventHandler.c ****     if(((cyBle_eventHandlerFlag & CYBLE_CALLBACK) != 0u) && (gattErr == CYBLE_GATT_ERR_NONE))
  60              		.loc 1 253 0
  61 0018 284B     		ldr	r3, .L6
  62 001a 1B78     		ldrb	r3, [r3]
  63 001c DBB2     		uxtb	r3, r3
  64 001e 1A1C     		mov	r2, r3
  65 0020 0123     		mov	r3, #1
  66 0022 1340     		and	r3, r2
  67 0024 0CD0     		beq	.L2
  68              		.loc 1 253 0 is_stmt 0 discriminator 1
  69 0026 0F23     		mov	r3, #15
  70 0028 FB18     		add	r3, r7, r3
  71 002a 1B78     		ldrb	r3, [r3]
  72 002c 002B     		cmp	r3, #0
  73 002e 07D1     		bne	.L2
 254:.\Generated_Source\PSoC4/BLE_eventHandler.c ****     {
 255:.\Generated_Source\PSoC4/BLE_eventHandler.c ****         gattErr = CyBle_BassWriteEventHandler(eventParam);
  74              		.loc 1 255 0 is_stmt 1
  75 0030 0F23     		mov	r3, #15
  76 0032 FC18     		add	r4, r7, r3
  77 0034 7B68     		ldr	r3, [r7, #4]
  78 0036 181C     		mov	r0, r3
  79 0038 FFF7FEFF 		bl	CyBle_BassWriteEventHandler
  80 003c 031C     		mov	r3, r0
  81 003e 2370     		strb	r3, [r4]
  82              	.L2:
 256:.\Generated_Source\PSoC4/BLE_eventHandler.c ****     }
 257:.\Generated_Source\PSoC4/BLE_eventHandler.c **** #endif /* CYBLE_BAS_SERVER */
 258:.\Generated_Source\PSoC4/BLE_eventHandler.c **** #ifdef CYBLE_BCS_SERVER
 259:.\Generated_Source\PSoC4/BLE_eventHandler.c ****     if(((cyBle_eventHandlerFlag & CYBLE_CALLBACK) != 0u) && (gattErr == CYBLE_GATT_ERR_NONE))
 260:.\Generated_Source\PSoC4/BLE_eventHandler.c ****     {
ARM GAS  C:\Users\behrenb2\AppData\Local\Temp\ccNHrcVd.s 			page 7


 261:.\Generated_Source\PSoC4/BLE_eventHandler.c ****         gattErr = CyBle_BcssWriteEventHandler(eventParam);
 262:.\Generated_Source\PSoC4/BLE_eventHandler.c ****     }
 263:.\Generated_Source\PSoC4/BLE_eventHandler.c **** #endif /* CYBLE_BCS_SERVER */
 264:.\Generated_Source\PSoC4/BLE_eventHandler.c **** #ifdef CYBLE_BLS_SERVER
 265:.\Generated_Source\PSoC4/BLE_eventHandler.c ****     if(((cyBle_eventHandlerFlag & CYBLE_CALLBACK) != 0u) && (gattErr == CYBLE_GATT_ERR_NONE))
 266:.\Generated_Source\PSoC4/BLE_eventHandler.c ****     {
 267:.\Generated_Source\PSoC4/BLE_eventHandler.c ****         gattErr = CyBle_BlssWriteEventHandler(eventParam);
 268:.\Generated_Source\PSoC4/BLE_eventHandler.c ****     }
 269:.\Generated_Source\PSoC4/BLE_eventHandler.c **** #endif /* CYBLE_BLS_SERVER */
 270:.\Generated_Source\PSoC4/BLE_eventHandler.c **** #ifdef CYBLE_BMS_SERVER
 271:.\Generated_Source\PSoC4/BLE_eventHandler.c ****     if(((cyBle_eventHandlerFlag & CYBLE_CALLBACK) != 0u) && (gattErr == CYBLE_GATT_ERR_NONE))
 272:.\Generated_Source\PSoC4/BLE_eventHandler.c ****     {
 273:.\Generated_Source\PSoC4/BLE_eventHandler.c ****         gattErr = CyBle_BmssWriteEventHandler(eventParam);
 274:.\Generated_Source\PSoC4/BLE_eventHandler.c ****     }
 275:.\Generated_Source\PSoC4/BLE_eventHandler.c **** #endif /* CYBLE_BMS_SERVER */
 276:.\Generated_Source\PSoC4/BLE_eventHandler.c **** #ifdef CYBLE_BTS_SERVER
 277:.\Generated_Source\PSoC4/BLE_eventHandler.c ****     if((cyBle_eventHandlerFlag & CYBLE_CALLBACK) != 0u)
 278:.\Generated_Source\PSoC4/BLE_eventHandler.c ****     {
 279:.\Generated_Source\PSoC4/BLE_eventHandler.c ****         gattErr = CyBle_BtsWriteEventHandler(eventParam);
 280:.\Generated_Source\PSoC4/BLE_eventHandler.c ****     }
 281:.\Generated_Source\PSoC4/BLE_eventHandler.c **** #endif /* CYBLE_BTS_SERVER */
 282:.\Generated_Source\PSoC4/BLE_eventHandler.c **** #ifdef CYBLE_CGMS_SERVER
 283:.\Generated_Source\PSoC4/BLE_eventHandler.c ****     if(((cyBle_eventHandlerFlag & CYBLE_CALLBACK) != 0u) && (gattErr == CYBLE_GATT_ERR_NONE))
 284:.\Generated_Source\PSoC4/BLE_eventHandler.c ****     {
 285:.\Generated_Source\PSoC4/BLE_eventHandler.c ****         gattErr = CyBle_CgmssWriteEventHandler(eventParam);
 286:.\Generated_Source\PSoC4/BLE_eventHandler.c ****     }
 287:.\Generated_Source\PSoC4/BLE_eventHandler.c **** #endif /* CYBLE_CGMS_SERVER */
 288:.\Generated_Source\PSoC4/BLE_eventHandler.c **** #ifdef CYBLE_CPS_SERVER
 289:.\Generated_Source\PSoC4/BLE_eventHandler.c ****     if(((cyBle_eventHandlerFlag & CYBLE_CALLBACK) != 0u) && (gattErr == CYBLE_GATT_ERR_NONE))
 290:.\Generated_Source\PSoC4/BLE_eventHandler.c ****     {
 291:.\Generated_Source\PSoC4/BLE_eventHandler.c ****         gattErr = CyBle_CpssWriteEventHandler(eventParam);
 292:.\Generated_Source\PSoC4/BLE_eventHandler.c ****     }
 293:.\Generated_Source\PSoC4/BLE_eventHandler.c **** #endif /* CYBLE_CPS_SERVER */
 294:.\Generated_Source\PSoC4/BLE_eventHandler.c **** #ifdef CYBLE_CSCS_SERVER
 295:.\Generated_Source\PSoC4/BLE_eventHandler.c ****     if(((cyBle_eventHandlerFlag & CYBLE_CALLBACK) != 0u) && (gattErr == CYBLE_GATT_ERR_NONE))
 296:.\Generated_Source\PSoC4/BLE_eventHandler.c ****     {
 297:.\Generated_Source\PSoC4/BLE_eventHandler.c ****         gattErr = CyBle_CscssWriteEventHandler(eventParam);
 298:.\Generated_Source\PSoC4/BLE_eventHandler.c ****     }
 299:.\Generated_Source\PSoC4/BLE_eventHandler.c **** #endif /* CYBLE_CSCS_SERVER */
 300:.\Generated_Source\PSoC4/BLE_eventHandler.c **** #ifdef CYBLE_CTS_SERVER
 301:.\Generated_Source\PSoC4/BLE_eventHandler.c ****     if(((cyBle_eventHandlerFlag & CYBLE_CALLBACK) != 0u) && (gattErr == CYBLE_GATT_ERR_NONE))
 302:.\Generated_Source\PSoC4/BLE_eventHandler.c ****     {
 303:.\Generated_Source\PSoC4/BLE_eventHandler.c ****         gattErr = CyBle_CtssWriteEventHandler(eventParam);
 304:.\Generated_Source\PSoC4/BLE_eventHandler.c ****     }
 305:.\Generated_Source\PSoC4/BLE_eventHandler.c **** #endif /* CYBLE_CTS_SERVER */
 306:.\Generated_Source\PSoC4/BLE_eventHandler.c **** #ifdef CYBLE_ESS_SERVER
 307:.\Generated_Source\PSoC4/BLE_eventHandler.c ****     if(((cyBle_eventHandlerFlag & CYBLE_CALLBACK) != 0u) && (gattErr == CYBLE_GATT_ERR_NONE))
 308:.\Generated_Source\PSoC4/BLE_eventHandler.c ****     {
 309:.\Generated_Source\PSoC4/BLE_eventHandler.c ****         gattErr = CyBle_EsssWriteEventHandler(eventParam);
 310:.\Generated_Source\PSoC4/BLE_eventHandler.c ****     }
 311:.\Generated_Source\PSoC4/BLE_eventHandler.c **** #endif /* CYBLE_ESS_SERVER */
 312:.\Generated_Source\PSoC4/BLE_eventHandler.c **** #ifdef CYBLE_GLS_SERVER
 313:.\Generated_Source\PSoC4/BLE_eventHandler.c ****     if(((cyBle_eventHandlerFlag & CYBLE_CALLBACK) != 0u) && (gattErr == CYBLE_GATT_ERR_NONE))
 314:.\Generated_Source\PSoC4/BLE_eventHandler.c ****     {
 315:.\Generated_Source\PSoC4/BLE_eventHandler.c ****         gattErr = CyBle_GlssWriteEventHandler(eventParam);
 316:.\Generated_Source\PSoC4/BLE_eventHandler.c ****     }
 317:.\Generated_Source\PSoC4/BLE_eventHandler.c **** #endif /* CYBLE_GLS_SERVER */
ARM GAS  C:\Users\behrenb2\AppData\Local\Temp\ccNHrcVd.s 			page 8


 318:.\Generated_Source\PSoC4/BLE_eventHandler.c **** #ifdef CYBLE_HIDS_SERVER
 319:.\Generated_Source\PSoC4/BLE_eventHandler.c ****     if(((cyBle_eventHandlerFlag & CYBLE_CALLBACK) != 0u) && (gattErr == CYBLE_GATT_ERR_NONE))
 320:.\Generated_Source\PSoC4/BLE_eventHandler.c ****     {
 321:.\Generated_Source\PSoC4/BLE_eventHandler.c ****         gattErr = CyBle_HidssWriteEventHandler(eventParam);
 322:.\Generated_Source\PSoC4/BLE_eventHandler.c ****     }
 323:.\Generated_Source\PSoC4/BLE_eventHandler.c **** #endif /* CYBLE_HIDS_SERVER */
 324:.\Generated_Source\PSoC4/BLE_eventHandler.c **** #ifdef CYBLE_HPS_SERVER
 325:.\Generated_Source\PSoC4/BLE_eventHandler.c ****     if(((cyBle_eventHandlerFlag & CYBLE_CALLBACK) != 0u) && (gattErr == CYBLE_GATT_ERR_NONE))
 326:.\Generated_Source\PSoC4/BLE_eventHandler.c ****     {
 327:.\Generated_Source\PSoC4/BLE_eventHandler.c ****         gattErr = CyBle_HpssWriteEventHandler(eventParam);
 328:.\Generated_Source\PSoC4/BLE_eventHandler.c ****     }
 329:.\Generated_Source\PSoC4/BLE_eventHandler.c **** #endif /* CYBLE_HPS_SERVER */
 330:.\Generated_Source\PSoC4/BLE_eventHandler.c **** #ifdef CYBLE_HRS_SERVER
 331:.\Generated_Source\PSoC4/BLE_eventHandler.c ****     if(((cyBle_eventHandlerFlag & CYBLE_CALLBACK) != 0u) && (gattErr == CYBLE_GATT_ERR_NONE))
 332:.\Generated_Source\PSoC4/BLE_eventHandler.c ****     {
 333:.\Generated_Source\PSoC4/BLE_eventHandler.c ****         gattErr = CyBle_HrssWriteEventHandler(eventParam);
 334:.\Generated_Source\PSoC4/BLE_eventHandler.c ****     }
 335:.\Generated_Source\PSoC4/BLE_eventHandler.c **** #endif /* CYBLE_HRS_SERVER */
 336:.\Generated_Source\PSoC4/BLE_eventHandler.c **** #ifdef CYBLE_HTS_SERVER
 337:.\Generated_Source\PSoC4/BLE_eventHandler.c ****     if(((cyBle_eventHandlerFlag & CYBLE_CALLBACK) != 0u) && (gattErr == CYBLE_GATT_ERR_NONE))
  83              		.loc 1 337 0
  84 0040 1E4B     		ldr	r3, .L6
  85 0042 1B78     		ldrb	r3, [r3]
  86 0044 DBB2     		uxtb	r3, r3
  87 0046 1A1C     		mov	r2, r3
  88 0048 0123     		mov	r3, #1
  89 004a 1340     		and	r3, r2
  90 004c 0CD0     		beq	.L3
  91              		.loc 1 337 0 is_stmt 0 discriminator 1
  92 004e 0F23     		mov	r3, #15
  93 0050 FB18     		add	r3, r7, r3
  94 0052 1B78     		ldrb	r3, [r3]
  95 0054 002B     		cmp	r3, #0
  96 0056 07D1     		bne	.L3
 338:.\Generated_Source\PSoC4/BLE_eventHandler.c ****     {
 339:.\Generated_Source\PSoC4/BLE_eventHandler.c ****         gattErr = CyBle_HtssWriteEventHandler(eventParam);
  97              		.loc 1 339 0 is_stmt 1
  98 0058 0F23     		mov	r3, #15
  99 005a FC18     		add	r4, r7, r3
 100 005c 7B68     		ldr	r3, [r7, #4]
 101 005e 181C     		mov	r0, r3
 102 0060 FFF7FEFF 		bl	CyBle_HtssWriteEventHandler
 103 0064 031C     		mov	r3, r0
 104 0066 2370     		strb	r3, [r4]
 105              	.L3:
 340:.\Generated_Source\PSoC4/BLE_eventHandler.c ****     }
 341:.\Generated_Source\PSoC4/BLE_eventHandler.c **** #endif /* CYBLE_HTS_SERVER */
 342:.\Generated_Source\PSoC4/BLE_eventHandler.c **** #ifdef CYBLE_IPS_SERVER
 343:.\Generated_Source\PSoC4/BLE_eventHandler.c ****     if(((cyBle_eventHandlerFlag & CYBLE_CALLBACK) != 0u) && (gattErr == CYBLE_GATT_ERR_NONE))
 344:.\Generated_Source\PSoC4/BLE_eventHandler.c ****     {
 345:.\Generated_Source\PSoC4/BLE_eventHandler.c ****         gattErr = CyBle_IpssWriteEventHandler(eventParam);
 346:.\Generated_Source\PSoC4/BLE_eventHandler.c ****     }
 347:.\Generated_Source\PSoC4/BLE_eventHandler.c **** #endif /* CYBLE_IPS_SERVER */
 348:.\Generated_Source\PSoC4/BLE_eventHandler.c **** #ifdef CYBLE_LLS_SERVER
 349:.\Generated_Source\PSoC4/BLE_eventHandler.c ****     if(((cyBle_eventHandlerFlag & CYBLE_CALLBACK) != 0u) && (gattErr == CYBLE_GATT_ERR_NONE))
 350:.\Generated_Source\PSoC4/BLE_eventHandler.c ****     {
 351:.\Generated_Source\PSoC4/BLE_eventHandler.c ****         gattErr = CyBle_LlssWriteEventHandler(eventParam);
ARM GAS  C:\Users\behrenb2\AppData\Local\Temp\ccNHrcVd.s 			page 9


 352:.\Generated_Source\PSoC4/BLE_eventHandler.c ****     }
 353:.\Generated_Source\PSoC4/BLE_eventHandler.c **** #endif /* CYBLE_LLS_SERVER */
 354:.\Generated_Source\PSoC4/BLE_eventHandler.c **** #ifdef CYBLE_LNS_SERVER
 355:.\Generated_Source\PSoC4/BLE_eventHandler.c ****     if(((cyBle_eventHandlerFlag & CYBLE_CALLBACK) != 0u) && (gattErr == CYBLE_GATT_ERR_NONE))
 356:.\Generated_Source\PSoC4/BLE_eventHandler.c ****     {
 357:.\Generated_Source\PSoC4/BLE_eventHandler.c ****         gattErr = CyBle_LnssWriteEventHandler(eventParam);
 358:.\Generated_Source\PSoC4/BLE_eventHandler.c ****     }
 359:.\Generated_Source\PSoC4/BLE_eventHandler.c **** #endif /* CYBLE_LNS_SERVER */
 360:.\Generated_Source\PSoC4/BLE_eventHandler.c **** #ifdef CYBLE_PASS_SERVER
 361:.\Generated_Source\PSoC4/BLE_eventHandler.c ****     if(((cyBle_eventHandlerFlag & CYBLE_CALLBACK) != 0u) && (gattErr == CYBLE_GATT_ERR_NONE))
 362:.\Generated_Source\PSoC4/BLE_eventHandler.c ****     {
 363:.\Generated_Source\PSoC4/BLE_eventHandler.c ****         gattErr = CyBle_PasssWriteEventHandler(eventParam);
 364:.\Generated_Source\PSoC4/BLE_eventHandler.c ****     }
 365:.\Generated_Source\PSoC4/BLE_eventHandler.c **** #endif /* CYBLE_PASS_SERVER */
 366:.\Generated_Source\PSoC4/BLE_eventHandler.c **** #ifdef CYBLE_RSCS_SERVER
 367:.\Generated_Source\PSoC4/BLE_eventHandler.c ****     if(((cyBle_eventHandlerFlag & CYBLE_CALLBACK) != 0u) && (gattErr == CYBLE_GATT_ERR_NONE))
 368:.\Generated_Source\PSoC4/BLE_eventHandler.c ****     {
 369:.\Generated_Source\PSoC4/BLE_eventHandler.c ****         gattErr = CyBle_RscssWriteEventHandler(eventParam);
 370:.\Generated_Source\PSoC4/BLE_eventHandler.c ****     }
 371:.\Generated_Source\PSoC4/BLE_eventHandler.c **** #endif /* CYBLE_RSCS_SERVER */
 372:.\Generated_Source\PSoC4/BLE_eventHandler.c **** #ifdef CYBLE_SCPS_SERVER
 373:.\Generated_Source\PSoC4/BLE_eventHandler.c ****     if(((cyBle_eventHandlerFlag & CYBLE_CALLBACK) != 0u) && (gattErr == CYBLE_GATT_ERR_NONE))
 374:.\Generated_Source\PSoC4/BLE_eventHandler.c ****     {
 375:.\Generated_Source\PSoC4/BLE_eventHandler.c ****         gattErr = CyBle_ScpssWriteEventHandler(eventParam);
 376:.\Generated_Source\PSoC4/BLE_eventHandler.c ****     }
 377:.\Generated_Source\PSoC4/BLE_eventHandler.c **** #endif /* CYBLE_SCPS_SERVER */
 378:.\Generated_Source\PSoC4/BLE_eventHandler.c **** #ifdef CYBLE_TPS_SERVER
 379:.\Generated_Source\PSoC4/BLE_eventHandler.c ****     if(((cyBle_eventHandlerFlag & CYBLE_CALLBACK) != 0u) && (gattErr == CYBLE_GATT_ERR_NONE))
 380:.\Generated_Source\PSoC4/BLE_eventHandler.c ****     {
 381:.\Generated_Source\PSoC4/BLE_eventHandler.c ****         gattErr = CyBle_TpssWriteEventHandler(eventParam);
 382:.\Generated_Source\PSoC4/BLE_eventHandler.c ****     }
 383:.\Generated_Source\PSoC4/BLE_eventHandler.c **** #endif /* CYBLE_TPS_SERVER */
 384:.\Generated_Source\PSoC4/BLE_eventHandler.c **** #ifdef CYBLE_UDS_SERVER
 385:.\Generated_Source\PSoC4/BLE_eventHandler.c ****     if(((cyBle_eventHandlerFlag & CYBLE_CALLBACK) != 0u) && (gattErr == CYBLE_GATT_ERR_NONE))
 386:.\Generated_Source\PSoC4/BLE_eventHandler.c ****     {
 387:.\Generated_Source\PSoC4/BLE_eventHandler.c ****         gattErr = CyBle_UdssWriteEventHandler(eventParam);
 388:.\Generated_Source\PSoC4/BLE_eventHandler.c ****     }
 389:.\Generated_Source\PSoC4/BLE_eventHandler.c **** #endif /* CYBLE_UDS_SERVER */
 390:.\Generated_Source\PSoC4/BLE_eventHandler.c **** #ifdef CYBLE_WPTS_SERVER
 391:.\Generated_Source\PSoC4/BLE_eventHandler.c ****     if(((cyBle_eventHandlerFlag & CYBLE_CALLBACK) != 0u) && (gattErr == CYBLE_GATT_ERR_NONE))
 392:.\Generated_Source\PSoC4/BLE_eventHandler.c ****     {
 393:.\Generated_Source\PSoC4/BLE_eventHandler.c ****         gattErr = CyBle_WptssWriteEventHandler(eventParam);
 394:.\Generated_Source\PSoC4/BLE_eventHandler.c ****     }
 395:.\Generated_Source\PSoC4/BLE_eventHandler.c **** #endif /* CYBLE_WPTS_SERVER */
 396:.\Generated_Source\PSoC4/BLE_eventHandler.c **** #ifdef CYBLE_WSS_SERVER
 397:.\Generated_Source\PSoC4/BLE_eventHandler.c ****     if(((cyBle_eventHandlerFlag & CYBLE_CALLBACK) != 0u) && (gattErr == CYBLE_GATT_ERR_NONE))
 398:.\Generated_Source\PSoC4/BLE_eventHandler.c ****     {
 399:.\Generated_Source\PSoC4/BLE_eventHandler.c ****         gattErr = CyBle_WsssWriteEventHandler(eventParam);
 400:.\Generated_Source\PSoC4/BLE_eventHandler.c ****     }
 401:.\Generated_Source\PSoC4/BLE_eventHandler.c **** #endif /* CYBLE_WSS_SERVER */
 402:.\Generated_Source\PSoC4/BLE_eventHandler.c **** 
 403:.\Generated_Source\PSoC4/BLE_eventHandler.c ****     /* Send response when event was handled by service */
 404:.\Generated_Source\PSoC4/BLE_eventHandler.c ****     if((cyBle_eventHandlerFlag & CYBLE_CALLBACK) == 0u)
 106              		.loc 1 404 0
 107 0068 144B     		ldr	r3, .L6
 108 006a 1B78     		ldrb	r3, [r3]
 109 006c DBB2     		uxtb	r3, r3
ARM GAS  C:\Users\behrenb2\AppData\Local\Temp\ccNHrcVd.s 			page 10


 110 006e 1A1C     		mov	r2, r3
 111 0070 0123     		mov	r3, #1
 112 0072 1340     		and	r3, r2
 113 0074 1FD1     		bne	.L1
 405:.\Generated_Source\PSoC4/BLE_eventHandler.c ****     {
 406:.\Generated_Source\PSoC4/BLE_eventHandler.c ****         if(gattErr != CYBLE_GATT_ERR_NONE)
 114              		.loc 1 406 0
 115 0076 0F23     		mov	r3, #15
 116 0078 FB18     		add	r3, r7, r3
 117 007a 1B78     		ldrb	r3, [r3]
 118 007c 002B     		cmp	r3, #0
 119 007e 16D0     		beq	.L5
 120              	.LBB2:
 407:.\Generated_Source\PSoC4/BLE_eventHandler.c ****         {
 408:.\Generated_Source\PSoC4/BLE_eventHandler.c ****             CYBLE_GATTS_ERR_PARAM_T err_param;
 409:.\Generated_Source\PSoC4/BLE_eventHandler.c ****             
 410:.\Generated_Source\PSoC4/BLE_eventHandler.c ****             err_param.opcode = (uint8) CYBLE_GATT_WRITE_REQ;
 121              		.loc 1 410 0
 122 0080 0823     		mov	r3, #8
 123 0082 FB18     		add	r3, r7, r3
 124 0084 1222     		mov	r2, #18
 125 0086 9A70     		strb	r2, [r3, #2]
 411:.\Generated_Source\PSoC4/BLE_eventHandler.c ****             err_param.attrHandle = eventParam->handleValPair.attrHandle;
 126              		.loc 1 411 0
 127 0088 7B68     		ldr	r3, [r7, #4]
 128 008a 9A89     		ldrh	r2, [r3, #12]
 129 008c 0823     		mov	r3, #8
 130 008e FB18     		add	r3, r7, r3
 131 0090 1A80     		strh	r2, [r3]
 412:.\Generated_Source\PSoC4/BLE_eventHandler.c ****             err_param.errorCode = gattErr;
 132              		.loc 1 412 0
 133 0092 0823     		mov	r3, #8
 134 0094 FB18     		add	r3, r7, r3
 135 0096 0F22     		mov	r2, #15
 136 0098 BA18     		add	r2, r7, r2
 137 009a 1278     		ldrb	r2, [r2]
 138 009c DA70     		strb	r2, [r3, #3]
 413:.\Generated_Source\PSoC4/BLE_eventHandler.c **** 
 414:.\Generated_Source\PSoC4/BLE_eventHandler.c ****             /* Send Error Response */
 415:.\Generated_Source\PSoC4/BLE_eventHandler.c ****             (void)CyBle_GattsErrorRsp(eventParam->connHandle, &err_param);
 139              		.loc 1 415 0
 140 009e 7B68     		ldr	r3, [r7, #4]
 141 00a0 0822     		mov	r2, #8
 142 00a2 BA18     		add	r2, r7, r2
 143 00a4 1868     		ldr	r0, [r3]
 144 00a6 111C     		mov	r1, r2
 145 00a8 FFF7FEFF 		bl	CyBle_GattsErrorRsp
 146              	.LBE2:
 147 00ac 03E0     		b	.L1
 148              	.L5:
 416:.\Generated_Source\PSoC4/BLE_eventHandler.c ****         }
 417:.\Generated_Source\PSoC4/BLE_eventHandler.c ****         else
 418:.\Generated_Source\PSoC4/BLE_eventHandler.c ****         {
 419:.\Generated_Source\PSoC4/BLE_eventHandler.c ****             (void)CyBle_GattsWriteRsp(eventParam->connHandle);
 149              		.loc 1 419 0
 150 00ae 7B68     		ldr	r3, [r7, #4]
 151 00b0 1868     		ldr	r0, [r3]
ARM GAS  C:\Users\behrenb2\AppData\Local\Temp\ccNHrcVd.s 			page 11


 152 00b2 FFF7FEFF 		bl	CyBle_GattsWriteRsp
 153              	.L1:
 420:.\Generated_Source\PSoC4/BLE_eventHandler.c ****         }
 421:.\Generated_Source\PSoC4/BLE_eventHandler.c ****     }
 422:.\Generated_Source\PSoC4/BLE_eventHandler.c **** }
 154              		.loc 1 422 0
 155 00b6 BD46     		mov	sp, r7
 156 00b8 05B0     		add	sp, sp, #20
 157              		@ sp needed
 158 00ba 90BD     		pop	{r4, r7, pc}
 159              	.L7:
 160              		.align	2
 161              	.L6:
 162 00bc 00000000 		.word	cyBle_eventHandlerFlag
 163              		.cfi_endproc
 164              	.LFE2:
 165              		.size	CyBle_WriteReqHandler, .-CyBle_WriteReqHandler
 166              		.section	.text.CyBle_ValueConfirmation,"ax",%progbits
 167              		.align	2
 168              		.code	16
 169              		.thumb_func
 170              		.type	CyBle_ValueConfirmation, %function
 171              	CyBle_ValueConfirmation:
 172              	.LFB3:
 423:.\Generated_Source\PSoC4/BLE_eventHandler.c **** 
 424:.\Generated_Source\PSoC4/BLE_eventHandler.c **** 
 425:.\Generated_Source\PSoC4/BLE_eventHandler.c **** /****************************************************************************** 
 426:.\Generated_Source\PSoC4/BLE_eventHandler.c **** * Function Name: CyBle_ValueConfirmation
 427:.\Generated_Source\PSoC4/BLE_eventHandler.c **** ***************************************************************************//**
 428:.\Generated_Source\PSoC4/BLE_eventHandler.c **** * 
 429:.\Generated_Source\PSoC4/BLE_eventHandler.c **** *  Handles the Value Confirmation request event from the BLE stack.
 430:.\Generated_Source\PSoC4/BLE_eventHandler.c **** * 
 431:.\Generated_Source\PSoC4/BLE_eventHandler.c **** *  \param eventParam: Pointer to a structure of type 'CYBLE_CONN_HANDLE_T'
 432:.\Generated_Source\PSoC4/BLE_eventHandler.c **** * 
 433:.\Generated_Source\PSoC4/BLE_eventHandler.c **** * \return
 434:.\Generated_Source\PSoC4/BLE_eventHandler.c **** *  None
 435:.\Generated_Source\PSoC4/BLE_eventHandler.c **** * 
 436:.\Generated_Source\PSoC4/BLE_eventHandler.c **** ******************************************************************************/
 437:.\Generated_Source\PSoC4/BLE_eventHandler.c **** static void CyBle_ValueConfirmation(const CYBLE_CONN_HANDLE_T *eventParam)
 438:.\Generated_Source\PSoC4/BLE_eventHandler.c **** {
 173              		.loc 1 438 0
 174              		.cfi_startproc
 175 0000 80B5     		push	{r7, lr}
 176              		.cfi_def_cfa_offset 8
 177              		.cfi_offset 7, -8
 178              		.cfi_offset 14, -4
 179 0002 82B0     		sub	sp, sp, #8
 180              		.cfi_def_cfa_offset 16
 181 0004 00AF     		add	r7, sp, #0
 182              		.cfi_def_cfa_register 7
 183 0006 7860     		str	r0, [r7, #4]
 439:.\Generated_Source\PSoC4/BLE_eventHandler.c ****     if(eventParam != NULL)
 184              		.loc 1 439 0
 185 0008 7B68     		ldr	r3, [r7, #4]
 186 000a 002B     		cmp	r3, #0
 187 000c 0AD0     		beq	.L8
 440:.\Generated_Source\PSoC4/BLE_eventHandler.c ****     {
ARM GAS  C:\Users\behrenb2\AppData\Local\Temp\ccNHrcVd.s 			page 12


 441:.\Generated_Source\PSoC4/BLE_eventHandler.c ****     #ifdef CYBLE_BCS_SERVER
 442:.\Generated_Source\PSoC4/BLE_eventHandler.c ****         CyBle_BcssConfirmationEventHandler(eventParam);
 443:.\Generated_Source\PSoC4/BLE_eventHandler.c ****     #endif /* CYBLE_BCS_SERVER */
 444:.\Generated_Source\PSoC4/BLE_eventHandler.c ****     #ifdef CYBLE_BLS_SERVER
 445:.\Generated_Source\PSoC4/BLE_eventHandler.c ****         if((cyBle_eventHandlerFlag & CYBLE_CALLBACK) != 0u)
 446:.\Generated_Source\PSoC4/BLE_eventHandler.c ****         {
 447:.\Generated_Source\PSoC4/BLE_eventHandler.c ****             CyBle_BlssConfirmationEventHandler(eventParam);
 448:.\Generated_Source\PSoC4/BLE_eventHandler.c ****         }
 449:.\Generated_Source\PSoC4/BLE_eventHandler.c ****     #endif /* CYBLE_BLS_SERVER */
 450:.\Generated_Source\PSoC4/BLE_eventHandler.c ****     
 451:.\Generated_Source\PSoC4/BLE_eventHandler.c ****     #ifdef CYBLE_CGMS_SERVER
 452:.\Generated_Source\PSoC4/BLE_eventHandler.c ****         if((cyBle_eventHandlerFlag & CYBLE_CALLBACK) != 0u)
 453:.\Generated_Source\PSoC4/BLE_eventHandler.c ****         {
 454:.\Generated_Source\PSoC4/BLE_eventHandler.c ****             CyBle_CgmssConfirmationEventHandler(eventParam);
 455:.\Generated_Source\PSoC4/BLE_eventHandler.c ****         }
 456:.\Generated_Source\PSoC4/BLE_eventHandler.c ****     #endif /* CYBLE_CGMS_SERVER */
 457:.\Generated_Source\PSoC4/BLE_eventHandler.c ****     
 458:.\Generated_Source\PSoC4/BLE_eventHandler.c ****     #ifdef CYBLE_CPS_SERVER
 459:.\Generated_Source\PSoC4/BLE_eventHandler.c ****         if((cyBle_eventHandlerFlag & CYBLE_CALLBACK) != 0u)
 460:.\Generated_Source\PSoC4/BLE_eventHandler.c ****         {
 461:.\Generated_Source\PSoC4/BLE_eventHandler.c ****             CyBle_CpssConfirmationEventHandler(eventParam);
 462:.\Generated_Source\PSoC4/BLE_eventHandler.c ****         }
 463:.\Generated_Source\PSoC4/BLE_eventHandler.c ****     #endif /* CYBLE_CPS_SERVER */
 464:.\Generated_Source\PSoC4/BLE_eventHandler.c ****     
 465:.\Generated_Source\PSoC4/BLE_eventHandler.c ****     #ifdef CYBLE_CSCS_SERVER
 466:.\Generated_Source\PSoC4/BLE_eventHandler.c ****         if((cyBle_eventHandlerFlag & CYBLE_CALLBACK) != 0u)
 467:.\Generated_Source\PSoC4/BLE_eventHandler.c ****         {
 468:.\Generated_Source\PSoC4/BLE_eventHandler.c ****             CyBle_CscssConfirmationEventHandler(eventParam);
 469:.\Generated_Source\PSoC4/BLE_eventHandler.c ****         }
 470:.\Generated_Source\PSoC4/BLE_eventHandler.c ****     #endif /* CYBLE_CSCS_SERVER */
 471:.\Generated_Source\PSoC4/BLE_eventHandler.c ****     
 472:.\Generated_Source\PSoC4/BLE_eventHandler.c ****     #ifdef CYBLE_ESS_SERVER
 473:.\Generated_Source\PSoC4/BLE_eventHandler.c ****         if((cyBle_eventHandlerFlag & CYBLE_CALLBACK) != 0u)
 474:.\Generated_Source\PSoC4/BLE_eventHandler.c ****         {
 475:.\Generated_Source\PSoC4/BLE_eventHandler.c ****             CyBle_EsssConfirmationEventHandler(eventParam);
 476:.\Generated_Source\PSoC4/BLE_eventHandler.c ****         }
 477:.\Generated_Source\PSoC4/BLE_eventHandler.c ****     #endif /* CYBLE_ESS_SERVER */
 478:.\Generated_Source\PSoC4/BLE_eventHandler.c ****     
 479:.\Generated_Source\PSoC4/BLE_eventHandler.c ****     #ifdef CYBLE_GLS_SERVER
 480:.\Generated_Source\PSoC4/BLE_eventHandler.c ****         if((cyBle_eventHandlerFlag & CYBLE_CALLBACK) != 0u)
 481:.\Generated_Source\PSoC4/BLE_eventHandler.c ****         {
 482:.\Generated_Source\PSoC4/BLE_eventHandler.c ****             CyBle_GlssConfirmationEventHandler(eventParam);
 483:.\Generated_Source\PSoC4/BLE_eventHandler.c ****         }
 484:.\Generated_Source\PSoC4/BLE_eventHandler.c ****     #endif /* CYBLE_GLS_SERVER */
 485:.\Generated_Source\PSoC4/BLE_eventHandler.c ****     
 486:.\Generated_Source\PSoC4/BLE_eventHandler.c ****     #ifdef CYBLE_HTS_SERVER
 487:.\Generated_Source\PSoC4/BLE_eventHandler.c ****         if((cyBle_eventHandlerFlag & CYBLE_CALLBACK) != 0u)
 188              		.loc 1 487 0
 189 000e 074B     		ldr	r3, .L10
 190 0010 1B78     		ldrb	r3, [r3]
 191 0012 DBB2     		uxtb	r3, r3
 192 0014 1A1C     		mov	r2, r3
 193 0016 0123     		mov	r3, #1
 194 0018 1340     		and	r3, r2
 195 001a 03D0     		beq	.L8
 488:.\Generated_Source\PSoC4/BLE_eventHandler.c ****         {
 489:.\Generated_Source\PSoC4/BLE_eventHandler.c ****             CyBle_HtssConfirmationEventHandler(eventParam);
ARM GAS  C:\Users\behrenb2\AppData\Local\Temp\ccNHrcVd.s 			page 13


 196              		.loc 1 489 0
 197 001c 7B68     		ldr	r3, [r7, #4]
 198 001e 181C     		mov	r0, r3
 199 0020 FFF7FEFF 		bl	CyBle_HtssConfirmationEventHandler
 200              	.L8:
 490:.\Generated_Source\PSoC4/BLE_eventHandler.c ****         }
 491:.\Generated_Source\PSoC4/BLE_eventHandler.c ****     #endif /* CYBLE_HTS_SERVER */
 492:.\Generated_Source\PSoC4/BLE_eventHandler.c **** 
 493:.\Generated_Source\PSoC4/BLE_eventHandler.c ****     #ifdef CYBLE_LNS_SERVER
 494:.\Generated_Source\PSoC4/BLE_eventHandler.c ****         if((cyBle_eventHandlerFlag & CYBLE_CALLBACK) != 0u)
 495:.\Generated_Source\PSoC4/BLE_eventHandler.c ****         {
 496:.\Generated_Source\PSoC4/BLE_eventHandler.c ****             CyBle_LnssConfirmationEventHandler(eventParam);
 497:.\Generated_Source\PSoC4/BLE_eventHandler.c ****         }
 498:.\Generated_Source\PSoC4/BLE_eventHandler.c ****     #endif /* CYBLE_LNS_SERVER */
 499:.\Generated_Source\PSoC4/BLE_eventHandler.c ****     
 500:.\Generated_Source\PSoC4/BLE_eventHandler.c ****     #ifdef CYBLE_RSCS_SERVER
 501:.\Generated_Source\PSoC4/BLE_eventHandler.c ****         if((cyBle_eventHandlerFlag & CYBLE_CALLBACK) != 0u)
 502:.\Generated_Source\PSoC4/BLE_eventHandler.c ****         {
 503:.\Generated_Source\PSoC4/BLE_eventHandler.c ****             CyBle_RscssConfirmationEventHandler(eventParam);
 504:.\Generated_Source\PSoC4/BLE_eventHandler.c ****         }
 505:.\Generated_Source\PSoC4/BLE_eventHandler.c ****     #endif /* CYBLE_RSCS_SERVER */
 506:.\Generated_Source\PSoC4/BLE_eventHandler.c ****     
 507:.\Generated_Source\PSoC4/BLE_eventHandler.c ****     #ifdef CYBLE_UDS_SERVER
 508:.\Generated_Source\PSoC4/BLE_eventHandler.c ****         if((cyBle_eventHandlerFlag & CYBLE_CALLBACK) != 0u)
 509:.\Generated_Source\PSoC4/BLE_eventHandler.c ****         {
 510:.\Generated_Source\PSoC4/BLE_eventHandler.c ****             CyBle_UdssConfirmationEventHandler(eventParam);
 511:.\Generated_Source\PSoC4/BLE_eventHandler.c ****         }
 512:.\Generated_Source\PSoC4/BLE_eventHandler.c ****     #endif /* CYBLE_UDS_SERVER */
 513:.\Generated_Source\PSoC4/BLE_eventHandler.c ****     
 514:.\Generated_Source\PSoC4/BLE_eventHandler.c ****     #ifdef CYBLE_WPTS_SERVER
 515:.\Generated_Source\PSoC4/BLE_eventHandler.c ****         if((cyBle_eventHandlerFlag & CYBLE_CALLBACK) != 0u)
 516:.\Generated_Source\PSoC4/BLE_eventHandler.c ****         {
 517:.\Generated_Source\PSoC4/BLE_eventHandler.c ****             CyBle_WptssConfirmationEventHandler(eventParam);
 518:.\Generated_Source\PSoC4/BLE_eventHandler.c ****         }
 519:.\Generated_Source\PSoC4/BLE_eventHandler.c ****     #endif /* CYBLE_WPTS_SERVER */
 520:.\Generated_Source\PSoC4/BLE_eventHandler.c ****     
 521:.\Generated_Source\PSoC4/BLE_eventHandler.c ****     #ifdef CYBLE_WSS_SERVER
 522:.\Generated_Source\PSoC4/BLE_eventHandler.c ****         if((cyBle_eventHandlerFlag & CYBLE_CALLBACK) != 0u)
 523:.\Generated_Source\PSoC4/BLE_eventHandler.c ****         {
 524:.\Generated_Source\PSoC4/BLE_eventHandler.c ****             CyBle_WsssConfirmationEventHandler(eventParam);
 525:.\Generated_Source\PSoC4/BLE_eventHandler.c ****         }
 526:.\Generated_Source\PSoC4/BLE_eventHandler.c ****     #endif /* CYBLE_WSS_SERVER */
 527:.\Generated_Source\PSoC4/BLE_eventHandler.c ****     }
 528:.\Generated_Source\PSoC4/BLE_eventHandler.c **** }
 201              		.loc 1 528 0
 202 0024 BD46     		mov	sp, r7
 203 0026 02B0     		add	sp, sp, #8
 204              		@ sp needed
 205 0028 80BD     		pop	{r7, pc}
 206              	.L11:
 207 002a C046     		.align	2
 208              	.L10:
 209 002c 00000000 		.word	cyBle_eventHandlerFlag
 210              		.cfi_endproc
 211              	.LFE3:
 212              		.size	CyBle_ValueConfirmation, .-CyBle_ValueConfirmation
 213              		.section	.text.CyBle_GattDisconnectEventHandler,"ax",%progbits
ARM GAS  C:\Users\behrenb2\AppData\Local\Temp\ccNHrcVd.s 			page 14


 214              		.align	2
 215              		.code	16
 216              		.thumb_func
 217              		.type	CyBle_GattDisconnectEventHandler, %function
 218              	CyBle_GattDisconnectEventHandler:
 219              	.LFB4:
 529:.\Generated_Source\PSoC4/BLE_eventHandler.c **** 
 530:.\Generated_Source\PSoC4/BLE_eventHandler.c **** #endif /* CYBLE_GATT_ROLE_SERVER */
 531:.\Generated_Source\PSoC4/BLE_eventHandler.c **** 
 532:.\Generated_Source\PSoC4/BLE_eventHandler.c **** 
 533:.\Generated_Source\PSoC4/BLE_eventHandler.c **** #if (CYBLE_GATT_ROLE_CLIENT)
 534:.\Generated_Source\PSoC4/BLE_eventHandler.c **** 
 535:.\Generated_Source\PSoC4/BLE_eventHandler.c **** /****************************************************************************** 
 536:.\Generated_Source\PSoC4/BLE_eventHandler.c **** * Function Name: CyBle_GattcWriteResponseEventHandler
 537:.\Generated_Source\PSoC4/BLE_eventHandler.c **** ***************************************************************************//**
 538:.\Generated_Source\PSoC4/BLE_eventHandler.c **** * 
 539:.\Generated_Source\PSoC4/BLE_eventHandler.c **** *  Handles the Write response event from the BLE stack.
 540:.\Generated_Source\PSoC4/BLE_eventHandler.c **** * 
 541:.\Generated_Source\PSoC4/BLE_eventHandler.c **** *  \param eventParam: Pointer to a structure of type 'CYBLE_CONN_HANDLE_T'
 542:.\Generated_Source\PSoC4/BLE_eventHandler.c **** * 
 543:.\Generated_Source\PSoC4/BLE_eventHandler.c **** * \return
 544:.\Generated_Source\PSoC4/BLE_eventHandler.c **** *  None
 545:.\Generated_Source\PSoC4/BLE_eventHandler.c **** * 
 546:.\Generated_Source\PSoC4/BLE_eventHandler.c **** ******************************************************************************/
 547:.\Generated_Source\PSoC4/BLE_eventHandler.c **** static void CyBle_GattcWriteResponseEventHandler(const CYBLE_CONN_HANDLE_T *eventParam)
 548:.\Generated_Source\PSoC4/BLE_eventHandler.c **** {
 549:.\Generated_Source\PSoC4/BLE_eventHandler.c **** #ifdef CYBLE_ANCS_CLIENT
 550:.\Generated_Source\PSoC4/BLE_eventHandler.c ****     CyBle_AncscWriteResponseEventHandler(eventParam);
 551:.\Generated_Source\PSoC4/BLE_eventHandler.c **** #endif /* CYBLE_ANCS_CLIENT */
 552:.\Generated_Source\PSoC4/BLE_eventHandler.c **** 
 553:.\Generated_Source\PSoC4/BLE_eventHandler.c **** #ifdef CYBLE_ANS_CLIENT
 554:.\Generated_Source\PSoC4/BLE_eventHandler.c ****     if((cyBle_eventHandlerFlag & CYBLE_CALLBACK) != 0u)
 555:.\Generated_Source\PSoC4/BLE_eventHandler.c ****     {
 556:.\Generated_Source\PSoC4/BLE_eventHandler.c ****         CyBle_AnscWriteResponseEventHandler(eventParam);
 557:.\Generated_Source\PSoC4/BLE_eventHandler.c ****     }
 558:.\Generated_Source\PSoC4/BLE_eventHandler.c **** #endif /* CYBLE_ANS_CLIENT */
 559:.\Generated_Source\PSoC4/BLE_eventHandler.c **** 
 560:.\Generated_Source\PSoC4/BLE_eventHandler.c **** #ifdef CYBLE_BAS_CLIENT
 561:.\Generated_Source\PSoC4/BLE_eventHandler.c ****     if((cyBle_eventHandlerFlag & CYBLE_CALLBACK) != 0u)
 562:.\Generated_Source\PSoC4/BLE_eventHandler.c ****     {
 563:.\Generated_Source\PSoC4/BLE_eventHandler.c ****         CyBle_BascWriteResponseEventHandler(eventParam);
 564:.\Generated_Source\PSoC4/BLE_eventHandler.c ****     }
 565:.\Generated_Source\PSoC4/BLE_eventHandler.c **** #endif /* CYBLE_BAS_CLIENT */
 566:.\Generated_Source\PSoC4/BLE_eventHandler.c **** 
 567:.\Generated_Source\PSoC4/BLE_eventHandler.c **** #ifdef CYBLE_BCS_CLIENT
 568:.\Generated_Source\PSoC4/BLE_eventHandler.c ****     if((cyBle_eventHandlerFlag & CYBLE_CALLBACK) != 0u)
 569:.\Generated_Source\PSoC4/BLE_eventHandler.c ****     {
 570:.\Generated_Source\PSoC4/BLE_eventHandler.c ****         CyBle_BcscWriteResponseEventHandler(eventParam);
 571:.\Generated_Source\PSoC4/BLE_eventHandler.c ****     }
 572:.\Generated_Source\PSoC4/BLE_eventHandler.c **** #endif /* CYBLE_BCS_CLIENT */
 573:.\Generated_Source\PSoC4/BLE_eventHandler.c **** 
 574:.\Generated_Source\PSoC4/BLE_eventHandler.c **** #ifdef CYBLE_BLS_CLIENT
 575:.\Generated_Source\PSoC4/BLE_eventHandler.c ****     if((cyBle_eventHandlerFlag & CYBLE_CALLBACK) != 0u)
 576:.\Generated_Source\PSoC4/BLE_eventHandler.c ****     {
 577:.\Generated_Source\PSoC4/BLE_eventHandler.c ****         CyBle_BlscWriteResponseEventHandler(eventParam);
 578:.\Generated_Source\PSoC4/BLE_eventHandler.c ****     }
 579:.\Generated_Source\PSoC4/BLE_eventHandler.c **** #endif /* CYBLE_BLS_CLIENT */
ARM GAS  C:\Users\behrenb2\AppData\Local\Temp\ccNHrcVd.s 			page 15


 580:.\Generated_Source\PSoC4/BLE_eventHandler.c **** 
 581:.\Generated_Source\PSoC4/BLE_eventHandler.c **** #ifdef CYBLE_BMS_CLIENT
 582:.\Generated_Source\PSoC4/BLE_eventHandler.c ****     if((cyBle_eventHandlerFlag & CYBLE_CALLBACK) != 0u)
 583:.\Generated_Source\PSoC4/BLE_eventHandler.c ****     {
 584:.\Generated_Source\PSoC4/BLE_eventHandler.c ****         CyBle_BmscWriteResponseEventHandler(eventParam);
 585:.\Generated_Source\PSoC4/BLE_eventHandler.c ****     }
 586:.\Generated_Source\PSoC4/BLE_eventHandler.c **** #endif /* CYBLE_BMS_CLIENT */
 587:.\Generated_Source\PSoC4/BLE_eventHandler.c **** 
 588:.\Generated_Source\PSoC4/BLE_eventHandler.c **** #ifdef CYBLE_CGMS_CLIENT
 589:.\Generated_Source\PSoC4/BLE_eventHandler.c ****     if((cyBle_eventHandlerFlag & CYBLE_CALLBACK) != 0u)
 590:.\Generated_Source\PSoC4/BLE_eventHandler.c ****     {
 591:.\Generated_Source\PSoC4/BLE_eventHandler.c ****         CyBle_CgmscWriteResponseEventHandler(eventParam);
 592:.\Generated_Source\PSoC4/BLE_eventHandler.c ****     }
 593:.\Generated_Source\PSoC4/BLE_eventHandler.c **** #endif /* CYBLE_CGMS_CLIENT */
 594:.\Generated_Source\PSoC4/BLE_eventHandler.c **** 
 595:.\Generated_Source\PSoC4/BLE_eventHandler.c **** #ifdef CYBLE_CPS_CLIENT
 596:.\Generated_Source\PSoC4/BLE_eventHandler.c ****     if((cyBle_eventHandlerFlag & CYBLE_CALLBACK) != 0u)
 597:.\Generated_Source\PSoC4/BLE_eventHandler.c ****     {
 598:.\Generated_Source\PSoC4/BLE_eventHandler.c ****         CyBle_CpscWriteResponseEventHandler(eventParam);
 599:.\Generated_Source\PSoC4/BLE_eventHandler.c ****     }
 600:.\Generated_Source\PSoC4/BLE_eventHandler.c **** #endif /* CYBLE_CPS_CLIENT */
 601:.\Generated_Source\PSoC4/BLE_eventHandler.c **** 
 602:.\Generated_Source\PSoC4/BLE_eventHandler.c **** #ifdef CYBLE_CSCS_CLIENT
 603:.\Generated_Source\PSoC4/BLE_eventHandler.c ****     if((cyBle_eventHandlerFlag & CYBLE_CALLBACK) != 0u)
 604:.\Generated_Source\PSoC4/BLE_eventHandler.c ****     {
 605:.\Generated_Source\PSoC4/BLE_eventHandler.c ****         CyBle_CscscWriteResponseEventHandler(eventParam);
 606:.\Generated_Source\PSoC4/BLE_eventHandler.c ****     }
 607:.\Generated_Source\PSoC4/BLE_eventHandler.c **** #endif /* CYBLE_CSCS_CLIENT */
 608:.\Generated_Source\PSoC4/BLE_eventHandler.c **** 
 609:.\Generated_Source\PSoC4/BLE_eventHandler.c **** #ifdef CYBLE_CTS_CLIENT
 610:.\Generated_Source\PSoC4/BLE_eventHandler.c ****     if((cyBle_eventHandlerFlag & CYBLE_CALLBACK) != 0u)
 611:.\Generated_Source\PSoC4/BLE_eventHandler.c ****     {
 612:.\Generated_Source\PSoC4/BLE_eventHandler.c ****         CyBle_CtscWriteResponseEventHandler(eventParam);
 613:.\Generated_Source\PSoC4/BLE_eventHandler.c ****     }
 614:.\Generated_Source\PSoC4/BLE_eventHandler.c **** #endif /* CYBLE_CTS_CLIENT */
 615:.\Generated_Source\PSoC4/BLE_eventHandler.c **** 
 616:.\Generated_Source\PSoC4/BLE_eventHandler.c **** #ifdef CYBLE_ESS_CLIENT
 617:.\Generated_Source\PSoC4/BLE_eventHandler.c ****     if((cyBle_eventHandlerFlag & CYBLE_CALLBACK) != 0u)
 618:.\Generated_Source\PSoC4/BLE_eventHandler.c ****     {
 619:.\Generated_Source\PSoC4/BLE_eventHandler.c ****         CyBle_EsscWriteResponseEventHandler(eventParam);
 620:.\Generated_Source\PSoC4/BLE_eventHandler.c ****     }
 621:.\Generated_Source\PSoC4/BLE_eventHandler.c **** #endif /* CYBLE_ESS_CLIENT */
 622:.\Generated_Source\PSoC4/BLE_eventHandler.c **** 
 623:.\Generated_Source\PSoC4/BLE_eventHandler.c **** #ifdef CYBLE_GLS_CLIENT
 624:.\Generated_Source\PSoC4/BLE_eventHandler.c ****     if((cyBle_eventHandlerFlag & CYBLE_CALLBACK) != 0u)
 625:.\Generated_Source\PSoC4/BLE_eventHandler.c ****     {
 626:.\Generated_Source\PSoC4/BLE_eventHandler.c ****         CyBle_GlscWriteResponseEventHandler(eventParam);
 627:.\Generated_Source\PSoC4/BLE_eventHandler.c ****     }
 628:.\Generated_Source\PSoC4/BLE_eventHandler.c **** #endif /* CYBLE_GLS_CLIENT */
 629:.\Generated_Source\PSoC4/BLE_eventHandler.c **** 
 630:.\Generated_Source\PSoC4/BLE_eventHandler.c **** #ifdef CYBLE_HIDS_CLIENT
 631:.\Generated_Source\PSoC4/BLE_eventHandler.c ****     if((cyBle_eventHandlerFlag & CYBLE_CALLBACK) != 0u)
 632:.\Generated_Source\PSoC4/BLE_eventHandler.c ****     {
 633:.\Generated_Source\PSoC4/BLE_eventHandler.c ****         CyBle_HidscWriteResponseEventHandler(eventParam);
 634:.\Generated_Source\PSoC4/BLE_eventHandler.c ****     }
 635:.\Generated_Source\PSoC4/BLE_eventHandler.c **** #endif /* CYBLE_HIDS_CLIENT */
 636:.\Generated_Source\PSoC4/BLE_eventHandler.c **** 
ARM GAS  C:\Users\behrenb2\AppData\Local\Temp\ccNHrcVd.s 			page 16


 637:.\Generated_Source\PSoC4/BLE_eventHandler.c **** #ifdef CYBLE_HPS_CLIENT
 638:.\Generated_Source\PSoC4/BLE_eventHandler.c ****     if((cyBle_eventHandlerFlag & CYBLE_CALLBACK) != 0u)
 639:.\Generated_Source\PSoC4/BLE_eventHandler.c ****     {
 640:.\Generated_Source\PSoC4/BLE_eventHandler.c ****         CyBle_HpscWriteResponseEventHandler(eventParam);
 641:.\Generated_Source\PSoC4/BLE_eventHandler.c ****     }
 642:.\Generated_Source\PSoC4/BLE_eventHandler.c **** #endif /* CYBLE_HPS_CLIENT */
 643:.\Generated_Source\PSoC4/BLE_eventHandler.c **** 
 644:.\Generated_Source\PSoC4/BLE_eventHandler.c **** #ifdef CYBLE_HRS_CLIENT
 645:.\Generated_Source\PSoC4/BLE_eventHandler.c ****     if((cyBle_eventHandlerFlag & CYBLE_CALLBACK) != 0u)
 646:.\Generated_Source\PSoC4/BLE_eventHandler.c ****     {
 647:.\Generated_Source\PSoC4/BLE_eventHandler.c ****         CyBle_HrscWriteResponseEventHandler(eventParam);
 648:.\Generated_Source\PSoC4/BLE_eventHandler.c ****     }
 649:.\Generated_Source\PSoC4/BLE_eventHandler.c **** #endif /* CYBLE_HRS_CLIENT */
 650:.\Generated_Source\PSoC4/BLE_eventHandler.c **** 
 651:.\Generated_Source\PSoC4/BLE_eventHandler.c **** #ifdef CYBLE_HTS_CLIENT
 652:.\Generated_Source\PSoC4/BLE_eventHandler.c ****     if((cyBle_eventHandlerFlag & CYBLE_CALLBACK) != 0u)
 653:.\Generated_Source\PSoC4/BLE_eventHandler.c ****     {
 654:.\Generated_Source\PSoC4/BLE_eventHandler.c ****         CyBle_HtscWriteResponseEventHandler(eventParam);
 655:.\Generated_Source\PSoC4/BLE_eventHandler.c ****     }
 656:.\Generated_Source\PSoC4/BLE_eventHandler.c **** #endif /* CYBLE_HTS_CLIENT */
 657:.\Generated_Source\PSoC4/BLE_eventHandler.c **** 
 658:.\Generated_Source\PSoC4/BLE_eventHandler.c **** #ifdef CYBLE_IPS_CLIENT
 659:.\Generated_Source\PSoC4/BLE_eventHandler.c ****     if((cyBle_eventHandlerFlag & CYBLE_CALLBACK) != 0u)
 660:.\Generated_Source\PSoC4/BLE_eventHandler.c ****     {
 661:.\Generated_Source\PSoC4/BLE_eventHandler.c ****         CyBle_IpscWriteResponseEventHandler(eventParam);
 662:.\Generated_Source\PSoC4/BLE_eventHandler.c ****     }
 663:.\Generated_Source\PSoC4/BLE_eventHandler.c **** #endif /* CYBLE_IPS_CLIENT */
 664:.\Generated_Source\PSoC4/BLE_eventHandler.c **** 
 665:.\Generated_Source\PSoC4/BLE_eventHandler.c **** #ifdef CYBLE_LLS_CLIENT
 666:.\Generated_Source\PSoC4/BLE_eventHandler.c ****     if((cyBle_eventHandlerFlag & CYBLE_CALLBACK) != 0u)
 667:.\Generated_Source\PSoC4/BLE_eventHandler.c ****     {
 668:.\Generated_Source\PSoC4/BLE_eventHandler.c ****         CyBle_LlscWriteResponseEventHandler(eventParam);
 669:.\Generated_Source\PSoC4/BLE_eventHandler.c ****     }
 670:.\Generated_Source\PSoC4/BLE_eventHandler.c **** #endif /* CYBLE_LLS_CLIENT */
 671:.\Generated_Source\PSoC4/BLE_eventHandler.c **** 
 672:.\Generated_Source\PSoC4/BLE_eventHandler.c **** #ifdef CYBLE_LNS_CLIENT
 673:.\Generated_Source\PSoC4/BLE_eventHandler.c ****     if((cyBle_eventHandlerFlag & CYBLE_CALLBACK) != 0u)
 674:.\Generated_Source\PSoC4/BLE_eventHandler.c ****     {
 675:.\Generated_Source\PSoC4/BLE_eventHandler.c ****         CyBle_LnscWriteResponseEventHandler(eventParam);
 676:.\Generated_Source\PSoC4/BLE_eventHandler.c ****     }
 677:.\Generated_Source\PSoC4/BLE_eventHandler.c **** #endif /* CYBLE_LNS_CLIENT */
 678:.\Generated_Source\PSoC4/BLE_eventHandler.c **** 
 679:.\Generated_Source\PSoC4/BLE_eventHandler.c **** #ifdef CYBLE_PASS_CLIENT
 680:.\Generated_Source\PSoC4/BLE_eventHandler.c ****     if((cyBle_eventHandlerFlag & CYBLE_CALLBACK) != 0u)
 681:.\Generated_Source\PSoC4/BLE_eventHandler.c ****     {
 682:.\Generated_Source\PSoC4/BLE_eventHandler.c ****         CyBle_PasscWriteResponseEventHandler(eventParam);
 683:.\Generated_Source\PSoC4/BLE_eventHandler.c ****     }
 684:.\Generated_Source\PSoC4/BLE_eventHandler.c **** #endif /* CYBLE_PASS_CLIENT */
 685:.\Generated_Source\PSoC4/BLE_eventHandler.c **** 
 686:.\Generated_Source\PSoC4/BLE_eventHandler.c **** #ifdef CYBLE_RSCS_CLIENT
 687:.\Generated_Source\PSoC4/BLE_eventHandler.c ****     if((cyBle_eventHandlerFlag & CYBLE_CALLBACK) != 0u)
 688:.\Generated_Source\PSoC4/BLE_eventHandler.c ****     {
 689:.\Generated_Source\PSoC4/BLE_eventHandler.c ****         CyBle_RscscWriteResponseEventHandler(eventParam);
 690:.\Generated_Source\PSoC4/BLE_eventHandler.c ****     }
 691:.\Generated_Source\PSoC4/BLE_eventHandler.c **** #endif /* CYBLE_RSCS_CLIENT */
 692:.\Generated_Source\PSoC4/BLE_eventHandler.c **** 
 693:.\Generated_Source\PSoC4/BLE_eventHandler.c **** #ifdef CYBLE_SCPS_CLIENT
ARM GAS  C:\Users\behrenb2\AppData\Local\Temp\ccNHrcVd.s 			page 17


 694:.\Generated_Source\PSoC4/BLE_eventHandler.c ****     if((cyBle_eventHandlerFlag & CYBLE_CALLBACK) != 0u)
 695:.\Generated_Source\PSoC4/BLE_eventHandler.c ****     {
 696:.\Generated_Source\PSoC4/BLE_eventHandler.c ****         CyBle_ScpscWriteResponseEventHandler(eventParam);
 697:.\Generated_Source\PSoC4/BLE_eventHandler.c ****     }
 698:.\Generated_Source\PSoC4/BLE_eventHandler.c **** #endif /* CYBLE_SCPS_CLIENT */
 699:.\Generated_Source\PSoC4/BLE_eventHandler.c **** 
 700:.\Generated_Source\PSoC4/BLE_eventHandler.c **** #ifdef CYBLE_TPS_CLIENT
 701:.\Generated_Source\PSoC4/BLE_eventHandler.c ****     if((cyBle_eventHandlerFlag & CYBLE_CALLBACK) != 0u)
 702:.\Generated_Source\PSoC4/BLE_eventHandler.c ****     {
 703:.\Generated_Source\PSoC4/BLE_eventHandler.c ****         CyBle_TpscWriteResponseEventHandler(eventParam);
 704:.\Generated_Source\PSoC4/BLE_eventHandler.c ****     }
 705:.\Generated_Source\PSoC4/BLE_eventHandler.c **** #endif /* CYBLE_TPS_CLIENT */
 706:.\Generated_Source\PSoC4/BLE_eventHandler.c **** 
 707:.\Generated_Source\PSoC4/BLE_eventHandler.c **** #ifdef CYBLE_UDS_CLIENT
 708:.\Generated_Source\PSoC4/BLE_eventHandler.c ****     if((cyBle_eventHandlerFlag & CYBLE_CALLBACK) != 0u)
 709:.\Generated_Source\PSoC4/BLE_eventHandler.c ****     {
 710:.\Generated_Source\PSoC4/BLE_eventHandler.c ****         CyBle_UdscWriteResponseEventHandler(eventParam);
 711:.\Generated_Source\PSoC4/BLE_eventHandler.c ****     }
 712:.\Generated_Source\PSoC4/BLE_eventHandler.c **** #endif /* CYBLE_UDS_CLIENT */
 713:.\Generated_Source\PSoC4/BLE_eventHandler.c **** #ifdef CYBLE_WPTS_CLIENT
 714:.\Generated_Source\PSoC4/BLE_eventHandler.c ****     if((cyBle_eventHandlerFlag & CYBLE_CALLBACK) != 0u)
 715:.\Generated_Source\PSoC4/BLE_eventHandler.c ****     {
 716:.\Generated_Source\PSoC4/BLE_eventHandler.c ****         CyBle_WptscWriteResponseEventHandler(eventParam);
 717:.\Generated_Source\PSoC4/BLE_eventHandler.c ****     }
 718:.\Generated_Source\PSoC4/BLE_eventHandler.c **** #endif /* CYBLE_WPTS_CLIENT */
 719:.\Generated_Source\PSoC4/BLE_eventHandler.c **** #ifdef CYBLE_WSS_CLIENT
 720:.\Generated_Source\PSoC4/BLE_eventHandler.c ****     if((cyBle_eventHandlerFlag & CYBLE_CALLBACK) != 0u)
 721:.\Generated_Source\PSoC4/BLE_eventHandler.c ****     {
 722:.\Generated_Source\PSoC4/BLE_eventHandler.c ****         CyBle_WsscWriteResponseEventHandler(eventParam);
 723:.\Generated_Source\PSoC4/BLE_eventHandler.c ****     }
 724:.\Generated_Source\PSoC4/BLE_eventHandler.c **** #endif /* CYBLE_WSS_CLIENT */
 725:.\Generated_Source\PSoC4/BLE_eventHandler.c **** }
 726:.\Generated_Source\PSoC4/BLE_eventHandler.c **** 
 727:.\Generated_Source\PSoC4/BLE_eventHandler.c **** 
 728:.\Generated_Source\PSoC4/BLE_eventHandler.c **** /******************************************************************************    
 729:.\Generated_Source\PSoC4/BLE_eventHandler.c **** * Function Name: CyBle_NotificationEventHandler
 730:.\Generated_Source\PSoC4/BLE_eventHandler.c **** ***************************************************************************//**
 731:.\Generated_Source\PSoC4/BLE_eventHandler.c **** * 
 732:.\Generated_Source\PSoC4/BLE_eventHandler.c **** *  Handles the Notification event from BLE stack.
 733:.\Generated_Source\PSoC4/BLE_eventHandler.c **** * 
 734:.\Generated_Source\PSoC4/BLE_eventHandler.c **** *  \param eventParam: event parameter
 735:.\Generated_Source\PSoC4/BLE_eventHandler.c **** * 
 736:.\Generated_Source\PSoC4/BLE_eventHandler.c **** * \return
 737:.\Generated_Source\PSoC4/BLE_eventHandler.c **** *  None
 738:.\Generated_Source\PSoC4/BLE_eventHandler.c **** * 
 739:.\Generated_Source\PSoC4/BLE_eventHandler.c **** ******************************************************************************/
 740:.\Generated_Source\PSoC4/BLE_eventHandler.c **** static void CyBle_NotificationEventHandler(CYBLE_GATTC_HANDLE_VALUE_NTF_PARAM_T *eventParam)
 741:.\Generated_Source\PSoC4/BLE_eventHandler.c **** {
 742:.\Generated_Source\PSoC4/BLE_eventHandler.c **** #ifdef CYBLE_ANCS_CLIENT
 743:.\Generated_Source\PSoC4/BLE_eventHandler.c ****     CyBle_AncscNotificationEventHandler(eventParam);
 744:.\Generated_Source\PSoC4/BLE_eventHandler.c **** #endif /* CYBLE_ANCS_CLIENT */
 745:.\Generated_Source\PSoC4/BLE_eventHandler.c **** #ifdef CYBLE_ANS_CLIENT
 746:.\Generated_Source\PSoC4/BLE_eventHandler.c ****     if((cyBle_eventHandlerFlag & CYBLE_CALLBACK) != 0u)
 747:.\Generated_Source\PSoC4/BLE_eventHandler.c ****     {
 748:.\Generated_Source\PSoC4/BLE_eventHandler.c ****         CyBle_AnscNotificationEventHandler(eventParam);
 749:.\Generated_Source\PSoC4/BLE_eventHandler.c ****     }
 750:.\Generated_Source\PSoC4/BLE_eventHandler.c **** #endif /* CYBLE_ANS_CLIENT */
ARM GAS  C:\Users\behrenb2\AppData\Local\Temp\ccNHrcVd.s 			page 18


 751:.\Generated_Source\PSoC4/BLE_eventHandler.c **** #ifdef CYBLE_BAS_CLIENT
 752:.\Generated_Source\PSoC4/BLE_eventHandler.c ****     if((cyBle_eventHandlerFlag & CYBLE_CALLBACK) != 0u)
 753:.\Generated_Source\PSoC4/BLE_eventHandler.c ****     {
 754:.\Generated_Source\PSoC4/BLE_eventHandler.c ****         CyBle_BascNotificationEventHandler(eventParam);
 755:.\Generated_Source\PSoC4/BLE_eventHandler.c ****     }
 756:.\Generated_Source\PSoC4/BLE_eventHandler.c **** #endif /* CYBLE_BAS_CLIENT */
 757:.\Generated_Source\PSoC4/BLE_eventHandler.c **** #ifdef CYBLE_BLS_CLIENT
 758:.\Generated_Source\PSoC4/BLE_eventHandler.c ****     if((cyBle_eventHandlerFlag & CYBLE_CALLBACK) != 0u)
 759:.\Generated_Source\PSoC4/BLE_eventHandler.c ****     {
 760:.\Generated_Source\PSoC4/BLE_eventHandler.c ****         CyBle_BlscNotificationEventHandler(eventParam);
 761:.\Generated_Source\PSoC4/BLE_eventHandler.c ****     }
 762:.\Generated_Source\PSoC4/BLE_eventHandler.c **** #endif /* CYBLE_BLS_CLIENT */
 763:.\Generated_Source\PSoC4/BLE_eventHandler.c **** #ifdef CYBLE_CGMS_CLIENT
 764:.\Generated_Source\PSoC4/BLE_eventHandler.c ****     if((cyBle_eventHandlerFlag & CYBLE_CALLBACK) != 0u)
 765:.\Generated_Source\PSoC4/BLE_eventHandler.c ****     {
 766:.\Generated_Source\PSoC4/BLE_eventHandler.c ****         CyBle_CgmscNotificationEventHandler(eventParam);
 767:.\Generated_Source\PSoC4/BLE_eventHandler.c ****     }
 768:.\Generated_Source\PSoC4/BLE_eventHandler.c **** #endif /* CYBLE_CGMS_CLIENT */
 769:.\Generated_Source\PSoC4/BLE_eventHandler.c **** #ifdef CYBLE_CPS_CLIENT
 770:.\Generated_Source\PSoC4/BLE_eventHandler.c ****     if((cyBle_eventHandlerFlag & CYBLE_CALLBACK) != 0u)
 771:.\Generated_Source\PSoC4/BLE_eventHandler.c ****     {
 772:.\Generated_Source\PSoC4/BLE_eventHandler.c ****         CyBle_CpscNotificationEventHandler(eventParam);
 773:.\Generated_Source\PSoC4/BLE_eventHandler.c ****     }
 774:.\Generated_Source\PSoC4/BLE_eventHandler.c **** #endif /* CYBLE_CPS_CLIENT */
 775:.\Generated_Source\PSoC4/BLE_eventHandler.c **** #ifdef CYBLE_CSCS_CLIENT
 776:.\Generated_Source\PSoC4/BLE_eventHandler.c ****     if((cyBle_eventHandlerFlag & CYBLE_CALLBACK) != 0u)
 777:.\Generated_Source\PSoC4/BLE_eventHandler.c ****     {
 778:.\Generated_Source\PSoC4/BLE_eventHandler.c ****         CyBle_CscscNotificationEventHandler(eventParam);
 779:.\Generated_Source\PSoC4/BLE_eventHandler.c ****     }
 780:.\Generated_Source\PSoC4/BLE_eventHandler.c **** #endif /* CYBLE_CSCS_CLIENT */
 781:.\Generated_Source\PSoC4/BLE_eventHandler.c **** #ifdef CYBLE_CTS_CLIENT
 782:.\Generated_Source\PSoC4/BLE_eventHandler.c ****     if((cyBle_eventHandlerFlag & CYBLE_CALLBACK) != 0u)
 783:.\Generated_Source\PSoC4/BLE_eventHandler.c ****     {
 784:.\Generated_Source\PSoC4/BLE_eventHandler.c ****         CyBle_CtscNotificationEventHandler(eventParam);
 785:.\Generated_Source\PSoC4/BLE_eventHandler.c ****     }
 786:.\Generated_Source\PSoC4/BLE_eventHandler.c **** #endif /* CYBLE_CTS_CLIENT */
 787:.\Generated_Source\PSoC4/BLE_eventHandler.c **** #ifdef CYBLE_ESS_CLIENT
 788:.\Generated_Source\PSoC4/BLE_eventHandler.c ****     if((cyBle_eventHandlerFlag & CYBLE_CALLBACK) != 0u)
 789:.\Generated_Source\PSoC4/BLE_eventHandler.c ****     {
 790:.\Generated_Source\PSoC4/BLE_eventHandler.c ****         CyBle_EsscNotificationEventHandler(eventParam);
 791:.\Generated_Source\PSoC4/BLE_eventHandler.c ****     }
 792:.\Generated_Source\PSoC4/BLE_eventHandler.c **** #endif /* CYBLE_ESS_CLIENT */
 793:.\Generated_Source\PSoC4/BLE_eventHandler.c **** #ifdef CYBLE_GLS_CLIENT
 794:.\Generated_Source\PSoC4/BLE_eventHandler.c ****     if((cyBle_eventHandlerFlag & CYBLE_CALLBACK) != 0u)
 795:.\Generated_Source\PSoC4/BLE_eventHandler.c ****     {
 796:.\Generated_Source\PSoC4/BLE_eventHandler.c ****         CyBle_GlscNotificationEventHandler(eventParam);
 797:.\Generated_Source\PSoC4/BLE_eventHandler.c ****     }
 798:.\Generated_Source\PSoC4/BLE_eventHandler.c **** #endif /* CYBLE_GLS_CLIENT */
 799:.\Generated_Source\PSoC4/BLE_eventHandler.c **** #ifdef CYBLE_HIDS_CLIENT
 800:.\Generated_Source\PSoC4/BLE_eventHandler.c ****     if((cyBle_eventHandlerFlag & CYBLE_CALLBACK) != 0u)
 801:.\Generated_Source\PSoC4/BLE_eventHandler.c ****     {
 802:.\Generated_Source\PSoC4/BLE_eventHandler.c ****         CyBle_HidscNotificationEventHandler(eventParam);
 803:.\Generated_Source\PSoC4/BLE_eventHandler.c ****     }
 804:.\Generated_Source\PSoC4/BLE_eventHandler.c **** #endif /* CYBLE_HIDS_CLIENT */
 805:.\Generated_Source\PSoC4/BLE_eventHandler.c **** #ifdef CYBLE_HPS_CLIENT
 806:.\Generated_Source\PSoC4/BLE_eventHandler.c ****     if((cyBle_eventHandlerFlag & CYBLE_CALLBACK) != 0u)
 807:.\Generated_Source\PSoC4/BLE_eventHandler.c ****     {
ARM GAS  C:\Users\behrenb2\AppData\Local\Temp\ccNHrcVd.s 			page 19


 808:.\Generated_Source\PSoC4/BLE_eventHandler.c ****         CyBle_HpscNotificationEventHandler(eventParam);
 809:.\Generated_Source\PSoC4/BLE_eventHandler.c ****     }
 810:.\Generated_Source\PSoC4/BLE_eventHandler.c **** #endif /* CYBLE_HPS_CLIENT */
 811:.\Generated_Source\PSoC4/BLE_eventHandler.c **** #ifdef CYBLE_HRS_CLIENT
 812:.\Generated_Source\PSoC4/BLE_eventHandler.c ****     if((cyBle_eventHandlerFlag & CYBLE_CALLBACK) != 0u)
 813:.\Generated_Source\PSoC4/BLE_eventHandler.c ****     {
 814:.\Generated_Source\PSoC4/BLE_eventHandler.c ****         CyBle_HrscNotificationEventHandler(eventParam);
 815:.\Generated_Source\PSoC4/BLE_eventHandler.c ****     }
 816:.\Generated_Source\PSoC4/BLE_eventHandler.c **** #endif /* CYBLE_HRS_CLIENT */
 817:.\Generated_Source\PSoC4/BLE_eventHandler.c **** #ifdef CYBLE_HTS_CLIENT
 818:.\Generated_Source\PSoC4/BLE_eventHandler.c ****     if((cyBle_eventHandlerFlag & CYBLE_CALLBACK) != 0u)
 819:.\Generated_Source\PSoC4/BLE_eventHandler.c ****     {
 820:.\Generated_Source\PSoC4/BLE_eventHandler.c ****         CyBle_HtscNotificationEventHandler(eventParam);
 821:.\Generated_Source\PSoC4/BLE_eventHandler.c ****     }
 822:.\Generated_Source\PSoC4/BLE_eventHandler.c **** #endif /* CYBLE_HTS_CLIENT */
 823:.\Generated_Source\PSoC4/BLE_eventHandler.c **** #ifdef CYBLE_LNS_CLIENT
 824:.\Generated_Source\PSoC4/BLE_eventHandler.c ****     if((cyBle_eventHandlerFlag & CYBLE_CALLBACK) != 0u)
 825:.\Generated_Source\PSoC4/BLE_eventHandler.c ****     {
 826:.\Generated_Source\PSoC4/BLE_eventHandler.c ****         CyBle_LnscNotificationEventHandler(eventParam);
 827:.\Generated_Source\PSoC4/BLE_eventHandler.c ****     }
 828:.\Generated_Source\PSoC4/BLE_eventHandler.c **** #endif /* CYBLE_LNS_CLIENT */
 829:.\Generated_Source\PSoC4/BLE_eventHandler.c **** #ifdef CYBLE_PASS_CLIENT
 830:.\Generated_Source\PSoC4/BLE_eventHandler.c ****     if((cyBle_eventHandlerFlag & CYBLE_CALLBACK) != 0u)
 831:.\Generated_Source\PSoC4/BLE_eventHandler.c ****     {
 832:.\Generated_Source\PSoC4/BLE_eventHandler.c ****         CyBle_PasscNotificationEventHandler(eventParam);
 833:.\Generated_Source\PSoC4/BLE_eventHandler.c ****     }
 834:.\Generated_Source\PSoC4/BLE_eventHandler.c **** #endif /* CYBLE_PASS_CLIENT */
 835:.\Generated_Source\PSoC4/BLE_eventHandler.c **** #ifdef CYBLE_RSCS_CLIENT
 836:.\Generated_Source\PSoC4/BLE_eventHandler.c ****     if((cyBle_eventHandlerFlag & CYBLE_CALLBACK) != 0u)
 837:.\Generated_Source\PSoC4/BLE_eventHandler.c ****     {
 838:.\Generated_Source\PSoC4/BLE_eventHandler.c ****         CyBle_RscscNotificationEventHandler(eventParam);
 839:.\Generated_Source\PSoC4/BLE_eventHandler.c ****     }
 840:.\Generated_Source\PSoC4/BLE_eventHandler.c **** #endif /* CYBLE_RSCS_CLIENT */
 841:.\Generated_Source\PSoC4/BLE_eventHandler.c **** #ifdef CYBLE_SCPS_CLIENT
 842:.\Generated_Source\PSoC4/BLE_eventHandler.c ****     if((cyBle_eventHandlerFlag & CYBLE_CALLBACK) != 0u)
 843:.\Generated_Source\PSoC4/BLE_eventHandler.c ****     {
 844:.\Generated_Source\PSoC4/BLE_eventHandler.c ****         CyBle_ScpscNotificationEventHandler(eventParam);
 845:.\Generated_Source\PSoC4/BLE_eventHandler.c ****     }
 846:.\Generated_Source\PSoC4/BLE_eventHandler.c **** #endif /* CYBLE_SCPS_CLIENT */
 847:.\Generated_Source\PSoC4/BLE_eventHandler.c **** #ifdef CYBLE_TPS_CLIENT
 848:.\Generated_Source\PSoC4/BLE_eventHandler.c ****     if((cyBle_eventHandlerFlag & CYBLE_CALLBACK) != 0u)
 849:.\Generated_Source\PSoC4/BLE_eventHandler.c ****     {
 850:.\Generated_Source\PSoC4/BLE_eventHandler.c ****         CyBle_TpscNotificationEventHandler(eventParam);
 851:.\Generated_Source\PSoC4/BLE_eventHandler.c ****     }
 852:.\Generated_Source\PSoC4/BLE_eventHandler.c **** #endif /* CYBLE_TPS_CLIENT */
 853:.\Generated_Source\PSoC4/BLE_eventHandler.c **** #ifdef CYBLE_UDS_CLIENT
 854:.\Generated_Source\PSoC4/BLE_eventHandler.c ****     if((cyBle_eventHandlerFlag & CYBLE_CALLBACK) != 0u)
 855:.\Generated_Source\PSoC4/BLE_eventHandler.c ****     {
 856:.\Generated_Source\PSoC4/BLE_eventHandler.c ****         CyBle_UdscNotificationEventHandler(eventParam);
 857:.\Generated_Source\PSoC4/BLE_eventHandler.c ****     }
 858:.\Generated_Source\PSoC4/BLE_eventHandler.c **** #endif /* CYBLE_UDS_CLIENT */
 859:.\Generated_Source\PSoC4/BLE_eventHandler.c **** #ifdef CYBLE_WPTS_CLIENT
 860:.\Generated_Source\PSoC4/BLE_eventHandler.c ****     if((cyBle_eventHandlerFlag & CYBLE_CALLBACK) != 0u)
 861:.\Generated_Source\PSoC4/BLE_eventHandler.c ****     {
 862:.\Generated_Source\PSoC4/BLE_eventHandler.c ****         CyBle_WptscNotificationEventHandler(eventParam);
 863:.\Generated_Source\PSoC4/BLE_eventHandler.c ****     }
 864:.\Generated_Source\PSoC4/BLE_eventHandler.c **** #endif /* CYBLE_WPTS_CLIENT */
ARM GAS  C:\Users\behrenb2\AppData\Local\Temp\ccNHrcVd.s 			page 20


 865:.\Generated_Source\PSoC4/BLE_eventHandler.c **** }
 866:.\Generated_Source\PSoC4/BLE_eventHandler.c **** 
 867:.\Generated_Source\PSoC4/BLE_eventHandler.c **** 
 868:.\Generated_Source\PSoC4/BLE_eventHandler.c **** /******************************************************************************    
 869:.\Generated_Source\PSoC4/BLE_eventHandler.c **** * Function Name: CyBle_IndicationEventHandler
 870:.\Generated_Source\PSoC4/BLE_eventHandler.c **** ***************************************************************************//**
 871:.\Generated_Source\PSoC4/BLE_eventHandler.c **** * 
 872:.\Generated_Source\PSoC4/BLE_eventHandler.c **** *  Handles the Indication event from BLE stack.
 873:.\Generated_Source\PSoC4/BLE_eventHandler.c **** * 
 874:.\Generated_Source\PSoC4/BLE_eventHandler.c **** *  \param eventParam: event parameter
 875:.\Generated_Source\PSoC4/BLE_eventHandler.c **** * 
 876:.\Generated_Source\PSoC4/BLE_eventHandler.c **** * \return
 877:.\Generated_Source\PSoC4/BLE_eventHandler.c **** *  None
 878:.\Generated_Source\PSoC4/BLE_eventHandler.c **** * 
 879:.\Generated_Source\PSoC4/BLE_eventHandler.c **** ******************************************************************************/
 880:.\Generated_Source\PSoC4/BLE_eventHandler.c **** static void CyBle_IndicationEventHandler(CYBLE_GATTC_HANDLE_VALUE_IND_PARAM_T *eventParam)
 881:.\Generated_Source\PSoC4/BLE_eventHandler.c **** {
 882:.\Generated_Source\PSoC4/BLE_eventHandler.c **** #ifdef CYBLE_BCS_CLIENT
 883:.\Generated_Source\PSoC4/BLE_eventHandler.c ****     if((cyBle_eventHandlerFlag & CYBLE_CALLBACK) != 0u)
 884:.\Generated_Source\PSoC4/BLE_eventHandler.c ****     {
 885:.\Generated_Source\PSoC4/BLE_eventHandler.c ****         CyBle_BcscIndicationEventHandler(eventParam);
 886:.\Generated_Source\PSoC4/BLE_eventHandler.c ****     }
 887:.\Generated_Source\PSoC4/BLE_eventHandler.c **** #endif /* CYBLE_BCS_CLIENT */
 888:.\Generated_Source\PSoC4/BLE_eventHandler.c **** #ifdef CYBLE_BLS_CLIENT
 889:.\Generated_Source\PSoC4/BLE_eventHandler.c ****     if((cyBle_eventHandlerFlag & CYBLE_CALLBACK) != 0u)
 890:.\Generated_Source\PSoC4/BLE_eventHandler.c ****     {
 891:.\Generated_Source\PSoC4/BLE_eventHandler.c ****         CyBle_BlscIndicationEventHandler(eventParam);
 892:.\Generated_Source\PSoC4/BLE_eventHandler.c ****     }
 893:.\Generated_Source\PSoC4/BLE_eventHandler.c **** #endif /* CYBLE_BLS_CLIENT */
 894:.\Generated_Source\PSoC4/BLE_eventHandler.c **** #ifdef CYBLE_CGMS_CLIENT
 895:.\Generated_Source\PSoC4/BLE_eventHandler.c ****     if((cyBle_eventHandlerFlag & CYBLE_CALLBACK) != 0u)
 896:.\Generated_Source\PSoC4/BLE_eventHandler.c ****     {
 897:.\Generated_Source\PSoC4/BLE_eventHandler.c ****         CyBle_CgmscIndicationEventHandler(eventParam);
 898:.\Generated_Source\PSoC4/BLE_eventHandler.c ****     }
 899:.\Generated_Source\PSoC4/BLE_eventHandler.c **** #endif /* CYBLE_CGMS_CLIENT */
 900:.\Generated_Source\PSoC4/BLE_eventHandler.c **** #ifdef CYBLE_CPS_CLIENT
 901:.\Generated_Source\PSoC4/BLE_eventHandler.c ****     if((cyBle_eventHandlerFlag & CYBLE_CALLBACK) != 0u)
 902:.\Generated_Source\PSoC4/BLE_eventHandler.c ****     {
 903:.\Generated_Source\PSoC4/BLE_eventHandler.c ****         CyBle_CpscIndicationEventHandler(eventParam);
 904:.\Generated_Source\PSoC4/BLE_eventHandler.c ****     }
 905:.\Generated_Source\PSoC4/BLE_eventHandler.c **** #endif /* CYBLE_CPS_CLIENT */
 906:.\Generated_Source\PSoC4/BLE_eventHandler.c **** #ifdef CYBLE_CSCS_CLIENT
 907:.\Generated_Source\PSoC4/BLE_eventHandler.c ****     if((cyBle_eventHandlerFlag & CYBLE_CALLBACK) != 0u)
 908:.\Generated_Source\PSoC4/BLE_eventHandler.c ****     {
 909:.\Generated_Source\PSoC4/BLE_eventHandler.c ****         CyBle_CscscIndicationEventHandler(eventParam);
 910:.\Generated_Source\PSoC4/BLE_eventHandler.c ****     }
 911:.\Generated_Source\PSoC4/BLE_eventHandler.c **** #endif /* CYBLE_CSCS_CLIENT */
 912:.\Generated_Source\PSoC4/BLE_eventHandler.c **** #ifdef CYBLE_ESS_CLIENT
 913:.\Generated_Source\PSoC4/BLE_eventHandler.c ****     if((cyBle_eventHandlerFlag & CYBLE_CALLBACK) != 0u)
 914:.\Generated_Source\PSoC4/BLE_eventHandler.c ****     {
 915:.\Generated_Source\PSoC4/BLE_eventHandler.c ****         CyBle_EsscIndicationEventHandler(eventParam);
 916:.\Generated_Source\PSoC4/BLE_eventHandler.c ****     }
 917:.\Generated_Source\PSoC4/BLE_eventHandler.c **** #endif /* CYBLE_ESS_CLIENT */
 918:.\Generated_Source\PSoC4/BLE_eventHandler.c **** #ifdef CYBLE_GLS_CLIENT
 919:.\Generated_Source\PSoC4/BLE_eventHandler.c ****     if((cyBle_eventHandlerFlag & CYBLE_CALLBACK) != 0u)
 920:.\Generated_Source\PSoC4/BLE_eventHandler.c ****     {
 921:.\Generated_Source\PSoC4/BLE_eventHandler.c ****         CyBle_GlscIndicationEventHandler(eventParam);
ARM GAS  C:\Users\behrenb2\AppData\Local\Temp\ccNHrcVd.s 			page 21


 922:.\Generated_Source\PSoC4/BLE_eventHandler.c ****     }
 923:.\Generated_Source\PSoC4/BLE_eventHandler.c **** #endif /* CYBLE_GLS_CLIENT */
 924:.\Generated_Source\PSoC4/BLE_eventHandler.c **** #ifdef CYBLE_HTS_CLIENT
 925:.\Generated_Source\PSoC4/BLE_eventHandler.c ****     if((cyBle_eventHandlerFlag & CYBLE_CALLBACK) != 0u)
 926:.\Generated_Source\PSoC4/BLE_eventHandler.c ****     {
 927:.\Generated_Source\PSoC4/BLE_eventHandler.c ****         CyBle_HtscIndicationEventHandler(eventParam);
 928:.\Generated_Source\PSoC4/BLE_eventHandler.c ****     }
 929:.\Generated_Source\PSoC4/BLE_eventHandler.c **** #endif /* CYBLE_HTS_CLIENT */
 930:.\Generated_Source\PSoC4/BLE_eventHandler.c **** #ifdef CYBLE_LNS_CLIENT
 931:.\Generated_Source\PSoC4/BLE_eventHandler.c ****     if((cyBle_eventHandlerFlag & CYBLE_CALLBACK) != 0u)
 932:.\Generated_Source\PSoC4/BLE_eventHandler.c ****     {
 933:.\Generated_Source\PSoC4/BLE_eventHandler.c ****         CyBle_LnscIndicationEventHandler(eventParam);
 934:.\Generated_Source\PSoC4/BLE_eventHandler.c ****     }
 935:.\Generated_Source\PSoC4/BLE_eventHandler.c **** #endif /* CYBLE_LNS_CLIENT */
 936:.\Generated_Source\PSoC4/BLE_eventHandler.c **** #ifdef CYBLE_RSCS_CLIENT
 937:.\Generated_Source\PSoC4/BLE_eventHandler.c ****     if((cyBle_eventHandlerFlag & CYBLE_CALLBACK) != 0u)
 938:.\Generated_Source\PSoC4/BLE_eventHandler.c ****     {
 939:.\Generated_Source\PSoC4/BLE_eventHandler.c ****         CyBle_RscscIndicationEventHandler(eventParam);
 940:.\Generated_Source\PSoC4/BLE_eventHandler.c ****     }
 941:.\Generated_Source\PSoC4/BLE_eventHandler.c **** #endif /* CYBLE_RSCS_CLIENT */
 942:.\Generated_Source\PSoC4/BLE_eventHandler.c **** #ifdef CYBLE_UDS_CLIENT
 943:.\Generated_Source\PSoC4/BLE_eventHandler.c ****     if((cyBle_eventHandlerFlag & CYBLE_CALLBACK) != 0u)
 944:.\Generated_Source\PSoC4/BLE_eventHandler.c ****     {
 945:.\Generated_Source\PSoC4/BLE_eventHandler.c ****         CyBle_UdscIndicationEventHandler(eventParam);
 946:.\Generated_Source\PSoC4/BLE_eventHandler.c ****     }
 947:.\Generated_Source\PSoC4/BLE_eventHandler.c **** #endif /* CYBLE_UDS_CLIENT */
 948:.\Generated_Source\PSoC4/BLE_eventHandler.c **** #ifdef CYBLE_WPTS_CLIENT
 949:.\Generated_Source\PSoC4/BLE_eventHandler.c ****     if((cyBle_eventHandlerFlag & CYBLE_CALLBACK) != 0u)
 950:.\Generated_Source\PSoC4/BLE_eventHandler.c ****     {
 951:.\Generated_Source\PSoC4/BLE_eventHandler.c ****         CyBle_WptscIndicationEventHandler(eventParam);
 952:.\Generated_Source\PSoC4/BLE_eventHandler.c ****     }
 953:.\Generated_Source\PSoC4/BLE_eventHandler.c **** #endif /* CYBLE_WPTS_CLIENT */
 954:.\Generated_Source\PSoC4/BLE_eventHandler.c **** #ifdef CYBLE_WSS_CLIENT
 955:.\Generated_Source\PSoC4/BLE_eventHandler.c ****     if((cyBle_eventHandlerFlag & CYBLE_CALLBACK) != 0u)
 956:.\Generated_Source\PSoC4/BLE_eventHandler.c ****     {
 957:.\Generated_Source\PSoC4/BLE_eventHandler.c ****         CyBle_WsscIndicationEventHandler(eventParam);
 958:.\Generated_Source\PSoC4/BLE_eventHandler.c ****     }
 959:.\Generated_Source\PSoC4/BLE_eventHandler.c **** #endif /* CYBLE_WSS_CLIENT */
 960:.\Generated_Source\PSoC4/BLE_eventHandler.c **** }
 961:.\Generated_Source\PSoC4/BLE_eventHandler.c **** 
 962:.\Generated_Source\PSoC4/BLE_eventHandler.c **** 
 963:.\Generated_Source\PSoC4/BLE_eventHandler.c **** 
 964:.\Generated_Source\PSoC4/BLE_eventHandler.c **** /******************************************************************************    
 965:.\Generated_Source\PSoC4/BLE_eventHandler.c **** * Function Name: CyBle_ReadResponseEventHandler
 966:.\Generated_Source\PSoC4/BLE_eventHandler.c **** ***************************************************************************//**
 967:.\Generated_Source\PSoC4/BLE_eventHandler.c **** * 
 968:.\Generated_Source\PSoC4/BLE_eventHandler.c **** *  Handles the Read Response event from BLE stack.
 969:.\Generated_Source\PSoC4/BLE_eventHandler.c **** * 
 970:.\Generated_Source\PSoC4/BLE_eventHandler.c **** *  \param eventParam: event parameter
 971:.\Generated_Source\PSoC4/BLE_eventHandler.c **** * 
 972:.\Generated_Source\PSoC4/BLE_eventHandler.c **** * \return
 973:.\Generated_Source\PSoC4/BLE_eventHandler.c **** *  None
 974:.\Generated_Source\PSoC4/BLE_eventHandler.c **** * 
 975:.\Generated_Source\PSoC4/BLE_eventHandler.c **** ******************************************************************************/
 976:.\Generated_Source\PSoC4/BLE_eventHandler.c **** static void CyBle_ReadResponseEventHandler(CYBLE_GATTC_READ_RSP_PARAM_T *eventParam)
 977:.\Generated_Source\PSoC4/BLE_eventHandler.c **** {
 978:.\Generated_Source\PSoC4/BLE_eventHandler.c **** #ifdef CYBLE_CUSTOM_CLIENT
ARM GAS  C:\Users\behrenb2\AppData\Local\Temp\ccNHrcVd.s 			page 22


 979:.\Generated_Source\PSoC4/BLE_eventHandler.c ****     /* Read response with 128-bit included service uuid */
 980:.\Generated_Source\PSoC4/BLE_eventHandler.c ****     if((CYBLE_CLIENT_STATE_INCL_DISCOVERING == CyBle_GetClientState()) &&
 981:.\Generated_Source\PSoC4/BLE_eventHandler.c ****        (cyBle_discInclInfo.inclDefHandle != 0u))
 982:.\Generated_Source\PSoC4/BLE_eventHandler.c ****     {
 983:.\Generated_Source\PSoC4/BLE_eventHandler.c ****         CYBLE_DISC_SRVC128_INFO_T discServInfo;
 984:.\Generated_Source\PSoC4/BLE_eventHandler.c **** 
 985:.\Generated_Source\PSoC4/BLE_eventHandler.c ****         /* Store service range */
 986:.\Generated_Source\PSoC4/BLE_eventHandler.c ****         discServInfo.range = cyBle_discInclInfo.inclHandleRange;
 987:.\Generated_Source\PSoC4/BLE_eventHandler.c ****         (void)memcpy((void *) discServInfo.uuid.uuid128.value, (void *)eventParam->value.val, event
 988:.\Generated_Source\PSoC4/BLE_eventHandler.c ****         CyBle_CustomcDiscoverServiceEventHandler(&discServInfo);
 989:.\Generated_Source\PSoC4/BLE_eventHandler.c ****         
 990:.\Generated_Source\PSoC4/BLE_eventHandler.c ****         /* Re-initiate CyBle_GattcFindIncludedServices function, setting the start
 991:.\Generated_Source\PSoC4/BLE_eventHandler.c ****            handle to the attribute handle which is placed next to the one used in
 992:.\Generated_Source\PSoC4/BLE_eventHandler.c ****            the above step.
 993:.\Generated_Source\PSoC4/BLE_eventHandler.c ****         */
 994:.\Generated_Source\PSoC4/BLE_eventHandler.c ****         discServInfo.range.startHandle = cyBle_discInclInfo.inclDefHandle + 1u;
 995:.\Generated_Source\PSoC4/BLE_eventHandler.c ****         discServInfo.range.endHandle = cyBle_serverInfo[cyBle_disCount].range.endHandle;
 996:.\Generated_Source\PSoC4/BLE_eventHandler.c ****         if(discServInfo.range.startHandle <= discServInfo.range.endHandle)
 997:.\Generated_Source\PSoC4/BLE_eventHandler.c ****         {
 998:.\Generated_Source\PSoC4/BLE_eventHandler.c ****             if(CYBLE_ERROR_OK != CyBle_GattcFindIncludedServices(cyBle_connHandle, &discServInfo.ra
 999:.\Generated_Source\PSoC4/BLE_eventHandler.c ****             {
1000:.\Generated_Source\PSoC4/BLE_eventHandler.c ****                 CyBle_ApplCallback(CYBLE_EVT_GATTC_INCL_DISCOVERY_FAILED, NULL);
1001:.\Generated_Source\PSoC4/BLE_eventHandler.c ****                 cyBle_eventHandlerFlag &= (uint8)~CYBLE_AUTO_DISCOVERY;
1002:.\Generated_Source\PSoC4/BLE_eventHandler.c ****             }
1003:.\Generated_Source\PSoC4/BLE_eventHandler.c ****         }
1004:.\Generated_Source\PSoC4/BLE_eventHandler.c ****         else /* Continue discovery of the following service */
1005:.\Generated_Source\PSoC4/BLE_eventHandler.c ****         {
1006:.\Generated_Source\PSoC4/BLE_eventHandler.c ****             CyBle_NextInclDiscovery(CYBLE_DISCOVERY_CONTINUE);
1007:.\Generated_Source\PSoC4/BLE_eventHandler.c ****         }
1008:.\Generated_Source\PSoC4/BLE_eventHandler.c ****         
1009:.\Generated_Source\PSoC4/BLE_eventHandler.c ****         cyBle_eventHandlerFlag &= (uint8)~CYBLE_CALLBACK;
1010:.\Generated_Source\PSoC4/BLE_eventHandler.c ****     #ifdef CYBLE_CUSTOM_CLIENT
1011:.\Generated_Source\PSoC4/BLE_eventHandler.c ****         cyBle_discInclInfo.inclDefHandle = 0u;
1012:.\Generated_Source\PSoC4/BLE_eventHandler.c ****     #endif /* CYBLE_CUSTOM_CLIENT */
1013:.\Generated_Source\PSoC4/BLE_eventHandler.c ****     }
1014:.\Generated_Source\PSoC4/BLE_eventHandler.c **** #endif /* CYBLE_CUSTOM_CLIENT */
1015:.\Generated_Source\PSoC4/BLE_eventHandler.c **** #ifdef CYBLE_ANCS_CLIENT
1016:.\Generated_Source\PSoC4/BLE_eventHandler.c ****     if((cyBle_eventHandlerFlag & CYBLE_CALLBACK) != 0u)
1017:.\Generated_Source\PSoC4/BLE_eventHandler.c ****     {
1018:.\Generated_Source\PSoC4/BLE_eventHandler.c ****         CyBle_AncscReadResponseEventHandler(eventParam);
1019:.\Generated_Source\PSoC4/BLE_eventHandler.c ****     }
1020:.\Generated_Source\PSoC4/BLE_eventHandler.c **** #endif /* CYBLE_ANCS_CLIENT */
1021:.\Generated_Source\PSoC4/BLE_eventHandler.c **** #ifdef CYBLE_ANS_CLIENT
1022:.\Generated_Source\PSoC4/BLE_eventHandler.c ****     if((cyBle_eventHandlerFlag & CYBLE_CALLBACK) != 0u)
1023:.\Generated_Source\PSoC4/BLE_eventHandler.c ****     {
1024:.\Generated_Source\PSoC4/BLE_eventHandler.c ****         CyBle_AnscReadResponseEventHandler(eventParam);
1025:.\Generated_Source\PSoC4/BLE_eventHandler.c ****     }
1026:.\Generated_Source\PSoC4/BLE_eventHandler.c **** #endif /* CYBLE_ANS_CLIENT */
1027:.\Generated_Source\PSoC4/BLE_eventHandler.c **** #ifdef CYBLE_BAS_CLIENT
1028:.\Generated_Source\PSoC4/BLE_eventHandler.c ****     if((cyBle_eventHandlerFlag & CYBLE_CALLBACK) != 0u)
1029:.\Generated_Source\PSoC4/BLE_eventHandler.c ****     {
1030:.\Generated_Source\PSoC4/BLE_eventHandler.c ****         CyBle_BascReadResponseEventHandler(eventParam);
1031:.\Generated_Source\PSoC4/BLE_eventHandler.c ****     }
1032:.\Generated_Source\PSoC4/BLE_eventHandler.c **** #endif /* CYBLE_BAS_CLIENT */
1033:.\Generated_Source\PSoC4/BLE_eventHandler.c **** #ifdef CYBLE_BLS_CLIENT
1034:.\Generated_Source\PSoC4/BLE_eventHandler.c ****     if((cyBle_eventHandlerFlag & CYBLE_CALLBACK) != 0u)
1035:.\Generated_Source\PSoC4/BLE_eventHandler.c ****     {
ARM GAS  C:\Users\behrenb2\AppData\Local\Temp\ccNHrcVd.s 			page 23


1036:.\Generated_Source\PSoC4/BLE_eventHandler.c ****         CyBle_BlscReadResponseEventHandler(eventParam);
1037:.\Generated_Source\PSoC4/BLE_eventHandler.c ****     }
1038:.\Generated_Source\PSoC4/BLE_eventHandler.c **** #endif /* CYBLE_BLS_CLIENT */
1039:.\Generated_Source\PSoC4/BLE_eventHandler.c **** #ifdef CYBLE_BCS_CLIENT
1040:.\Generated_Source\PSoC4/BLE_eventHandler.c ****     if((cyBle_eventHandlerFlag & CYBLE_CALLBACK) != 0u)
1041:.\Generated_Source\PSoC4/BLE_eventHandler.c ****     {
1042:.\Generated_Source\PSoC4/BLE_eventHandler.c ****         CyBle_BcscReadResponseEventHandler(eventParam);
1043:.\Generated_Source\PSoC4/BLE_eventHandler.c ****     }
1044:.\Generated_Source\PSoC4/BLE_eventHandler.c **** #endif /* CYBLE_BCS_CLIENT */
1045:.\Generated_Source\PSoC4/BLE_eventHandler.c **** #ifdef CYBLE_BMS_CLIENT
1046:.\Generated_Source\PSoC4/BLE_eventHandler.c ****     if((cyBle_eventHandlerFlag & CYBLE_CALLBACK) != 0u)
1047:.\Generated_Source\PSoC4/BLE_eventHandler.c ****     {
1048:.\Generated_Source\PSoC4/BLE_eventHandler.c ****         CyBle_BmscReadResponseEventHandler(eventParam);
1049:.\Generated_Source\PSoC4/BLE_eventHandler.c ****     }
1050:.\Generated_Source\PSoC4/BLE_eventHandler.c **** #endif /* CYBLE_BMS_CLIENT */
1051:.\Generated_Source\PSoC4/BLE_eventHandler.c **** #ifdef CYBLE_CGMS_CLIENT
1052:.\Generated_Source\PSoC4/BLE_eventHandler.c ****     if((cyBle_eventHandlerFlag & CYBLE_CALLBACK) != 0u)
1053:.\Generated_Source\PSoC4/BLE_eventHandler.c ****     {
1054:.\Generated_Source\PSoC4/BLE_eventHandler.c ****         CyBle_CgmscReadResponseEventHandler(eventParam);
1055:.\Generated_Source\PSoC4/BLE_eventHandler.c ****     }
1056:.\Generated_Source\PSoC4/BLE_eventHandler.c **** #endif /* CYBLE_CGMS_CLIENT */
1057:.\Generated_Source\PSoC4/BLE_eventHandler.c **** #ifdef CYBLE_CPS_CLIENT
1058:.\Generated_Source\PSoC4/BLE_eventHandler.c ****     if((cyBle_eventHandlerFlag & CYBLE_CALLBACK) != 0u)
1059:.\Generated_Source\PSoC4/BLE_eventHandler.c ****     {
1060:.\Generated_Source\PSoC4/BLE_eventHandler.c ****         CyBle_CpscReadResponseEventHandler(eventParam);
1061:.\Generated_Source\PSoC4/BLE_eventHandler.c ****     }
1062:.\Generated_Source\PSoC4/BLE_eventHandler.c **** #endif /* CYBLE_CPS_CLIENT */
1063:.\Generated_Source\PSoC4/BLE_eventHandler.c **** #ifdef CYBLE_CSCS_CLIENT
1064:.\Generated_Source\PSoC4/BLE_eventHandler.c ****     if((cyBle_eventHandlerFlag & CYBLE_CALLBACK) != 0u)
1065:.\Generated_Source\PSoC4/BLE_eventHandler.c ****     {
1066:.\Generated_Source\PSoC4/BLE_eventHandler.c ****         CyBle_CscscReadResponseEventHandler(eventParam);
1067:.\Generated_Source\PSoC4/BLE_eventHandler.c ****     }
1068:.\Generated_Source\PSoC4/BLE_eventHandler.c **** #endif /* CYBLE_CSCS_CLIENT */
1069:.\Generated_Source\PSoC4/BLE_eventHandler.c **** #ifdef CYBLE_CTS_CLIENT
1070:.\Generated_Source\PSoC4/BLE_eventHandler.c ****     if((cyBle_eventHandlerFlag & CYBLE_CALLBACK) != 0u)
1071:.\Generated_Source\PSoC4/BLE_eventHandler.c ****     {
1072:.\Generated_Source\PSoC4/BLE_eventHandler.c ****         CyBle_CtscReadResponseEventHandler(eventParam);
1073:.\Generated_Source\PSoC4/BLE_eventHandler.c ****     }
1074:.\Generated_Source\PSoC4/BLE_eventHandler.c **** #endif /* CYBLE_BAS_CLIENT */
1075:.\Generated_Source\PSoC4/BLE_eventHandler.c **** #ifdef CYBLE_DIS_CLIENT
1076:.\Generated_Source\PSoC4/BLE_eventHandler.c ****     if((cyBle_eventHandlerFlag & CYBLE_CALLBACK) != 0u)
1077:.\Generated_Source\PSoC4/BLE_eventHandler.c ****     {
1078:.\Generated_Source\PSoC4/BLE_eventHandler.c ****         CyBle_DiscReadResponseEventHandler(eventParam);
1079:.\Generated_Source\PSoC4/BLE_eventHandler.c ****     }
1080:.\Generated_Source\PSoC4/BLE_eventHandler.c **** #endif /* CYBLE_DIS_CLIENT */
1081:.\Generated_Source\PSoC4/BLE_eventHandler.c **** #ifdef CYBLE_ESS_CLIENT
1082:.\Generated_Source\PSoC4/BLE_eventHandler.c ****     if((cyBle_eventHandlerFlag & CYBLE_CALLBACK) != 0u)
1083:.\Generated_Source\PSoC4/BLE_eventHandler.c ****     {
1084:.\Generated_Source\PSoC4/BLE_eventHandler.c ****         CyBle_EsscReadResponseEventHandler(eventParam);
1085:.\Generated_Source\PSoC4/BLE_eventHandler.c ****     }
1086:.\Generated_Source\PSoC4/BLE_eventHandler.c **** #endif /* CYBLE_ESS_CLIENT */
1087:.\Generated_Source\PSoC4/BLE_eventHandler.c **** #ifdef CYBLE_GLS_CLIENT
1088:.\Generated_Source\PSoC4/BLE_eventHandler.c ****     if((cyBle_eventHandlerFlag & CYBLE_CALLBACK) != 0u)
1089:.\Generated_Source\PSoC4/BLE_eventHandler.c ****     {
1090:.\Generated_Source\PSoC4/BLE_eventHandler.c ****         CyBle_GlscReadResponseEventHandler(eventParam);
1091:.\Generated_Source\PSoC4/BLE_eventHandler.c ****     }
1092:.\Generated_Source\PSoC4/BLE_eventHandler.c **** #endif /* CYBLE_GLS_CLIENT */
ARM GAS  C:\Users\behrenb2\AppData\Local\Temp\ccNHrcVd.s 			page 24


1093:.\Generated_Source\PSoC4/BLE_eventHandler.c **** #ifdef CYBLE_HIDS_CLIENT
1094:.\Generated_Source\PSoC4/BLE_eventHandler.c ****     if((cyBle_eventHandlerFlag & CYBLE_CALLBACK) != 0u)
1095:.\Generated_Source\PSoC4/BLE_eventHandler.c ****     {
1096:.\Generated_Source\PSoC4/BLE_eventHandler.c ****         CyBle_HidscReadResponseEventHandler(eventParam);
1097:.\Generated_Source\PSoC4/BLE_eventHandler.c ****     }
1098:.\Generated_Source\PSoC4/BLE_eventHandler.c **** #endif /* CYBLE_HIDS_CLIENT */
1099:.\Generated_Source\PSoC4/BLE_eventHandler.c **** #ifdef CYBLE_HPS_CLIENT
1100:.\Generated_Source\PSoC4/BLE_eventHandler.c ****     if((cyBle_eventHandlerFlag & CYBLE_CALLBACK) != 0u)
1101:.\Generated_Source\PSoC4/BLE_eventHandler.c ****     {
1102:.\Generated_Source\PSoC4/BLE_eventHandler.c ****         CyBle_HpscReadResponseEventHandler(eventParam);
1103:.\Generated_Source\PSoC4/BLE_eventHandler.c ****     }
1104:.\Generated_Source\PSoC4/BLE_eventHandler.c **** #endif /* CYBLE_HPS_CLIENT */
1105:.\Generated_Source\PSoC4/BLE_eventHandler.c **** #ifdef CYBLE_HRS_CLIENT
1106:.\Generated_Source\PSoC4/BLE_eventHandler.c ****     if((cyBle_eventHandlerFlag & CYBLE_CALLBACK) != 0u)
1107:.\Generated_Source\PSoC4/BLE_eventHandler.c ****     {
1108:.\Generated_Source\PSoC4/BLE_eventHandler.c ****         CyBle_HrscReadResponseEventHandler(eventParam);
1109:.\Generated_Source\PSoC4/BLE_eventHandler.c ****     }
1110:.\Generated_Source\PSoC4/BLE_eventHandler.c **** #endif /* CYBLE_HRS_CLIENT */
1111:.\Generated_Source\PSoC4/BLE_eventHandler.c **** #ifdef CYBLE_HTS_CLIENT
1112:.\Generated_Source\PSoC4/BLE_eventHandler.c ****     if((cyBle_eventHandlerFlag & CYBLE_CALLBACK) != 0u)
1113:.\Generated_Source\PSoC4/BLE_eventHandler.c ****     {
1114:.\Generated_Source\PSoC4/BLE_eventHandler.c ****         CyBle_HtscReadResponseEventHandler(eventParam);
1115:.\Generated_Source\PSoC4/BLE_eventHandler.c ****     }
1116:.\Generated_Source\PSoC4/BLE_eventHandler.c **** #endif /* CYBLE_HTS_CLIENT */
1117:.\Generated_Source\PSoC4/BLE_eventHandler.c **** #ifdef CYBLE_IPS_CLIENT
1118:.\Generated_Source\PSoC4/BLE_eventHandler.c ****     if((cyBle_eventHandlerFlag & CYBLE_CALLBACK) != 0u)
1119:.\Generated_Source\PSoC4/BLE_eventHandler.c ****     {
1120:.\Generated_Source\PSoC4/BLE_eventHandler.c ****         CyBle_IpscReadResponseEventHandler(eventParam);
1121:.\Generated_Source\PSoC4/BLE_eventHandler.c ****     }
1122:.\Generated_Source\PSoC4/BLE_eventHandler.c **** #endif /* CYBLE_IPS_CLIENT */
1123:.\Generated_Source\PSoC4/BLE_eventHandler.c **** #ifdef CYBLE_LLS_CLIENT
1124:.\Generated_Source\PSoC4/BLE_eventHandler.c ****     if((cyBle_eventHandlerFlag & CYBLE_CALLBACK) != 0u)
1125:.\Generated_Source\PSoC4/BLE_eventHandler.c ****     {
1126:.\Generated_Source\PSoC4/BLE_eventHandler.c ****         CyBle_LlscReadResponseEventHandler(eventParam);
1127:.\Generated_Source\PSoC4/BLE_eventHandler.c ****     }
1128:.\Generated_Source\PSoC4/BLE_eventHandler.c **** #endif /* CYBLE_LLS_CLIENT */
1129:.\Generated_Source\PSoC4/BLE_eventHandler.c **** #ifdef CYBLE_LNS_CLIENT
1130:.\Generated_Source\PSoC4/BLE_eventHandler.c ****     if((cyBle_eventHandlerFlag & CYBLE_CALLBACK) != 0u)
1131:.\Generated_Source\PSoC4/BLE_eventHandler.c ****     {
1132:.\Generated_Source\PSoC4/BLE_eventHandler.c ****         CyBle_LnscReadResponseEventHandler(eventParam);
1133:.\Generated_Source\PSoC4/BLE_eventHandler.c ****     }
1134:.\Generated_Source\PSoC4/BLE_eventHandler.c **** #endif /* CYBLE_LNS_CLIENT */
1135:.\Generated_Source\PSoC4/BLE_eventHandler.c **** #ifdef CYBLE_NDCS_CLIENT
1136:.\Generated_Source\PSoC4/BLE_eventHandler.c ****     if((cyBle_eventHandlerFlag & CYBLE_CALLBACK) != 0u)
1137:.\Generated_Source\PSoC4/BLE_eventHandler.c ****     {
1138:.\Generated_Source\PSoC4/BLE_eventHandler.c ****         CyBle_NdcscReadResponseEventHandler(eventParam);
1139:.\Generated_Source\PSoC4/BLE_eventHandler.c ****     }
1140:.\Generated_Source\PSoC4/BLE_eventHandler.c **** #endif /* CYBLE_NDCS_CLIENT */
1141:.\Generated_Source\PSoC4/BLE_eventHandler.c **** #ifdef CYBLE_PASS_CLIENT
1142:.\Generated_Source\PSoC4/BLE_eventHandler.c ****     if((cyBle_eventHandlerFlag & CYBLE_CALLBACK) != 0u)
1143:.\Generated_Source\PSoC4/BLE_eventHandler.c ****     {
1144:.\Generated_Source\PSoC4/BLE_eventHandler.c ****         CyBle_PasscReadResponseEventHandler(eventParam);
1145:.\Generated_Source\PSoC4/BLE_eventHandler.c ****     }
1146:.\Generated_Source\PSoC4/BLE_eventHandler.c **** #endif /* CYBLE_PASS_CLIENT */
1147:.\Generated_Source\PSoC4/BLE_eventHandler.c **** #ifdef CYBLE_RSCS_CLIENT
1148:.\Generated_Source\PSoC4/BLE_eventHandler.c ****     if((cyBle_eventHandlerFlag & CYBLE_CALLBACK) != 0u)
1149:.\Generated_Source\PSoC4/BLE_eventHandler.c ****     {
ARM GAS  C:\Users\behrenb2\AppData\Local\Temp\ccNHrcVd.s 			page 25


1150:.\Generated_Source\PSoC4/BLE_eventHandler.c ****         CyBle_RscscReadResponseEventHandler(eventParam);
1151:.\Generated_Source\PSoC4/BLE_eventHandler.c ****     }
1152:.\Generated_Source\PSoC4/BLE_eventHandler.c **** #endif /* CYBLE_RSCS_CLIENT */
1153:.\Generated_Source\PSoC4/BLE_eventHandler.c **** #ifdef CYBLE_RTUS_CLIENT
1154:.\Generated_Source\PSoC4/BLE_eventHandler.c ****     if((cyBle_eventHandlerFlag & CYBLE_CALLBACK) != 0u)
1155:.\Generated_Source\PSoC4/BLE_eventHandler.c ****     {
1156:.\Generated_Source\PSoC4/BLE_eventHandler.c ****         CyBle_RtuscReadResponseEventHandler(eventParam);
1157:.\Generated_Source\PSoC4/BLE_eventHandler.c ****     }
1158:.\Generated_Source\PSoC4/BLE_eventHandler.c **** #endif /* CYBLE_RTUS_CLIENT */
1159:.\Generated_Source\PSoC4/BLE_eventHandler.c **** #ifdef CYBLE_SCPS_CLIENT
1160:.\Generated_Source\PSoC4/BLE_eventHandler.c ****     if((cyBle_eventHandlerFlag & CYBLE_CALLBACK) != 0u)
1161:.\Generated_Source\PSoC4/BLE_eventHandler.c ****     {
1162:.\Generated_Source\PSoC4/BLE_eventHandler.c ****         CyBle_ScpscReadResponseEventHandler(eventParam);
1163:.\Generated_Source\PSoC4/BLE_eventHandler.c ****     }
1164:.\Generated_Source\PSoC4/BLE_eventHandler.c **** #endif /* CYBLE_SCPS_CLIENT */
1165:.\Generated_Source\PSoC4/BLE_eventHandler.c **** #ifdef CYBLE_TPS_CLIENT
1166:.\Generated_Source\PSoC4/BLE_eventHandler.c ****     if((cyBle_eventHandlerFlag & CYBLE_CALLBACK) != 0u)
1167:.\Generated_Source\PSoC4/BLE_eventHandler.c ****     {
1168:.\Generated_Source\PSoC4/BLE_eventHandler.c ****         CyBle_TpscReadResponseEventHandler(eventParam);
1169:.\Generated_Source\PSoC4/BLE_eventHandler.c ****     }
1170:.\Generated_Source\PSoC4/BLE_eventHandler.c **** #endif /* CYBLE_TPS_CLIENT */
1171:.\Generated_Source\PSoC4/BLE_eventHandler.c **** #ifdef CYBLE_UDS_CLIENT
1172:.\Generated_Source\PSoC4/BLE_eventHandler.c ****     if((cyBle_eventHandlerFlag & CYBLE_CALLBACK) != 0u)
1173:.\Generated_Source\PSoC4/BLE_eventHandler.c ****     {
1174:.\Generated_Source\PSoC4/BLE_eventHandler.c ****         CyBle_UdscReadResponseEventHandler(eventParam);
1175:.\Generated_Source\PSoC4/BLE_eventHandler.c ****     }
1176:.\Generated_Source\PSoC4/BLE_eventHandler.c **** #endif /* CYBLE_UDS_CLIENT */
1177:.\Generated_Source\PSoC4/BLE_eventHandler.c **** #ifdef CYBLE_WPTS_CLIENT
1178:.\Generated_Source\PSoC4/BLE_eventHandler.c ****     if((cyBle_eventHandlerFlag & CYBLE_CALLBACK) != 0u)
1179:.\Generated_Source\PSoC4/BLE_eventHandler.c ****     {
1180:.\Generated_Source\PSoC4/BLE_eventHandler.c ****         CyBle_WptscReadResponseEventHandler(eventParam);
1181:.\Generated_Source\PSoC4/BLE_eventHandler.c ****     }
1182:.\Generated_Source\PSoC4/BLE_eventHandler.c **** #endif /* CYBLE_WPTS_CLIENT */
1183:.\Generated_Source\PSoC4/BLE_eventHandler.c **** #ifdef CYBLE_WSS_CLIENT
1184:.\Generated_Source\PSoC4/BLE_eventHandler.c ****     if((cyBle_eventHandlerFlag & CYBLE_CALLBACK) != 0u)
1185:.\Generated_Source\PSoC4/BLE_eventHandler.c ****     {
1186:.\Generated_Source\PSoC4/BLE_eventHandler.c ****         CyBle_WsscReadResponseEventHandler(eventParam);
1187:.\Generated_Source\PSoC4/BLE_eventHandler.c ****     }
1188:.\Generated_Source\PSoC4/BLE_eventHandler.c **** #endif /* CYBLE_WSS_CLIENT */
1189:.\Generated_Source\PSoC4/BLE_eventHandler.c **** }
1190:.\Generated_Source\PSoC4/BLE_eventHandler.c **** 
1191:.\Generated_Source\PSoC4/BLE_eventHandler.c **** /******************************************************************************    
1192:.\Generated_Source\PSoC4/BLE_eventHandler.c **** * Function Name: CyBle_ReadMultipleResponseEventHandler
1193:.\Generated_Source\PSoC4/BLE_eventHandler.c **** ***************************************************************************//**
1194:.\Generated_Source\PSoC4/BLE_eventHandler.c **** * 
1195:.\Generated_Source\PSoC4/BLE_eventHandler.c **** *  Handles the Read Multiple Response event from BLE stack.
1196:.\Generated_Source\PSoC4/BLE_eventHandler.c **** * 
1197:.\Generated_Source\PSoC4/BLE_eventHandler.c **** *  \param eventParam: event parameter
1198:.\Generated_Source\PSoC4/BLE_eventHandler.c **** * 
1199:.\Generated_Source\PSoC4/BLE_eventHandler.c **** * \return
1200:.\Generated_Source\PSoC4/BLE_eventHandler.c **** *  None
1201:.\Generated_Source\PSoC4/BLE_eventHandler.c **** * 
1202:.\Generated_Source\PSoC4/BLE_eventHandler.c **** ******************************************************************************/
1203:.\Generated_Source\PSoC4/BLE_eventHandler.c **** static void CyBle_ReadMultipleResponseEventHandler(CYBLE_GATTC_READ_RSP_PARAM_T *eventParam)
1204:.\Generated_Source\PSoC4/BLE_eventHandler.c **** {
1205:.\Generated_Source\PSoC4/BLE_eventHandler.c **** #ifdef CYBLE_CUSTOM_CLIENT
1206:.\Generated_Source\PSoC4/BLE_eventHandler.c ****     /* Read response with 128-bit included service uuid */
ARM GAS  C:\Users\behrenb2\AppData\Local\Temp\ccNHrcVd.s 			page 26


1207:.\Generated_Source\PSoC4/BLE_eventHandler.c ****     if((CYBLE_CLIENT_STATE_INCL_DISCOVERING == CyBle_GetClientState()) &&
1208:.\Generated_Source\PSoC4/BLE_eventHandler.c ****        (cyBle_discInclInfo.inclDefHandle != 0u))
1209:.\Generated_Source\PSoC4/BLE_eventHandler.c ****     {
1210:.\Generated_Source\PSoC4/BLE_eventHandler.c ****         CYBLE_DISC_SRVC128_INFO_T discServInfo;
1211:.\Generated_Source\PSoC4/BLE_eventHandler.c **** 
1212:.\Generated_Source\PSoC4/BLE_eventHandler.c ****         /* Store service range */
1213:.\Generated_Source\PSoC4/BLE_eventHandler.c ****         discServInfo.range = cyBle_discInclInfo.inclHandleRange;
1214:.\Generated_Source\PSoC4/BLE_eventHandler.c ****         (void)memcpy((void *) discServInfo.uuid.uuid128.value, (void *)eventParam->value.val, event
1215:.\Generated_Source\PSoC4/BLE_eventHandler.c ****         CyBle_CustomcDiscoverServiceEventHandler(&discServInfo);
1216:.\Generated_Source\PSoC4/BLE_eventHandler.c ****         
1217:.\Generated_Source\PSoC4/BLE_eventHandler.c ****         /* Re-initiate CyBle_GattcFindIncludedServices function, setting the start
1218:.\Generated_Source\PSoC4/BLE_eventHandler.c ****            handle to the attribute handle which is placed next to the one used in
1219:.\Generated_Source\PSoC4/BLE_eventHandler.c ****            the above step.
1220:.\Generated_Source\PSoC4/BLE_eventHandler.c ****         */
1221:.\Generated_Source\PSoC4/BLE_eventHandler.c ****         discServInfo.range.startHandle = cyBle_discInclInfo.inclDefHandle + 1;
1222:.\Generated_Source\PSoC4/BLE_eventHandler.c ****         discServInfo.range.endHandle = cyBle_serverInfo[cyBle_disCount].range.endHandle;
1223:.\Generated_Source\PSoC4/BLE_eventHandler.c ****         if(discServInfo.range.startHandle <= discServInfo.range.endHandle)
1224:.\Generated_Source\PSoC4/BLE_eventHandler.c ****         {
1225:.\Generated_Source\PSoC4/BLE_eventHandler.c ****             if(CYBLE_ERROR_OK != CyBle_GattcFindIncludedServices(cyBle_connHandle, &discServInfo.ra
1226:.\Generated_Source\PSoC4/BLE_eventHandler.c ****             {
1227:.\Generated_Source\PSoC4/BLE_eventHandler.c ****                 CyBle_ApplCallback(CYBLE_EVT_GATTC_INCL_DISCOVERY_FAILED, NULL);
1228:.\Generated_Source\PSoC4/BLE_eventHandler.c ****                 cyBle_eventHandlerFlag &= (uint8)~CYBLE_AUTO_DISCOVERY;
1229:.\Generated_Source\PSoC4/BLE_eventHandler.c ****             }
1230:.\Generated_Source\PSoC4/BLE_eventHandler.c ****         }
1231:.\Generated_Source\PSoC4/BLE_eventHandler.c ****         else /* Continue discovery of the following service */
1232:.\Generated_Source\PSoC4/BLE_eventHandler.c ****         {
1233:.\Generated_Source\PSoC4/BLE_eventHandler.c ****             CyBle_NextInclDiscovery(CYBLE_DISCOVERY_CONTINUE);
1234:.\Generated_Source\PSoC4/BLE_eventHandler.c ****         }
1235:.\Generated_Source\PSoC4/BLE_eventHandler.c ****         
1236:.\Generated_Source\PSoC4/BLE_eventHandler.c ****         cyBle_eventHandlerFlag &= (uint8)~CYBLE_CALLBACK;
1237:.\Generated_Source\PSoC4/BLE_eventHandler.c ****     #ifdef CYBLE_CUSTOM_CLIENT
1238:.\Generated_Source\PSoC4/BLE_eventHandler.c ****         cyBle_discInclInfo.inclDefHandle = 0u;
1239:.\Generated_Source\PSoC4/BLE_eventHandler.c ****     #endif /* CYBLE_CUSTOM_CLIENT */
1240:.\Generated_Source\PSoC4/BLE_eventHandler.c ****     }
1241:.\Generated_Source\PSoC4/BLE_eventHandler.c **** #endif /* CYBLE_CUSTOM_CLIENT */
1242:.\Generated_Source\PSoC4/BLE_eventHandler.c **** #ifdef CYBLE_IPS_CLIENT
1243:.\Generated_Source\PSoC4/BLE_eventHandler.c ****     if((cyBle_eventHandlerFlag & CYBLE_CALLBACK) != 0u)
1244:.\Generated_Source\PSoC4/BLE_eventHandler.c ****     {
1245:.\Generated_Source\PSoC4/BLE_eventHandler.c ****         CyBle_IpscReadMultipleResponseEventHandler(eventParam);
1246:.\Generated_Source\PSoC4/BLE_eventHandler.c ****     }
1247:.\Generated_Source\PSoC4/BLE_eventHandler.c **** #endif /* CYBLE_IPS_CLIENT */
1248:.\Generated_Source\PSoC4/BLE_eventHandler.c ****     /* MISRA 16.7 violavion workarround */
1249:.\Generated_Source\PSoC4/BLE_eventHandler.c ****     eventParam = eventParam;
1250:.\Generated_Source\PSoC4/BLE_eventHandler.c **** }
1251:.\Generated_Source\PSoC4/BLE_eventHandler.c **** #endif /* CYBLE_GATT_ROLE_CLIENT */
1252:.\Generated_Source\PSoC4/BLE_eventHandler.c **** 
1253:.\Generated_Source\PSoC4/BLE_eventHandler.c **** 
1254:.\Generated_Source\PSoC4/BLE_eventHandler.c **** /****************************************************************************** 
1255:.\Generated_Source\PSoC4/BLE_eventHandler.c **** * Function Name: CyBle_DisconnectEventHandler
1256:.\Generated_Source\PSoC4/BLE_eventHandler.c **** ***************************************************************************//**
1257:.\Generated_Source\PSoC4/BLE_eventHandler.c **** * 
1258:.\Generated_Source\PSoC4/BLE_eventHandler.c **** *  Handles the GATT Disconnection event from the BLE stack.
1259:.\Generated_Source\PSoC4/BLE_eventHandler.c **** * 
1260:.\Generated_Source\PSoC4/BLE_eventHandler.c **** * \return
1261:.\Generated_Source\PSoC4/BLE_eventHandler.c **** *  None
1262:.\Generated_Source\PSoC4/BLE_eventHandler.c **** * 
1263:.\Generated_Source\PSoC4/BLE_eventHandler.c **** ******************************************************************************/
ARM GAS  C:\Users\behrenb2\AppData\Local\Temp\ccNHrcVd.s 			page 27


1264:.\Generated_Source\PSoC4/BLE_eventHandler.c **** static void CyBle_GattDisconnectEventHandler(void)
1265:.\Generated_Source\PSoC4/BLE_eventHandler.c **** {
 220              		.loc 1 1265 0
 221              		.cfi_startproc
 222 0000 80B5     		push	{r7, lr}
 223              		.cfi_def_cfa_offset 8
 224              		.cfi_offset 7, -8
 225              		.cfi_offset 14, -4
 226 0002 00AF     		add	r7, sp, #0
 227              		.cfi_def_cfa_register 7
1266:.\Generated_Source\PSoC4/BLE_eventHandler.c ****     cyBle_connHandle.attId = 0u;
 228              		.loc 1 1266 0
 229 0004 034B     		ldr	r3, .L13
 230 0006 0022     		mov	r2, #0
 231 0008 5A70     		strb	r2, [r3, #1]
1267:.\Generated_Source\PSoC4/BLE_eventHandler.c ****     cyBle_connHandle.bdHandle = 0u;
 232              		.loc 1 1267 0
 233 000a 024B     		ldr	r3, .L13
 234 000c 0022     		mov	r2, #0
 235 000e 1A70     		strb	r2, [r3]
1268:.\Generated_Source\PSoC4/BLE_eventHandler.c ****     
1269:.\Generated_Source\PSoC4/BLE_eventHandler.c ****     #if (CYBLE_GATT_ROLE_CLIENT)
1270:.\Generated_Source\PSoC4/BLE_eventHandler.c ****         if(CYBLE_CLIENT_STATE_DISCOVERED == CyBle_GetClientState())
1271:.\Generated_Source\PSoC4/BLE_eventHandler.c ****         {
1272:.\Generated_Source\PSoC4/BLE_eventHandler.c ****             CyBle_SetClientState(CYBLE_CLIENT_STATE_DISCONNECTED_DISCOVERED);
1273:.\Generated_Source\PSoC4/BLE_eventHandler.c ****         }
1274:.\Generated_Source\PSoC4/BLE_eventHandler.c ****         else
1275:.\Generated_Source\PSoC4/BLE_eventHandler.c ****         {
1276:.\Generated_Source\PSoC4/BLE_eventHandler.c ****             CyBle_SetClientState(CYBLE_CLIENT_STATE_DISCONNECTED);
1277:.\Generated_Source\PSoC4/BLE_eventHandler.c ****         }
1278:.\Generated_Source\PSoC4/BLE_eventHandler.c ****     #endif /* CYBLE_GATT_ROLE_CLIENT */
1279:.\Generated_Source\PSoC4/BLE_eventHandler.c ****         
1280:.\Generated_Source\PSoC4/BLE_eventHandler.c ****     #ifdef CYBLE_CPS_SERVER
1281:.\Generated_Source\PSoC4/BLE_eventHandler.c ****         #if CYBLE_GAP_ROLE_BROADCASTER
1282:.\Generated_Source\PSoC4/BLE_eventHandler.c ****             CyBle_CpssDisconnectEventHandler();
1283:.\Generated_Source\PSoC4/BLE_eventHandler.c ****         #endif /* CYBLE_GAP_ROLE_BROADCASTER */
1284:.\Generated_Source\PSoC4/BLE_eventHandler.c ****     #endif /* CYBLE_CPS_SERVER */
1285:.\Generated_Source\PSoC4/BLE_eventHandler.c **** 
1286:.\Generated_Source\PSoC4/BLE_eventHandler.c ****     #ifdef CYBLE_CPS_CLIENT
1287:.\Generated_Source\PSoC4/BLE_eventHandler.c ****         CyBle_CpscDisconnectEventHandler();
1288:.\Generated_Source\PSoC4/BLE_eventHandler.c ****     #endif /* CYBLE_CPS_CLIENT */
1289:.\Generated_Source\PSoC4/BLE_eventHandler.c **** 
1290:.\Generated_Source\PSoC4/BLE_eventHandler.c ****     #ifdef CYBLE_IAS_SERVER
1291:.\Generated_Source\PSoC4/BLE_eventHandler.c ****         CyBle_IassDisconnectEventHandler();
1292:.\Generated_Source\PSoC4/BLE_eventHandler.c ****     #endif /* CYBLE_IAS_SERVER */
1293:.\Generated_Source\PSoC4/BLE_eventHandler.c ****     
1294:.\Generated_Source\PSoC4/BLE_eventHandler.c ****     #ifdef CYBLE_GLS_SERVER
1295:.\Generated_Source\PSoC4/BLE_eventHandler.c ****         CyBle_GlsInit();
1296:.\Generated_Source\PSoC4/BLE_eventHandler.c ****     #endif /* CYBLE_GLS_SERVER */
1297:.\Generated_Source\PSoC4/BLE_eventHandler.c ****     
1298:.\Generated_Source\PSoC4/BLE_eventHandler.c ****     #ifdef CYBLE_LNS_SERVER
1299:.\Generated_Source\PSoC4/BLE_eventHandler.c ****         CyBle_LnsInit();
1300:.\Generated_Source\PSoC4/BLE_eventHandler.c ****     #endif /* CYBLE_LNS_SERVER */
1301:.\Generated_Source\PSoC4/BLE_eventHandler.c ****     
1302:.\Generated_Source\PSoC4/BLE_eventHandler.c ****     #ifdef CYBLE_UDS_SERVER
1303:.\Generated_Source\PSoC4/BLE_eventHandler.c ****         CyBle_UdsInit();
1304:.\Generated_Source\PSoC4/BLE_eventHandler.c ****     #endif /* CYBLE_UDS_SERVER */
ARM GAS  C:\Users\behrenb2\AppData\Local\Temp\ccNHrcVd.s 			page 28


1305:.\Generated_Source\PSoC4/BLE_eventHandler.c **** }
 236              		.loc 1 1305 0
 237 0010 BD46     		mov	sp, r7
 238              		@ sp needed
 239 0012 80BD     		pop	{r7, pc}
 240              	.L14:
 241              		.align	2
 242              	.L13:
 243 0014 00000000 		.word	cyBle_connHandle
 244              		.cfi_endproc
 245              	.LFE4:
 246              		.size	CyBle_GattDisconnectEventHandler, .-CyBle_GattDisconnectEventHandler
 247              		.section	.text.CyBle_TimeOutEventHandler,"ax",%progbits
 248              		.align	2
 249              		.code	16
 250              		.thumb_func
 251              		.type	CyBle_TimeOutEventHandler, %function
 252              	CyBle_TimeOutEventHandler:
 253              	.LFB5:
1306:.\Generated_Source\PSoC4/BLE_eventHandler.c **** 
1307:.\Generated_Source\PSoC4/BLE_eventHandler.c **** 
1308:.\Generated_Source\PSoC4/BLE_eventHandler.c **** /****************************************************************************** 
1309:.\Generated_Source\PSoC4/BLE_eventHandler.c **** * Function Name: CyBle_TimeOutEventHandler
1310:.\Generated_Source\PSoC4/BLE_eventHandler.c **** ***************************************************************************//**
1311:.\Generated_Source\PSoC4/BLE_eventHandler.c **** * 
1312:.\Generated_Source\PSoC4/BLE_eventHandler.c **** *  Handles the CYBLE_EVT_TIMEOUT event from the BLE stack.
1313:.\Generated_Source\PSoC4/BLE_eventHandler.c **** * 
1314:.\Generated_Source\PSoC4/BLE_eventHandler.c **** *  \param eventParam: The pointer to a structure of type CYBLE_TO_REASON_CODE_T.
1315:.\Generated_Source\PSoC4/BLE_eventHandler.c **** * 
1316:.\Generated_Source\PSoC4/BLE_eventHandler.c **** * \return
1317:.\Generated_Source\PSoC4/BLE_eventHandler.c **** *  None
1318:.\Generated_Source\PSoC4/BLE_eventHandler.c **** * 
1319:.\Generated_Source\PSoC4/BLE_eventHandler.c **** ******************************************************************************/
1320:.\Generated_Source\PSoC4/BLE_eventHandler.c **** static void CyBle_TimeOutEventHandler(const CYBLE_TO_REASON_CODE_T *eventParam)
1321:.\Generated_Source\PSoC4/BLE_eventHandler.c **** {
 254              		.loc 1 1321 0
 255              		.cfi_startproc
 256 0000 80B5     		push	{r7, lr}
 257              		.cfi_def_cfa_offset 8
 258              		.cfi_offset 7, -8
 259              		.cfi_offset 14, -4
 260 0002 82B0     		sub	sp, sp, #8
 261              		.cfi_def_cfa_offset 16
 262 0004 00AF     		add	r7, sp, #0
 263              		.cfi_def_cfa_register 7
 264 0006 7860     		str	r0, [r7, #4]
1322:.\Generated_Source\PSoC4/BLE_eventHandler.c ****     if(*eventParam == CYBLE_GATT_RSP_TO)
1323:.\Generated_Source\PSoC4/BLE_eventHandler.c ****     {
1324:.\Generated_Source\PSoC4/BLE_eventHandler.c ****     #if (CYBLE_GATT_ROLE_CLIENT)
1325:.\Generated_Source\PSoC4/BLE_eventHandler.c ****         if((cyBle_eventHandlerFlag & CYBLE_AUTO_DISCOVERY) != 0u)
1326:.\Generated_Source\PSoC4/BLE_eventHandler.c ****         {
1327:.\Generated_Source\PSoC4/BLE_eventHandler.c ****             switch(CyBle_GetClientState())
1328:.\Generated_Source\PSoC4/BLE_eventHandler.c ****             {
1329:.\Generated_Source\PSoC4/BLE_eventHandler.c ****                 case CYBLE_CLIENT_STATE_SRVC_DISCOVERING:
1330:.\Generated_Source\PSoC4/BLE_eventHandler.c ****                     CyBle_ApplCallback(CYBLE_EVT_GATTC_SRVC_DISCOVERY_FAILED, NULL);
1331:.\Generated_Source\PSoC4/BLE_eventHandler.c ****                     break;
1332:.\Generated_Source\PSoC4/BLE_eventHandler.c ****                 case CYBLE_CLIENT_STATE_INCL_DISCOVERING:
ARM GAS  C:\Users\behrenb2\AppData\Local\Temp\ccNHrcVd.s 			page 29


1333:.\Generated_Source\PSoC4/BLE_eventHandler.c ****                     CyBle_ApplCallback(CYBLE_EVT_GATTC_INCL_DISCOVERY_FAILED, NULL);
1334:.\Generated_Source\PSoC4/BLE_eventHandler.c ****                     break;
1335:.\Generated_Source\PSoC4/BLE_eventHandler.c ****                 case CYBLE_CLIENT_STATE_CHAR_DISCOVERING:
1336:.\Generated_Source\PSoC4/BLE_eventHandler.c ****                     CyBle_ApplCallback(CYBLE_EVT_GATTC_CHAR_DISCOVERY_FAILED, NULL);
1337:.\Generated_Source\PSoC4/BLE_eventHandler.c ****                     break;
1338:.\Generated_Source\PSoC4/BLE_eventHandler.c ****                 case CYBLE_CLIENT_STATE_DESCR_DISCOVERING:
1339:.\Generated_Source\PSoC4/BLE_eventHandler.c ****                     CyBle_ApplCallback(CYBLE_EVT_GATTC_DESCR_DISCOVERY_FAILED, NULL);
1340:.\Generated_Source\PSoC4/BLE_eventHandler.c ****                     break;
1341:.\Generated_Source\PSoC4/BLE_eventHandler.c ****                 default:        /* Other states should not be set in Auto discovery mode */
1342:.\Generated_Source\PSoC4/BLE_eventHandler.c ****                     break;
1343:.\Generated_Source\PSoC4/BLE_eventHandler.c ****             }
1344:.\Generated_Source\PSoC4/BLE_eventHandler.c ****             cyBle_eventHandlerFlag &= (uint8)~CYBLE_AUTO_DISCOVERY;
1345:.\Generated_Source\PSoC4/BLE_eventHandler.c ****             CyBle_SetClientState(CYBLE_CLIENT_STATE_CONNECTED);
1346:.\Generated_Source\PSoC4/BLE_eventHandler.c ****         }
1347:.\Generated_Source\PSoC4/BLE_eventHandler.c ****     #endif /* CYBLE_GATT_ROLE_CLIENT */
1348:.\Generated_Source\PSoC4/BLE_eventHandler.c ****     #ifdef CYBLE_CPS_SERVER
1349:.\Generated_Source\PSoC4/BLE_eventHandler.c ****         CyBle_CpssTimeOutEventHandler();
1350:.\Generated_Source\PSoC4/BLE_eventHandler.c ****     #endif /* CYBLE_CPS_SERVER */
1351:.\Generated_Source\PSoC4/BLE_eventHandler.c ****     }
1352:.\Generated_Source\PSoC4/BLE_eventHandler.c ****     
1353:.\Generated_Source\PSoC4/BLE_eventHandler.c ****     /* Connection procedure timeout */
1354:.\Generated_Source\PSoC4/BLE_eventHandler.c ****     if(*eventParam == CYBLE_GENERIC_TO)
1355:.\Generated_Source\PSoC4/BLE_eventHandler.c ****     {
1356:.\Generated_Source\PSoC4/BLE_eventHandler.c ****     #if(CYBLE_GAP_ROLE_CENTRAL)
1357:.\Generated_Source\PSoC4/BLE_eventHandler.c ****         if(CYBLE_STATE_CONNECTING == CyBle_GetState())
1358:.\Generated_Source\PSoC4/BLE_eventHandler.c ****         {
1359:.\Generated_Source\PSoC4/BLE_eventHandler.c ****             (void)CyBle_GapcCancelDeviceConnection();
1360:.\Generated_Source\PSoC4/BLE_eventHandler.c ****         }
1361:.\Generated_Source\PSoC4/BLE_eventHandler.c ****     #endif /* CYBLE_GAP_ROLE_CENTRAL */
1362:.\Generated_Source\PSoC4/BLE_eventHandler.c ****     }
1363:.\Generated_Source\PSoC4/BLE_eventHandler.c **** }
 265              		.loc 1 1363 0
 266 0008 BD46     		mov	sp, r7
 267 000a 02B0     		add	sp, sp, #8
 268              		@ sp needed
 269 000c 80BD     		pop	{r7, pc}
 270              		.cfi_endproc
 271              	.LFE5:
 272              		.size	CyBle_TimeOutEventHandler, .-CyBle_TimeOutEventHandler
 273              		.section	.text.CyBle_GattConnectReqHandler,"ax",%progbits
 274              		.align	2
 275              		.code	16
 276              		.thumb_func
 277              		.type	CyBle_GattConnectReqHandler, %function
 278              	CyBle_GattConnectReqHandler:
 279              	.LFB6:
1364:.\Generated_Source\PSoC4/BLE_eventHandler.c **** 
1365:.\Generated_Source\PSoC4/BLE_eventHandler.c **** 
1366:.\Generated_Source\PSoC4/BLE_eventHandler.c **** /****************************************************************************** 
1367:.\Generated_Source\PSoC4/BLE_eventHandler.c **** * Function Name: CyBle_GattConnectReqHandler
1368:.\Generated_Source\PSoC4/BLE_eventHandler.c **** ***************************************************************************//**
1369:.\Generated_Source\PSoC4/BLE_eventHandler.c **** * 
1370:.\Generated_Source\PSoC4/BLE_eventHandler.c **** *  Handles the GATT connect event from the BLE stack.
1371:.\Generated_Source\PSoC4/BLE_eventHandler.c **** * 
1372:.\Generated_Source\PSoC4/BLE_eventHandler.c **** * \return
1373:.\Generated_Source\PSoC4/BLE_eventHandler.c **** *  None
1374:.\Generated_Source\PSoC4/BLE_eventHandler.c **** * 
ARM GAS  C:\Users\behrenb2\AppData\Local\Temp\ccNHrcVd.s 			page 30


1375:.\Generated_Source\PSoC4/BLE_eventHandler.c **** ******************************************************************************/
1376:.\Generated_Source\PSoC4/BLE_eventHandler.c **** static void CyBle_GattConnectReqHandler(void)
1377:.\Generated_Source\PSoC4/BLE_eventHandler.c **** {
 280              		.loc 1 1377 0
 281              		.cfi_startproc
 282 0000 80B5     		push	{r7, lr}
 283              		.cfi_def_cfa_offset 8
 284              		.cfi_offset 7, -8
 285              		.cfi_offset 14, -4
 286 0002 00AF     		add	r7, sp, #0
 287              		.cfi_def_cfa_register 7
1378:.\Generated_Source\PSoC4/BLE_eventHandler.c ****     #ifdef CYBLE_CGMS_SERVER
1379:.\Generated_Source\PSoC4/BLE_eventHandler.c ****         CyBle_CgmsInit();
1380:.\Generated_Source\PSoC4/BLE_eventHandler.c ****     #endif /* CYBLE_CGMS_SERVER */
1381:.\Generated_Source\PSoC4/BLE_eventHandler.c ****     
1382:.\Generated_Source\PSoC4/BLE_eventHandler.c ****     #ifdef CYBLE_CPS_SERVER
1383:.\Generated_Source\PSoC4/BLE_eventHandler.c ****         CyBle_CpssConnectEventHandler();
1384:.\Generated_Source\PSoC4/BLE_eventHandler.c ****     #endif /* CYBLE_CPS_SERVER */
1385:.\Generated_Source\PSoC4/BLE_eventHandler.c ****     
1386:.\Generated_Source\PSoC4/BLE_eventHandler.c ****     #ifdef CYBLE_CSCS_SERVER
1387:.\Generated_Source\PSoC4/BLE_eventHandler.c ****             CyBle_CscsInit();
1388:.\Generated_Source\PSoC4/BLE_eventHandler.c ****     #endif /* CYBLE_CSCS_SERVER */
1389:.\Generated_Source\PSoC4/BLE_eventHandler.c ****     
1390:.\Generated_Source\PSoC4/BLE_eventHandler.c ****     #ifdef CYBLE_LLS_SERVER
1391:.\Generated_Source\PSoC4/BLE_eventHandler.c ****         CyBle_LlssConnectEventHandler();
1392:.\Generated_Source\PSoC4/BLE_eventHandler.c ****     #endif /* CYBLE_LLS_SERVER */
1393:.\Generated_Source\PSoC4/BLE_eventHandler.c ****     
1394:.\Generated_Source\PSoC4/BLE_eventHandler.c ****     #ifdef CYBLE_HIDS_SERVER
1395:.\Generated_Source\PSoC4/BLE_eventHandler.c ****         CyBle_HidssOnDeviceConnected();
1396:.\Generated_Source\PSoC4/BLE_eventHandler.c ****     #endif /* CYBLE_HIDS_SERVER */
1397:.\Generated_Source\PSoC4/BLE_eventHandler.c **** 
1398:.\Generated_Source\PSoC4/BLE_eventHandler.c ****     #ifdef CYBLE_RSCS_SERVER
1399:.\Generated_Source\PSoC4/BLE_eventHandler.c ****         CyBle_RscsInit();
1400:.\Generated_Source\PSoC4/BLE_eventHandler.c ****     #endif /* CYBLE_RSCS_SERVER */
1401:.\Generated_Source\PSoC4/BLE_eventHandler.c **** }
 288              		.loc 1 1401 0
 289 0004 BD46     		mov	sp, r7
 290              		@ sp needed
 291 0006 80BD     		pop	{r7, pc}
 292              		.cfi_endproc
 293              	.LFE6:
 294              		.size	CyBle_GattConnectReqHandler, .-CyBle_GattConnectReqHandler
 295              		.section	.text.CyBle_IsDeviceAddressValid,"ax",%progbits
 296              		.align	2
 297              		.global	CyBle_IsDeviceAddressValid
 298              		.code	16
 299              		.thumb_func
 300              		.type	CyBle_IsDeviceAddressValid, %function
 301              	CyBle_IsDeviceAddressValid:
 302              	.LFB7:
1402:.\Generated_Source\PSoC4/BLE_eventHandler.c **** 
1403:.\Generated_Source\PSoC4/BLE_eventHandler.c **** 
1404:.\Generated_Source\PSoC4/BLE_eventHandler.c **** #if (CYBLE_GATT_ROLE_SERVER || CYBLE_GATT_ROLE_CLIENT)
1405:.\Generated_Source\PSoC4/BLE_eventHandler.c **** 
1406:.\Generated_Source\PSoC4/BLE_eventHandler.c **** /****************************************************************************** 
1407:.\Generated_Source\PSoC4/BLE_eventHandler.c **** * Function Name: CyBle_IsDeviceAddressValid
1408:.\Generated_Source\PSoC4/BLE_eventHandler.c **** ***************************************************************************//**
ARM GAS  C:\Users\behrenb2\AppData\Local\Temp\ccNHrcVd.s 			page 31


1409:.\Generated_Source\PSoC4/BLE_eventHandler.c **** * 
1410:.\Generated_Source\PSoC4/BLE_eventHandler.c **** *  This function verifies that BLE public address has been programmed to SFLASH 
1411:.\Generated_Source\PSoC4/BLE_eventHandler.c **** *  during manufacture. It could be used to verify if public device address is 
1412:.\Generated_Source\PSoC4/BLE_eventHandler.c **** *  programmed to flash memory.
1413:.\Generated_Source\PSoC4/BLE_eventHandler.c **** * 
1414:.\Generated_Source\PSoC4/BLE_eventHandler.c **** *  \param deviceAddress: the pointer to the BD address of type CYBLE_GAP_BD_ADDR_T. 
1415:.\Generated_Source\PSoC4/BLE_eventHandler.c **** * 
1416:.\Generated_Source\PSoC4/BLE_eventHandler.c **** * \return
1417:.\Generated_Source\PSoC4/BLE_eventHandler.c **** *  Non zero value when a device address differs from the default SFLASH content.
1418:.\Generated_Source\PSoC4/BLE_eventHandler.c **** * 
1419:.\Generated_Source\PSoC4/BLE_eventHandler.c **** ******************************************************************************/
1420:.\Generated_Source\PSoC4/BLE_eventHandler.c **** uint8 CyBle_IsDeviceAddressValid(const CYBLE_GAP_BD_ADDR_T *deviceAddress)
1421:.\Generated_Source\PSoC4/BLE_eventHandler.c **** {
 303              		.loc 1 1421 0
 304              		.cfi_startproc
 305 0000 80B5     		push	{r7, lr}
 306              		.cfi_def_cfa_offset 8
 307              		.cfi_offset 7, -8
 308              		.cfi_offset 14, -4
 309 0002 84B0     		sub	sp, sp, #16
 310              		.cfi_def_cfa_offset 24
 311 0004 00AF     		add	r7, sp, #0
 312              		.cfi_def_cfa_register 7
 313 0006 7860     		str	r0, [r7, #4]
1422:.\Generated_Source\PSoC4/BLE_eventHandler.c ****     uint8 i;
1423:.\Generated_Source\PSoC4/BLE_eventHandler.c ****     uint8 addressValid = 0u;
 314              		.loc 1 1423 0
 315 0008 0E23     		mov	r3, #14
 316 000a FB18     		add	r3, r7, r3
 317 000c 0022     		mov	r2, #0
 318 000e 1A70     		strb	r2, [r3]
1424:.\Generated_Source\PSoC4/BLE_eventHandler.c ****     
1425:.\Generated_Source\PSoC4/BLE_eventHandler.c ****     if(deviceAddress -> type == CYBLE_GAP_ADDR_TYPE_PUBLIC)  
 319              		.loc 1 1425 0
 320 0010 7B68     		ldr	r3, [r7, #4]
 321 0012 9B79     		ldrb	r3, [r3, #6]
 322 0014 002B     		cmp	r3, #0
 323 0016 1CD1     		bne	.L18
1426:.\Generated_Source\PSoC4/BLE_eventHandler.c ****     {
1427:.\Generated_Source\PSoC4/BLE_eventHandler.c ****         for(i = 0u; i < CYBLE_GAP_BD_ADDR_SIZE; i++)
 324              		.loc 1 1427 0
 325 0018 0F23     		mov	r3, #15
 326 001a FB18     		add	r3, r7, r3
 327 001c 0022     		mov	r2, #0
 328 001e 1A70     		strb	r2, [r3]
 329 0020 12E0     		b	.L19
 330              	.L21:
1428:.\Generated_Source\PSoC4/BLE_eventHandler.c ****         {
1429:.\Generated_Source\PSoC4/BLE_eventHandler.c ****             if(deviceAddress->bdAddr[i] != 0u)
 331              		.loc 1 1429 0
 332 0022 0F23     		mov	r3, #15
 333 0024 FB18     		add	r3, r7, r3
 334 0026 1B78     		ldrb	r3, [r3]
 335 0028 7A68     		ldr	r2, [r7, #4]
 336 002a D35C     		ldrb	r3, [r2, r3]
 337 002c 002B     		cmp	r3, #0
 338 002e 04D0     		beq	.L20
ARM GAS  C:\Users\behrenb2\AppData\Local\Temp\ccNHrcVd.s 			page 32


1430:.\Generated_Source\PSoC4/BLE_eventHandler.c ****             {
1431:.\Generated_Source\PSoC4/BLE_eventHandler.c ****                 addressValid = 1u;
 339              		.loc 1 1431 0
 340 0030 0E23     		mov	r3, #14
 341 0032 FB18     		add	r3, r7, r3
 342 0034 0122     		mov	r2, #1
 343 0036 1A70     		strb	r2, [r3]
1432:.\Generated_Source\PSoC4/BLE_eventHandler.c ****                 break;
 344              		.loc 1 1432 0
 345 0038 0BE0     		b	.L18
 346              	.L20:
1427:.\Generated_Source\PSoC4/BLE_eventHandler.c ****         {
 347              		.loc 1 1427 0 discriminator 2
 348 003a 0F23     		mov	r3, #15
 349 003c FB18     		add	r3, r7, r3
 350 003e 1A78     		ldrb	r2, [r3]
 351 0040 0F23     		mov	r3, #15
 352 0042 FB18     		add	r3, r7, r3
 353 0044 0132     		add	r2, r2, #1
 354 0046 1A70     		strb	r2, [r3]
 355              	.L19:
1427:.\Generated_Source\PSoC4/BLE_eventHandler.c ****         {
 356              		.loc 1 1427 0 is_stmt 0 discriminator 1
 357 0048 0F23     		mov	r3, #15
 358 004a FB18     		add	r3, r7, r3
 359 004c 1B78     		ldrb	r3, [r3]
 360 004e 052B     		cmp	r3, #5
 361 0050 E7D9     		bls	.L21
 362              	.L18:
1433:.\Generated_Source\PSoC4/BLE_eventHandler.c ****             }
1434:.\Generated_Source\PSoC4/BLE_eventHandler.c ****         }
1435:.\Generated_Source\PSoC4/BLE_eventHandler.c ****     }
1436:.\Generated_Source\PSoC4/BLE_eventHandler.c ****     return (addressValid);
 363              		.loc 1 1436 0 is_stmt 1
 364 0052 0E23     		mov	r3, #14
 365 0054 FB18     		add	r3, r7, r3
 366 0056 1B78     		ldrb	r3, [r3]
1437:.\Generated_Source\PSoC4/BLE_eventHandler.c **** }
 367              		.loc 1 1437 0
 368 0058 181C     		mov	r0, r3
 369 005a BD46     		mov	sp, r7
 370 005c 04B0     		add	sp, sp, #16
 371              		@ sp needed
 372 005e 80BD     		pop	{r7, pc}
 373              		.cfi_endproc
 374              	.LFE7:
 375              		.size	CyBle_IsDeviceAddressValid, .-CyBle_IsDeviceAddressValid
 376              		.section	.text.CyBle_L2Cap_ConnParamUpdateRspEventHandler,"ax",%progbits
 377              		.align	2
 378              		.code	16
 379              		.thumb_func
 380              		.type	CyBle_L2Cap_ConnParamUpdateRspEventHandler, %function
 381              	CyBle_L2Cap_ConnParamUpdateRspEventHandler:
 382              	.LFB8:
1438:.\Generated_Source\PSoC4/BLE_eventHandler.c **** #endif /* CYBLE_GATT_ROLE_SERVER || CYBLE_GATT_ROLE_CLIENT */
1439:.\Generated_Source\PSoC4/BLE_eventHandler.c **** 
1440:.\Generated_Source\PSoC4/BLE_eventHandler.c **** 
ARM GAS  C:\Users\behrenb2\AppData\Local\Temp\ccNHrcVd.s 			page 33


1441:.\Generated_Source\PSoC4/BLE_eventHandler.c **** /****************************************************************************** 
1442:.\Generated_Source\PSoC4/BLE_eventHandler.c **** * Function Name: CyBle_L2Cap_ConnParamUpdateRspHandler
1443:.\Generated_Source\PSoC4/BLE_eventHandler.c **** ***************************************************************************//**
1444:.\Generated_Source\PSoC4/BLE_eventHandler.c **** * 
1445:.\Generated_Source\PSoC4/BLE_eventHandler.c **** *  Handles the L2CAP connection parameter response event from
1446:.\Generated_Source\PSoC4/BLE_eventHandler.c **** *  the BLE stack.
1447:.\Generated_Source\PSoC4/BLE_eventHandler.c **** * 
1448:.\Generated_Source\PSoC4/BLE_eventHandler.c **** *  \param response:
1449:.\Generated_Source\PSoC4/BLE_eventHandler.c **** *      * Accepted = 0x0000
1450:.\Generated_Source\PSoC4/BLE_eventHandler.c **** *      * Rejected = 0x0001
1451:.\Generated_Source\PSoC4/BLE_eventHandler.c **** * 
1452:.\Generated_Source\PSoC4/BLE_eventHandler.c **** * \return
1453:.\Generated_Source\PSoC4/BLE_eventHandler.c **** *  None
1454:.\Generated_Source\PSoC4/BLE_eventHandler.c **** * 
1455:.\Generated_Source\PSoC4/BLE_eventHandler.c **** ******************************************************************************/
1456:.\Generated_Source\PSoC4/BLE_eventHandler.c **** static void CyBle_L2Cap_ConnParamUpdateRspEventHandler(uint16 response)
1457:.\Generated_Source\PSoC4/BLE_eventHandler.c **** {
 383              		.loc 1 1457 0
 384              		.cfi_startproc
 385 0000 80B5     		push	{r7, lr}
 386              		.cfi_def_cfa_offset 8
 387              		.cfi_offset 7, -8
 388              		.cfi_offset 14, -4
 389 0002 82B0     		sub	sp, sp, #8
 390              		.cfi_def_cfa_offset 16
 391 0004 00AF     		add	r7, sp, #0
 392              		.cfi_def_cfa_register 7
 393 0006 021C     		mov	r2, r0
 394 0008 BB1D     		add	r3, r7, #6
 395 000a 1A80     		strh	r2, [r3]
1458:.\Generated_Source\PSoC4/BLE_eventHandler.c ****     #ifdef CYBLE_CPS_SERVER
1459:.\Generated_Source\PSoC4/BLE_eventHandler.c ****         CyBle_CpssConnParamUpdateRspEventHandler(response);
1460:.\Generated_Source\PSoC4/BLE_eventHandler.c ****     #endif /* CYBLE_CPS_SERVER */
1461:.\Generated_Source\PSoC4/BLE_eventHandler.c ****     
1462:.\Generated_Source\PSoC4/BLE_eventHandler.c ****     /* Unreferenced variable warning workaround */
1463:.\Generated_Source\PSoC4/BLE_eventHandler.c ****     if(response != 0u)
1464:.\Generated_Source\PSoC4/BLE_eventHandler.c ****     {
1465:.\Generated_Source\PSoC4/BLE_eventHandler.c ****     }
1466:.\Generated_Source\PSoC4/BLE_eventHandler.c **** }
 396              		.loc 1 1466 0
 397 000c BD46     		mov	sp, r7
 398 000e 02B0     		add	sp, sp, #8
 399              		@ sp needed
 400 0010 80BD     		pop	{r7, pc}
 401              		.cfi_endproc
 402              	.LFE8:
 403              		.size	CyBle_L2Cap_ConnParamUpdateRspEventHandler, .-CyBle_L2Cap_ConnParamUpdateRspEventHandler
 404 0012 C046     		.section	.text.CyBle_GapConnUpdateCompleteEventHandler,"ax",%progbits
 405              		.align	2
 406              		.code	16
 407              		.thumb_func
 408              		.type	CyBle_GapConnUpdateCompleteEventHandler, %function
 409              	CyBle_GapConnUpdateCompleteEventHandler:
 410              	.LFB9:
1467:.\Generated_Source\PSoC4/BLE_eventHandler.c **** 
1468:.\Generated_Source\PSoC4/BLE_eventHandler.c **** 
1469:.\Generated_Source\PSoC4/BLE_eventHandler.c **** /****************************************************************************** 
ARM GAS  C:\Users\behrenb2\AppData\Local\Temp\ccNHrcVd.s 			page 34


1470:.\Generated_Source\PSoC4/BLE_eventHandler.c **** * Function Name: CyBle_GapConnUpdateCompleteEventHandler
1471:.\Generated_Source\PSoC4/BLE_eventHandler.c **** ***************************************************************************//**
1472:.\Generated_Source\PSoC4/BLE_eventHandler.c **** * 
1473:.\Generated_Source\PSoC4/BLE_eventHandler.c **** *  Handles the CYBLE_EVT_GAP_CONNECTION_UPDATE_COMPLETE event from
1474:.\Generated_Source\PSoC4/BLE_eventHandler.c **** *  the BLE stack.
1475:.\Generated_Source\PSoC4/BLE_eventHandler.c **** * 
1476:.\Generated_Source\PSoC4/BLE_eventHandler.c **** *  \param eventParam: The pointer to the data structure specified by the event.
1477:.\Generated_Source\PSoC4/BLE_eventHandler.c **** * 
1478:.\Generated_Source\PSoC4/BLE_eventHandler.c **** * \return
1479:.\Generated_Source\PSoC4/BLE_eventHandler.c **** *  None
1480:.\Generated_Source\PSoC4/BLE_eventHandler.c **** * 
1481:.\Generated_Source\PSoC4/BLE_eventHandler.c **** ******************************************************************************/
1482:.\Generated_Source\PSoC4/BLE_eventHandler.c **** static void CyBle_GapConnUpdateCompleteEventHandler(const CYBLE_GAP_CONN_PARAM_UPDATED_IN_CONTROLLE
1483:.\Generated_Source\PSoC4/BLE_eventHandler.c **** {
 411              		.loc 1 1483 0
 412              		.cfi_startproc
 413 0000 80B5     		push	{r7, lr}
 414              		.cfi_def_cfa_offset 8
 415              		.cfi_offset 7, -8
 416              		.cfi_offset 14, -4
 417 0002 82B0     		sub	sp, sp, #8
 418              		.cfi_def_cfa_offset 16
 419 0004 00AF     		add	r7, sp, #0
 420              		.cfi_def_cfa_register 7
 421 0006 7860     		str	r0, [r7, #4]
1484:.\Generated_Source\PSoC4/BLE_eventHandler.c ****     #ifdef CYBLE_CPS_SERVER
1485:.\Generated_Source\PSoC4/BLE_eventHandler.c ****         CyBle_CpssConnUpdateCompleteEventHandler(eventParam);
1486:.\Generated_Source\PSoC4/BLE_eventHandler.c ****     #endif /* CYBLE_CPS_SERVER */
1487:.\Generated_Source\PSoC4/BLE_eventHandler.c ****     
1488:.\Generated_Source\PSoC4/BLE_eventHandler.c ****     /* Unreferenced variable warning workaround */
1489:.\Generated_Source\PSoC4/BLE_eventHandler.c ****     if(eventParam != 0u)
1490:.\Generated_Source\PSoC4/BLE_eventHandler.c ****     {
1491:.\Generated_Source\PSoC4/BLE_eventHandler.c ****     }
1492:.\Generated_Source\PSoC4/BLE_eventHandler.c **** }
 422              		.loc 1 1492 0
 423 0008 BD46     		mov	sp, r7
 424 000a 02B0     		add	sp, sp, #8
 425              		@ sp needed
 426 000c 80BD     		pop	{r7, pc}
 427              		.cfi_endproc
 428              	.LFE9:
 429              		.size	CyBle_GapConnUpdateCompleteEventHandler, .-CyBle_GapConnUpdateCompleteEventHandler
 430              		.section	.text.CyBle_EventHandler,"ax",%progbits
 431              		.align	2
 432              		.global	CyBle_EventHandler
 433              		.code	16
 434              		.thumb_func
 435              		.type	CyBle_EventHandler, %function
 436              	CyBle_EventHandler:
 437              	.LFB10:
1493:.\Generated_Source\PSoC4/BLE_eventHandler.c **** 
1494:.\Generated_Source\PSoC4/BLE_eventHandler.c **** 
1495:.\Generated_Source\PSoC4/BLE_eventHandler.c **** /****************************************************************************** 
1496:.\Generated_Source\PSoC4/BLE_eventHandler.c **** * Function Name: CyBle_EventHandler
1497:.\Generated_Source\PSoC4/BLE_eventHandler.c **** ***************************************************************************//**
1498:.\Generated_Source\PSoC4/BLE_eventHandler.c **** * 
1499:.\Generated_Source\PSoC4/BLE_eventHandler.c **** *  Handles the events from the BLE stack
ARM GAS  C:\Users\behrenb2\AppData\Local\Temp\ccNHrcVd.s 			page 35


1500:.\Generated_Source\PSoC4/BLE_eventHandler.c **** * 
1501:.\Generated_Source\PSoC4/BLE_eventHandler.c **** *  \param eventCode:    the event code
1502:.\Generated_Source\PSoC4/BLE_eventHandler.c **** *  \param eventParam:  the event parameters
1503:.\Generated_Source\PSoC4/BLE_eventHandler.c **** * 
1504:.\Generated_Source\PSoC4/BLE_eventHandler.c **** * \return
1505:.\Generated_Source\PSoC4/BLE_eventHandler.c **** *  None.
1506:.\Generated_Source\PSoC4/BLE_eventHandler.c **** * 
1507:.\Generated_Source\PSoC4/BLE_eventHandler.c **** ******************************************************************************/
1508:.\Generated_Source\PSoC4/BLE_eventHandler.c **** void CyBle_EventHandler(uint8 eventCode, void *eventParam)
1509:.\Generated_Source\PSoC4/BLE_eventHandler.c **** {
 438              		.loc 1 1509 0
 439              		.cfi_startproc
 440 0000 80B5     		push	{r7, lr}
 441              		.cfi_def_cfa_offset 8
 442              		.cfi_offset 7, -8
 443              		.cfi_offset 14, -4
 444 0002 86B0     		sub	sp, sp, #24
 445              		.cfi_def_cfa_offset 32
 446 0004 00AF     		add	r7, sp, #0
 447              		.cfi_def_cfa_register 7
 448 0006 021C     		mov	r2, r0
 449 0008 3960     		str	r1, [r7]
 450 000a FB1D     		add	r3, r7, #7
 451 000c 1A70     		strb	r2, [r3]
1510:.\Generated_Source\PSoC4/BLE_eventHandler.c ****     cyBle_eventHandlerFlag |= CYBLE_CALLBACK;
 452              		.loc 1 1510 0
 453 000e B14B     		ldr	r3, .L62
 454 0010 1B78     		ldrb	r3, [r3]
 455 0012 DBB2     		uxtb	r3, r3
 456 0014 0122     		mov	r2, #1
 457 0016 1343     		orr	r3, r2
 458 0018 DAB2     		uxtb	r2, r3
 459 001a AE4B     		ldr	r3, .L62
 460 001c 1A70     		strb	r2, [r3]
1511:.\Generated_Source\PSoC4/BLE_eventHandler.c **** 
1512:.\Generated_Source\PSoC4/BLE_eventHandler.c ****     /* Common Profile event handling */
1513:.\Generated_Source\PSoC4/BLE_eventHandler.c ****     switch(eventCode)
 461              		.loc 1 1513 0
 462 001e FB1D     		add	r3, r7, #7
 463 0020 1B78     		ldrb	r3, [r3]
 464 0022 712B     		cmp	r3, #113
 465 0024 00D9     		bls	.LCB390
 466 0026 39E1     		b	.L61	@long jump
 467              	.LCB390:
 468 0028 9A00     		lsl	r2, r3, #2
 469 002a AB4B     		ldr	r3, .L62+4
 470 002c D318     		add	r3, r2, r3
 471 002e 1B68     		ldr	r3, [r3]
 472 0030 9F46     		mov	pc, r3
 473              		.section	.rodata
 474              		.align	2
 475              	.L28:
 476 0000 9C020000 		.word	.L61
 477 0004 32000000 		.word	.L27
 478 0008 DC000000 		.word	.L29
 479 000c 9C020000 		.word	.L61
 480 0010 9C020000 		.word	.L61
ARM GAS  C:\Users\behrenb2\AppData\Local\Temp\ccNHrcVd.s 			page 36


 481 0014 E6000000 		.word	.L30
 482 0018 F0000000 		.word	.L31
 483 001c 9C020000 		.word	.L61
 484 0020 9C020000 		.word	.L61
 485 0024 9C020000 		.word	.L61
 486 0028 9C020000 		.word	.L61
 487 002c 9C020000 		.word	.L61
 488 0030 9C020000 		.word	.L61
 489 0034 9C020000 		.word	.L61
 490 0038 9C020000 		.word	.L61
 491 003c 9C020000 		.word	.L61
 492 0040 9C020000 		.word	.L61
 493 0044 9C020000 		.word	.L61
 494 0048 9C020000 		.word	.L61
 495 004c 9C020000 		.word	.L61
 496 0050 9C020000 		.word	.L61
 497 0054 9C020000 		.word	.L61
 498 0058 9C020000 		.word	.L61
 499 005c 9C020000 		.word	.L61
 500 0060 9C020000 		.word	.L61
 501 0064 9C020000 		.word	.L61
 502 0068 9C020000 		.word	.L61
 503 006c 9C020000 		.word	.L61
 504 0070 9C020000 		.word	.L61
 505 0074 9C020000 		.word	.L61
 506 0078 9C020000 		.word	.L61
 507 007c 9C020000 		.word	.L61
 508 0080 9C020000 		.word	.L61
 509 0084 30010000 		.word	.L32
 510 0088 9C020000 		.word	.L61
 511 008c 9C020000 		.word	.L61
 512 0090 9C020000 		.word	.L61
 513 0094 9C020000 		.word	.L61
 514 0098 90010000 		.word	.L34
 515 009c 78010000 		.word	.L35
 516 00a0 88010000 		.word	.L36
 517 00a4 9C020000 		.word	.L61
 518 00a8 6E010000 		.word	.L37
 519 00ac 9C020000 		.word	.L61
 520 00b0 9C020000 		.word	.L61
 521 00b4 9C020000 		.word	.L61
 522 00b8 9C020000 		.word	.L61
 523 00bc 9C020000 		.word	.L61
 524 00c0 9C020000 		.word	.L61
 525 00c4 9C020000 		.word	.L61
 526 00c8 9C020000 		.word	.L61
 527 00cc 9C020000 		.word	.L61
 528 00d0 9C020000 		.word	.L61
 529 00d4 9C020000 		.word	.L61
 530 00d8 9C020000 		.word	.L61
 531 00dc 9C020000 		.word	.L61
 532 00e0 9C020000 		.word	.L61
 533 00e4 9C020000 		.word	.L61
 534 00e8 9C020000 		.word	.L61
 535 00ec 9C020000 		.word	.L61
 536 00f0 9C020000 		.word	.L61
 537 00f4 9C020000 		.word	.L61
ARM GAS  C:\Users\behrenb2\AppData\Local\Temp\ccNHrcVd.s 			page 37


 538 00f8 9C020000 		.word	.L61
 539 00fc 9C020000 		.word	.L61
 540 0100 9C020000 		.word	.L61
 541 0104 28020000 		.word	.L38
 542 0108 48020000 		.word	.L39
 543 010c 4E020000 		.word	.L40
 544 0110 9C020000 		.word	.L61
 545 0114 9C020000 		.word	.L61
 546 0118 9C020000 		.word	.L61
 547 011c 9C020000 		.word	.L61
 548 0120 9C020000 		.word	.L61
 549 0124 9C020000 		.word	.L61
 550 0128 9C020000 		.word	.L61
 551 012c 9C020000 		.word	.L61
 552 0130 88020000 		.word	.L41
 553 0134 9C020000 		.word	.L61
 554 0138 9C020000 		.word	.L61
 555 013c 9C020000 		.word	.L61
 556 0140 9C020000 		.word	.L61
 557 0144 9C020000 		.word	.L61
 558 0148 9C020000 		.word	.L61
 559 014c 9C020000 		.word	.L61
 560 0150 92020000 		.word	.L45
 561 0154 9C020000 		.word	.L61
 562 0158 9C020000 		.word	.L61
 563 015c 9C020000 		.word	.L61
 564 0160 9C020000 		.word	.L61
 565 0164 9C020000 		.word	.L61
 566 0168 9C020000 		.word	.L61
 567 016c 9C020000 		.word	.L61
 568 0170 9C020000 		.word	.L61
 569 0174 9C020000 		.word	.L61
 570 0178 9C020000 		.word	.L61
 571 017c 9C020000 		.word	.L61
 572 0180 9C020000 		.word	.L61
 573 0184 9C020000 		.word	.L61
 574 0188 9C020000 		.word	.L61
 575 018c 9C020000 		.word	.L61
 576 0190 9C020000 		.word	.L61
 577 0194 9C020000 		.word	.L61
 578 0198 9C020000 		.word	.L61
 579 019c 9C020000 		.word	.L61
 580 01a0 9C020000 		.word	.L61
 581 01a4 9C020000 		.word	.L61
 582 01a8 9C020000 		.word	.L61
 583 01ac 9C020000 		.word	.L61
 584 01b0 9C020000 		.word	.L61
 585 01b4 9C020000 		.word	.L61
 586 01b8 9C020000 		.word	.L61
 587 01bc 9C020000 		.word	.L61
 588 01c0 9C020000 		.word	.L61
 589 01c4 1C020000 		.word	.L47
 590              		.section	.text.CyBle_EventHandler
 591              	.L27:
 592              	.LBB3:
1514:.\Generated_Source\PSoC4/BLE_eventHandler.c ****     {
1515:.\Generated_Source\PSoC4/BLE_eventHandler.c ****         /**********************************************************
ARM GAS  C:\Users\behrenb2\AppData\Local\Temp\ccNHrcVd.s 			page 38


1516:.\Generated_Source\PSoC4/BLE_eventHandler.c ****         * General events
1517:.\Generated_Source\PSoC4/BLE_eventHandler.c ****         ************************************************************/
1518:.\Generated_Source\PSoC4/BLE_eventHandler.c ****         case CYBLE_EVT_STACK_ON:
1519:.\Generated_Source\PSoC4/BLE_eventHandler.c ****         #if(CYBLE_MODE_PROFILE)
1520:.\Generated_Source\PSoC4/BLE_eventHandler.c ****         {
1521:.\Generated_Source\PSoC4/BLE_eventHandler.c ****             CYBLE_BLESS_PWR_IN_DB_T bleSsPowerLevel;
1522:.\Generated_Source\PSoC4/BLE_eventHandler.c ****             
1523:.\Generated_Source\PSoC4/BLE_eventHandler.c ****             /* Set Tx Power Level for advertising and connection channels */
1524:.\Generated_Source\PSoC4/BLE_eventHandler.c ****             bleSsPowerLevel.blePwrLevelInDbm = CYBLE_TX_POWER_LEVEL_ADV;
 593              		.loc 1 1524 0
 594 0032 0C23     		mov	r3, #12
 595 0034 FB18     		add	r3, r7, r3
 596 0036 0722     		mov	r2, #7
 597 0038 1A70     		strb	r2, [r3]
1525:.\Generated_Source\PSoC4/BLE_eventHandler.c ****             bleSsPowerLevel.bleSsChId = CYBLE_LL_ADV_CH_TYPE;
 598              		.loc 1 1525 0
 599 003a 0C23     		mov	r3, #12
 600 003c FB18     		add	r3, r7, r3
 601 003e 0022     		mov	r2, #0
 602 0040 5A70     		strb	r2, [r3, #1]
1526:.\Generated_Source\PSoC4/BLE_eventHandler.c ****             (void) CyBle_SetTxPowerLevel (&bleSsPowerLevel);
 603              		.loc 1 1526 0
 604 0042 0C23     		mov	r3, #12
 605 0044 FB18     		add	r3, r7, r3
 606 0046 181C     		mov	r0, r3
 607 0048 FFF7FEFF 		bl	CyBle_SetTxPowerLevel
1527:.\Generated_Source\PSoC4/BLE_eventHandler.c ****             bleSsPowerLevel.blePwrLevelInDbm = CYBLE_TX_POWER_LEVEL_CONN;
 608              		.loc 1 1527 0
 609 004c 0C23     		mov	r3, #12
 610 004e FB18     		add	r3, r7, r3
 611 0050 0722     		mov	r2, #7
 612 0052 1A70     		strb	r2, [r3]
1528:.\Generated_Source\PSoC4/BLE_eventHandler.c ****             bleSsPowerLevel.bleSsChId = CYBLE_LL_CONN_CH_TYPE;
 613              		.loc 1 1528 0
 614 0054 0C23     		mov	r3, #12
 615 0056 FB18     		add	r3, r7, r3
 616 0058 0122     		mov	r2, #1
 617 005a 5A70     		strb	r2, [r3, #1]
1529:.\Generated_Source\PSoC4/BLE_eventHandler.c ****             (void) CyBle_SetTxPowerLevel (&bleSsPowerLevel);
 618              		.loc 1 1529 0
 619 005c 0C23     		mov	r3, #12
 620 005e FB18     		add	r3, r7, r3
 621 0060 181C     		mov	r0, r3
 622 0062 FFF7FEFF 		bl	CyBle_SetTxPowerLevel
 623              	.LBE3:
1530:.\Generated_Source\PSoC4/BLE_eventHandler.c ****             
1531:.\Generated_Source\PSoC4/BLE_eventHandler.c ****         }
1532:.\Generated_Source\PSoC4/BLE_eventHandler.c ****         #endif /* CYBLE_MODE_PROFILE */
1533:.\Generated_Source\PSoC4/BLE_eventHandler.c ****         #if (CYBLE_GATT_ROLE_SERVER || CYBLE_GATT_ROLE_CLIENT)
1534:.\Generated_Source\PSoC4/BLE_eventHandler.c ****             /* Set device Address  */
1535:.\Generated_Source\PSoC4/BLE_eventHandler.c ****             if(CyBle_IsDeviceAddressValid(cyBle_sflashDeviceAddress) != 0u)
 624              		.loc 1 1535 0
 625 0066 9D4B     		ldr	r3, .L62+8
 626 0068 1B68     		ldr	r3, [r3]
 627 006a 181C     		mov	r0, r3
 628 006c FFF7FEFF 		bl	CyBle_IsDeviceAddressValid
 629 0070 031E     		sub	r3, r0, #0
ARM GAS  C:\Users\behrenb2\AppData\Local\Temp\ccNHrcVd.s 			page 39


 630 0072 11D0     		beq	.L48
1536:.\Generated_Source\PSoC4/BLE_eventHandler.c ****             {
1537:.\Generated_Source\PSoC4/BLE_eventHandler.c ****                 (void) CyBle_SetDeviceAddress(cyBle_sflashDeviceAddress);
 631              		.loc 1 1537 0
 632 0074 994B     		ldr	r3, .L62+8
 633 0076 1B68     		ldr	r3, [r3]
 634 0078 181C     		mov	r0, r3
 635 007a FFF7FEFF 		bl	CyBle_SetDeviceAddress
1538:.\Generated_Source\PSoC4/BLE_eventHandler.c ****                 #if(CYBLE_GAP_ROLE_PERIPHERAL || CYBLE_GAP_ROLE_BROADCASTER)
1539:.\Generated_Source\PSoC4/BLE_eventHandler.c ****                     CyBle_ChangeAdDeviceAddress(cyBle_sflashDeviceAddress, 0u);
 636              		.loc 1 1539 0
 637 007e 974B     		ldr	r3, .L62+8
 638 0080 1B68     		ldr	r3, [r3]
 639 0082 181C     		mov	r0, r3
 640 0084 0021     		mov	r1, #0
 641 0086 FFF7FEFF 		bl	CyBle_ChangeAdDeviceAddress
1540:.\Generated_Source\PSoC4/BLE_eventHandler.c ****                     CyBle_ChangeAdDeviceAddress(cyBle_sflashDeviceAddress, 1u);
 642              		.loc 1 1540 0
 643 008a 944B     		ldr	r3, .L62+8
 644 008c 1B68     		ldr	r3, [r3]
 645 008e 181C     		mov	r0, r3
 646 0090 0121     		mov	r1, #1
 647 0092 FFF7FEFF 		bl	CyBle_ChangeAdDeviceAddress
 648 0096 0DE0     		b	.L49
 649              	.L48:
1541:.\Generated_Source\PSoC4/BLE_eventHandler.c ****                 #endif /* CYBLE_GAP_ROLE_PERIPHERAL || CYBLE_GAP_ROLE_BROADCASTER */    
1542:.\Generated_Source\PSoC4/BLE_eventHandler.c ****             }
1543:.\Generated_Source\PSoC4/BLE_eventHandler.c ****             else
1544:.\Generated_Source\PSoC4/BLE_eventHandler.c ****             {
1545:.\Generated_Source\PSoC4/BLE_eventHandler.c ****             #if (SILICON_GENERATED_DEVICE_ADDRESS != 0u)
1546:.\Generated_Source\PSoC4/BLE_eventHandler.c ****             {
1547:.\Generated_Source\PSoC4/BLE_eventHandler.c ****                 uint32 bdAddrLoc;
1548:.\Generated_Source\PSoC4/BLE_eventHandler.c ****                 bdAddrLoc = (CYBLE_SFLASH_DIE_X_REG & CYBLE_SFLASH_DIE_X_MASK) |
1549:.\Generated_Source\PSoC4/BLE_eventHandler.c ****                     ((uint32)(((uint32)CYBLE_SFLASH_DIE_Y_REG) & ((uint32)CYBLE_SFLASH_DIE_Y_MASK))
1550:.\Generated_Source\PSoC4/BLE_eventHandler.c ****                         CYBLE_SFLASH_DIE_X_BITS) |
1551:.\Generated_Source\PSoC4/BLE_eventHandler.c ****                     ((uint32)(((uint32)CYBLE_SFLASH_DIE_WAFER_REG) & ((uint32)CYBLE_SFLASH_DIE_WAFE
1552:.\Generated_Source\PSoC4/BLE_eventHandler.c ****                         CYBLE_SFLASH_DIE_XY_BITS) |
1553:.\Generated_Source\PSoC4/BLE_eventHandler.c ****                     ((uint32)(((uint32)CYBLE_SFLASH_DIE_LOT_REG) & ((uint32)CYBLE_SFLASH_DIE_LOT_MA
1554:.\Generated_Source\PSoC4/BLE_eventHandler.c ****                         CYBLE_SFLASH_DIE_XYWAFER_BITS);
1555:.\Generated_Source\PSoC4/BLE_eventHandler.c ****                             
1556:.\Generated_Source\PSoC4/BLE_eventHandler.c ****                 cyBle_deviceAddress.bdAddr[0] = (uint8)bdAddrLoc;
1557:.\Generated_Source\PSoC4/BLE_eventHandler.c ****                 cyBle_deviceAddress.bdAddr[1] = (uint8)(bdAddrLoc >> 8u);
1558:.\Generated_Source\PSoC4/BLE_eventHandler.c ****                 cyBle_deviceAddress.bdAddr[2] = (uint8)(bdAddrLoc >> 16u);
1559:.\Generated_Source\PSoC4/BLE_eventHandler.c ****             }
1560:.\Generated_Source\PSoC4/BLE_eventHandler.c ****             #endif /* SILICON_GENERATED_DEVICE_ADDRESS != 0u */
1561:.\Generated_Source\PSoC4/BLE_eventHandler.c ****                 (void) CyBle_SetDeviceAddress(&cyBle_deviceAddress);
 650              		.loc 1 1561 0
 651 0098 914B     		ldr	r3, .L62+12
 652 009a 181C     		mov	r0, r3
 653 009c FFF7FEFF 		bl	CyBle_SetDeviceAddress
1562:.\Generated_Source\PSoC4/BLE_eventHandler.c ****                 #if(CYBLE_GAP_ROLE_PERIPHERAL || CYBLE_GAP_ROLE_BROADCASTER)
1563:.\Generated_Source\PSoC4/BLE_eventHandler.c ****                     CyBle_ChangeAdDeviceAddress(&cyBle_deviceAddress, 0u);
 654              		.loc 1 1563 0
 655 00a0 8F4B     		ldr	r3, .L62+12
 656 00a2 181C     		mov	r0, r3
 657 00a4 0021     		mov	r1, #0
 658 00a6 FFF7FEFF 		bl	CyBle_ChangeAdDeviceAddress
ARM GAS  C:\Users\behrenb2\AppData\Local\Temp\ccNHrcVd.s 			page 40


1564:.\Generated_Source\PSoC4/BLE_eventHandler.c ****                     CyBle_ChangeAdDeviceAddress(&cyBle_deviceAddress, 1u);
 659              		.loc 1 1564 0
 660 00aa 8D4B     		ldr	r3, .L62+12
 661 00ac 181C     		mov	r0, r3
 662 00ae 0121     		mov	r1, #1
 663 00b0 FFF7FEFF 		bl	CyBle_ChangeAdDeviceAddress
 664              	.L49:
1565:.\Generated_Source\PSoC4/BLE_eventHandler.c ****                 #endif /* CYBLE_GAP_ROLE_PERIPHERAL || CYBLE_GAP_ROLE_BROADCASTER */    
1566:.\Generated_Source\PSoC4/BLE_eventHandler.c ****             }
1567:.\Generated_Source\PSoC4/BLE_eventHandler.c ****             /* Set device IO Capability  */
1568:.\Generated_Source\PSoC4/BLE_eventHandler.c ****             (void) CyBle_GapSetIoCap(CYBLE_IO_CAPABILITY);    
 665              		.loc 1 1568 0
 666 00b4 0320     		mov	r0, #3
 667 00b6 FFF7FEFF 		bl	CyBle_GapSetIoCap
 668              	.LBB4:
1569:.\Generated_Source\PSoC4/BLE_eventHandler.c ****             {
1570:.\Generated_Source\PSoC4/BLE_eventHandler.c ****                 /* Enable all 4.1 events and configured 4.2 events */
1571:.\Generated_Source\PSoC4/BLE_eventHandler.c ****                 uint8 leMask[CYBLE_LE_MASK_LENGTH] = {LO8(CYBLE_LE_MASK), HI8(CYBLE_LE_MASK)};
 669              		.loc 1 1571 0
 670 00ba 0823     		mov	r3, #8
 671 00bc FB18     		add	r3, r7, r3
 672 00be 3F22     		mov	r2, #63
 673 00c0 1A70     		strb	r2, [r3]
 674 00c2 0823     		mov	r3, #8
 675 00c4 FB18     		add	r3, r7, r3
 676 00c6 0022     		mov	r2, #0
 677 00c8 5A70     		strb	r2, [r3, #1]
1572:.\Generated_Source\PSoC4/BLE_eventHandler.c ****                 (void) CyBle_GapSetLeEventMask(leMask);
 678              		.loc 1 1572 0
 679 00ca 0823     		mov	r3, #8
 680 00cc FB18     		add	r3, r7, r3
 681 00ce 181C     		mov	r0, r3
 682 00d0 FFF7FEFF 		bl	CyBle_GapSetLeEventMask
 683              	.LBE4:
1573:.\Generated_Source\PSoC4/BLE_eventHandler.c ****             }
1574:.\Generated_Source\PSoC4/BLE_eventHandler.c ****         #if(CYBLE_DLE_FEATURE_ENABLED)
1575:.\Generated_Source\PSoC4/BLE_eventHandler.c ****         {
1576:.\Generated_Source\PSoC4/BLE_eventHandler.c ****             /* Set maximum suggested TX payload size */
1577:.\Generated_Source\PSoC4/BLE_eventHandler.c ****             uint16 payloadTime = CYBLE_LL_MAX_TX_TIME;
1578:.\Generated_Source\PSoC4/BLE_eventHandler.c ****             (void) CyBle_GapConvertOctetToTime(CYBLE_GAP_PHY_1MBPS, CYBLE_LL_MAX_TX_PAYLOAD_SIZE, &
1579:.\Generated_Source\PSoC4/BLE_eventHandler.c ****             (void) CyBle_GapSetSuggestedDataLength(CYBLE_LL_MAX_TX_PAYLOAD_SIZE, payloadTime); 
1580:.\Generated_Source\PSoC4/BLE_eventHandler.c ****         }
1581:.\Generated_Source\PSoC4/BLE_eventHandler.c ****         #endif /* CYBLE_DLE_FEATURE != 0u */
1582:.\Generated_Source\PSoC4/BLE_eventHandler.c ****         
1583:.\Generated_Source\PSoC4/BLE_eventHandler.c ****         #endif /* CYBLE_GATT_ROLE_SERVER || CYBLE_GATT_ROLE_CLIENT */
1584:.\Generated_Source\PSoC4/BLE_eventHandler.c ****             CyBle_SetState(CYBLE_STATE_DISCONNECTED);
 684              		.loc 1 1584 0
 685 00d4 834B     		ldr	r3, .L62+16
 686 00d6 0422     		mov	r2, #4
 687 00d8 1A70     		strb	r2, [r3]
1585:.\Generated_Source\PSoC4/BLE_eventHandler.c ****             break;
 688              		.loc 1 1585 0
 689 00da E0E0     		b	.L50
 690              	.L29:
1586:.\Generated_Source\PSoC4/BLE_eventHandler.c ****         case CYBLE_EVT_TIMEOUT:
1587:.\Generated_Source\PSoC4/BLE_eventHandler.c ****             CyBle_TimeOutEventHandler((CYBLE_TO_REASON_CODE_T *)eventParam);
 691              		.loc 1 1587 0
ARM GAS  C:\Users\behrenb2\AppData\Local\Temp\ccNHrcVd.s 			page 41


 692 00dc 3B68     		ldr	r3, [r7]
 693 00de 181C     		mov	r0, r3
 694 00e0 FFF7FEFF 		bl	CyBle_TimeOutEventHandler
1588:.\Generated_Source\PSoC4/BLE_eventHandler.c ****             break;
 695              		.loc 1 1588 0
 696 00e4 DBE0     		b	.L50
 697              	.L30:
1589:.\Generated_Source\PSoC4/BLE_eventHandler.c ****     	case CYBLE_EVT_STACK_BUSY_STATUS:
1590:.\Generated_Source\PSoC4/BLE_eventHandler.c ****             cyBle_busyStatus = *(uint8 *)eventParam;
 698              		.loc 1 1590 0
 699 00e6 3B68     		ldr	r3, [r7]
 700 00e8 1A78     		ldrb	r2, [r3]
 701 00ea 7F4B     		ldr	r3, .L62+20
 702 00ec 1A70     		strb	r2, [r3]
1591:.\Generated_Source\PSoC4/BLE_eventHandler.c ****             break;
 703              		.loc 1 1591 0
 704 00ee D6E0     		b	.L50
 705              	.L31:
 706              	.LBB5:
1592:.\Generated_Source\PSoC4/BLE_eventHandler.c ****     	case CYBLE_EVT_MEMORY_REQUEST:
1593:.\Generated_Source\PSoC4/BLE_eventHandler.c ****         #if(CYBLE_MODE_PROFILE)
1594:.\Generated_Source\PSoC4/BLE_eventHandler.c ****         {
1595:.\Generated_Source\PSoC4/BLE_eventHandler.c ****             CYBLE_MEMORY_REQUEST_T *memReq = (CYBLE_MEMORY_REQUEST_T *)eventParam;
 707              		.loc 1 1595 0
 708 00f0 3B68     		ldr	r3, [r7]
 709 00f2 3B61     		str	r3, [r7, #16]
1596:.\Generated_Source\PSoC4/BLE_eventHandler.c ****             if(memReq->request == CYBLE_PREPARED_WRITE_REQUEST)
 710              		.loc 1 1596 0
 711 00f4 3B69     		ldr	r3, [r7, #16]
 712 00f6 1B78     		ldrb	r3, [r3]
 713 00f8 002B     		cmp	r3, #0
 714 00fa 18D1     		bne	.L51
1597:.\Generated_Source\PSoC4/BLE_eventHandler.c ****             {  
1598:.\Generated_Source\PSoC4/BLE_eventHandler.c ****             #if(CYBLE_GATT_ENABLE_EXTERNAL_PREP_WRITE_BUFF == 0u)
1599:.\Generated_Source\PSoC4/BLE_eventHandler.c ****                 /* Stack requests to provide memory to process remote request */
1600:.\Generated_Source\PSoC4/BLE_eventHandler.c ****                 if(memReq->allocFree == CYBLE_ALLOC_MEMORY)
 715              		.loc 1 1600 0
 716 00fc 3B69     		ldr	r3, [r7, #16]
 717 00fe 5B78     		ldrb	r3, [r3, #1]
 718 0100 002B     		cmp	r3, #0
 719 0102 0BD1     		bne	.L52
 720              	.LBB6:
1601:.\Generated_Source\PSoC4/BLE_eventHandler.c ****                 {
1602:.\Generated_Source\PSoC4/BLE_eventHandler.c ****                     static CYBLE_PREPARE_WRITE_REQUEST_MEMORY_T gPrepWriteReqMem;
1603:.\Generated_Source\PSoC4/BLE_eventHandler.c ****                     
1604:.\Generated_Source\PSoC4/BLE_eventHandler.c ****                     /* Configure and return statically allocated buffer at the end of cyBle_stackMe
1605:.\Generated_Source\PSoC4/BLE_eventHandler.c ****                     gPrepWriteReqMem.prepareWriteQueueSize = CYBLE_GATT_MAX_PREPARE_BUFF_COUNT;
 721              		.loc 1 1605 0
 722 0104 794B     		ldr	r3, .L62+24
 723 0106 0222     		mov	r2, #2
 724 0108 DA80     		strh	r2, [r3, #6]
1606:.\Generated_Source\PSoC4/BLE_eventHandler.c ****                     gPrepWriteReqMem.totalAttrValueLength = CYBLE_GATT_PREPARE_LENGTH_ALIGN;
 725              		.loc 1 1606 0
 726 010a 784B     		ldr	r3, .L62+24
 727 010c 1822     		mov	r2, #24
 728 010e 9A80     		strh	r2, [r3, #4]
1607:.\Generated_Source\PSoC4/BLE_eventHandler.c ****                     gPrepWriteReqMem.queueBuffer = &cyBle_stackMemoryRam[CYBLE_STACK_RAM_SIZE - 
ARM GAS  C:\Users\behrenb2\AppData\Local\Temp\ccNHrcVd.s 			page 42


 729              		.loc 1 1607 0
 730 0110 764B     		ldr	r3, .L62+24
 731 0112 774A     		ldr	r2, .L62+28
 732 0114 1A60     		str	r2, [r3]
1608:.\Generated_Source\PSoC4/BLE_eventHandler.c ****                                                                          CYBLE_GATT_PREPARE_WRITE_B
1609:.\Generated_Source\PSoC4/BLE_eventHandler.c ****                     memReq->configMemory = &gPrepWriteReqMem;  
 733              		.loc 1 1609 0
 734 0116 3B69     		ldr	r3, [r7, #16]
 735 0118 744A     		ldr	r2, .L62+24
 736 011a 5A60     		str	r2, [r3, #4]
 737              	.L52:
 738              	.LBE6:
1610:.\Generated_Source\PSoC4/BLE_eventHandler.c ****                 }                
1611:.\Generated_Source\PSoC4/BLE_eventHandler.c ****                 /* Clear CYBLE_CALLBACK flag not to provide handled event to application */
1612:.\Generated_Source\PSoC4/BLE_eventHandler.c ****                 cyBle_eventHandlerFlag &= (uint8)~CYBLE_CALLBACK;
 739              		.loc 1 1612 0
 740 011c 6D4B     		ldr	r3, .L62
 741 011e 1B78     		ldrb	r3, [r3]
 742 0120 DBB2     		uxtb	r3, r3
 743 0122 0122     		mov	r2, #1
 744 0124 9343     		bic	r3, r2
 745 0126 DAB2     		uxtb	r2, r3
 746 0128 6A4B     		ldr	r3, .L62
 747 012a 1A70     		strb	r2, [r3]
 748              	.LBE5:
1613:.\Generated_Source\PSoC4/BLE_eventHandler.c ****             #endif  /* CYBLE_GATT_ENABLE_EXTERNAL_PREP_WRITE_BUFF == 0u */
1614:.\Generated_Source\PSoC4/BLE_eventHandler.c ****             }
1615:.\Generated_Source\PSoC4/BLE_eventHandler.c ****         }
1616:.\Generated_Source\PSoC4/BLE_eventHandler.c ****         #endif /* CYBLE_MODE_PROFILE */
1617:.\Generated_Source\PSoC4/BLE_eventHandler.c ****             break;
 749              		.loc 1 1617 0
 750 012c B7E0     		b	.L50
 751              	.L51:
 752 012e B6E0     		b	.L50
 753              	.L32:
1618:.\Generated_Source\PSoC4/BLE_eventHandler.c ****         /**********************************************************
1619:.\Generated_Source\PSoC4/BLE_eventHandler.c ****         * GAP events
1620:.\Generated_Source\PSoC4/BLE_eventHandler.c ****         ************************************************************/
1621:.\Generated_Source\PSoC4/BLE_eventHandler.c ****         case CYBLE_EVT_GAP_AUTH_REQ:
1622:.\Generated_Source\PSoC4/BLE_eventHandler.c ****         #if(CYBLE_MODE_PROFILE)
1623:.\Generated_Source\PSoC4/BLE_eventHandler.c ****             if(0u == (cyBle_eventHandlerFlag & CYBLE_DISABLE_AUTOMATIC_AUTH))
 754              		.loc 1 1623 0
 755 0130 684B     		ldr	r3, .L62
 756 0132 1B78     		ldrb	r3, [r3]
 757 0134 DBB2     		uxtb	r3, r3
 758 0136 1A1C     		mov	r2, r3
 759 0138 2023     		mov	r3, #32
 760 013a 1340     		and	r3, r2
 761 013c 16D1     		bne	.L53
1624:.\Generated_Source\PSoC4/BLE_eventHandler.c ****             {
1625:.\Generated_Source\PSoC4/BLE_eventHandler.c ****                 /* If the responding device does not support pairing then the responding 
1626:.\Generated_Source\PSoC4/BLE_eventHandler.c ****                    device shall respond using the Pairing Failed message with the error 
1627:.\Generated_Source\PSoC4/BLE_eventHandler.c ****                    code "Pairing Not Supported" otherwise it responds with a Pairing 
1628:.\Generated_Source\PSoC4/BLE_eventHandler.c ****                    Response message.
1629:.\Generated_Source\PSoC4/BLE_eventHandler.c ****                 */
1630:.\Generated_Source\PSoC4/BLE_eventHandler.c ****                 if(cyBle_authInfo.security == (CYBLE_GAP_SEC_MODE_1 | CYBLE_GAP_SEC_LEVEL_1))
 762              		.loc 1 1630 0
ARM GAS  C:\Users\behrenb2\AppData\Local\Temp\ccNHrcVd.s 			page 43


 763 013e 6D4B     		ldr	r3, .L62+32
 764 0140 1B78     		ldrb	r3, [r3]
 765 0142 102B     		cmp	r3, #16
 766 0144 02D1     		bne	.L54
1631:.\Generated_Source\PSoC4/BLE_eventHandler.c ****                 {
1632:.\Generated_Source\PSoC4/BLE_eventHandler.c ****                     cyBle_authInfo.authErr = CYBLE_GAP_AUTH_ERROR_PAIRING_NOT_SUPPORTED;
 767              		.loc 1 1632 0
 768 0146 6B4B     		ldr	r3, .L62+32
 769 0148 0522     		mov	r2, #5
 770 014a DA70     		strb	r2, [r3, #3]
 771              	.L54:
1633:.\Generated_Source\PSoC4/BLE_eventHandler.c ****                 }    
1634:.\Generated_Source\PSoC4/BLE_eventHandler.c ****             #if(CYBLE_GAP_ROLE_PERIPHERAL)
1635:.\Generated_Source\PSoC4/BLE_eventHandler.c ****                 (void)CyBle_GappAuthReqReply(cyBle_connHandle.bdHandle, &cyBle_authInfo);
 772              		.loc 1 1635 0
 773 014c 6A4B     		ldr	r3, .L62+36
 774 014e 1A78     		ldrb	r2, [r3]
 775 0150 684B     		ldr	r3, .L62+32
 776 0152 101C     		mov	r0, r2
 777 0154 191C     		mov	r1, r3
 778 0156 FFF7FEFF 		bl	CyBle_GappAuthReqReply
1636:.\Generated_Source\PSoC4/BLE_eventHandler.c ****                 /* Setting callback flag again as CyBle_GappAuthReqReply() will generate
1637:.\Generated_Source\PSoC4/BLE_eventHandler.c ****                 * CYBLE_EVT_GAP_SMP_NEGOTIATED_AUTH_INFO event wich will clear the callback
1638:.\Generated_Source\PSoC4/BLE_eventHandler.c ****                 * flag.
1639:.\Generated_Source\PSoC4/BLE_eventHandler.c ****                 */
1640:.\Generated_Source\PSoC4/BLE_eventHandler.c ****                 cyBle_eventHandlerFlag |= CYBLE_CALLBACK;
 779              		.loc 1 1640 0
 780 015a 5E4B     		ldr	r3, .L62
 781 015c 1B78     		ldrb	r3, [r3]
 782 015e DBB2     		uxtb	r3, r3
 783 0160 0122     		mov	r2, #1
 784 0162 1343     		orr	r3, r2
 785 0164 DAB2     		uxtb	r2, r3
 786 0166 5B4B     		ldr	r3, .L62
 787 0168 1A70     		strb	r2, [r3]
1641:.\Generated_Source\PSoC4/BLE_eventHandler.c ****             #endif /* CYBLE_GAP_ROLE_PERIPHERAL */
1642:.\Generated_Source\PSoC4/BLE_eventHandler.c ****             #if (CYBLE_GAP_ROLE_CENTRAL)
1643:.\Generated_Source\PSoC4/BLE_eventHandler.c ****                 (void)CyBle_GapAuthReq(cyBle_connHandle.bdHandle, &cyBle_authInfo);
1644:.\Generated_Source\PSoC4/BLE_eventHandler.c ****             #endif /* CYBLE_GAP_ROLE_CENTRAL */
1645:.\Generated_Source\PSoC4/BLE_eventHandler.c ****             }
1646:.\Generated_Source\PSoC4/BLE_eventHandler.c ****         #endif /* CYBLE_MODE_PROFILE */
1647:.\Generated_Source\PSoC4/BLE_eventHandler.c ****             break;
 788              		.loc 1 1647 0
 789 016a 98E0     		b	.L50
 790              	.L53:
 791 016c 97E0     		b	.L50
 792              	.L37:
1648:.\Generated_Source\PSoC4/BLE_eventHandler.c ****         
1649:.\Generated_Source\PSoC4/BLE_eventHandler.c ****         case CYBLE_EVT_GAP_AUTH_COMPLETE:
1650:.\Generated_Source\PSoC4/BLE_eventHandler.c ****         #if((CYBLE_GAP_ROLE_PERIPHERAL || CYBLE_GAP_ROLE_CENTRAL) && (CYBLE_BONDING_REQUIREMENT == 
1651:.\Generated_Source\PSoC4/BLE_eventHandler.c ****             cyBle_peerBonding = ((CYBLE_GAP_AUTH_INFO_T *)eventParam)->bonding;
1652:.\Generated_Source\PSoC4/BLE_eventHandler.c ****         #endif  /* CYBLE_BONDING_REQUIREMENT == CYBLE_BONDING_YES */
1653:.\Generated_Source\PSoC4/BLE_eventHandler.c ****             break;
1654:.\Generated_Source\PSoC4/BLE_eventHandler.c ****         
1655:.\Generated_Source\PSoC4/BLE_eventHandler.c ****         case CYBLE_EVT_GAP_CONNECTION_UPDATE_COMPLETE:
1656:.\Generated_Source\PSoC4/BLE_eventHandler.c ****             CyBle_GapConnUpdateCompleteEventHandler((const CYBLE_GAP_CONN_PARAM_UPDATED_IN_CONTROLL
 793              		.loc 1 1656 0
ARM GAS  C:\Users\behrenb2\AppData\Local\Temp\ccNHrcVd.s 			page 44


 794 016e 3B68     		ldr	r3, [r7]
 795 0170 181C     		mov	r0, r3
 796 0172 FFF7FEFF 		bl	CyBle_GapConnUpdateCompleteEventHandler
1657:.\Generated_Source\PSoC4/BLE_eventHandler.c ****             break;
 797              		.loc 1 1657 0
 798 0176 92E0     		b	.L50
 799              	.L35:
1658:.\Generated_Source\PSoC4/BLE_eventHandler.c ****             
1659:.\Generated_Source\PSoC4/BLE_eventHandler.c ****     #if(CYBLE_LL_PRIVACY_FEATURE != 0u)        
1660:.\Generated_Source\PSoC4/BLE_eventHandler.c ****         case CYBLE_EVT_GAP_ENHANCE_CONN_COMPLETE:
1661:.\Generated_Source\PSoC4/BLE_eventHandler.c ****         {
1662:.\Generated_Source\PSoC4/BLE_eventHandler.c ****             CYBLE_GAP_CONN_PARAM_UPDATED_IN_CONTROLLER_T  connCParam;
1663:.\Generated_Source\PSoC4/BLE_eventHandler.c ****             CYBLE_GAP_ENHANCE_CONN_COMPLETE_T *connEnhanceParam;
1664:.\Generated_Source\PSoC4/BLE_eventHandler.c ****             
1665:.\Generated_Source\PSoC4/BLE_eventHandler.c ****             connEnhanceParam = (CYBLE_GAP_ENHANCE_CONN_COMPLETE_T *)eventParam;
1666:.\Generated_Source\PSoC4/BLE_eventHandler.c ****             connCParam.status = connEnhanceParam->status;
1667:.\Generated_Source\PSoC4/BLE_eventHandler.c ****             connCParam.connIntv = connEnhanceParam->connIntv;
1668:.\Generated_Source\PSoC4/BLE_eventHandler.c ****             connCParam.connLatency = connEnhanceParam->connLatency;
1669:.\Generated_Source\PSoC4/BLE_eventHandler.c ****             connCParam.supervisionTO = connEnhanceParam->supervisionTo;
1670:.\Generated_Source\PSoC4/BLE_eventHandler.c ****             CyBle_GapConnUpdateCompleteEventHandler((const CYBLE_GAP_CONN_PARAM_UPDATED_IN_CONTROLL
1671:.\Generated_Source\PSoC4/BLE_eventHandler.c ****             
1672:.\Generated_Source\PSoC4/BLE_eventHandler.c ****             #if(CYBLE_GAP_ROLE_CENTRAL)
1673:.\Generated_Source\PSoC4/BLE_eventHandler.c ****                 if(cyBle_connectingTimeout != 0u)
1674:.\Generated_Source\PSoC4/BLE_eventHandler.c ****                 {
1675:.\Generated_Source\PSoC4/BLE_eventHandler.c ****                    (void)CyBle_StopTimer();
1676:.\Generated_Source\PSoC4/BLE_eventHandler.c ****                 }
1677:.\Generated_Source\PSoC4/BLE_eventHandler.c ****             #endif /* CYBLE_GAP_ROLE_CENTRAL */
1678:.\Generated_Source\PSoC4/BLE_eventHandler.c ****             CyBle_SetState(CYBLE_STATE_CONNECTED);
1679:.\Generated_Source\PSoC4/BLE_eventHandler.c ****         }
1680:.\Generated_Source\PSoC4/BLE_eventHandler.c ****             break;
1681:.\Generated_Source\PSoC4/BLE_eventHandler.c ****     #endif /* CYBLE_LL_PRIVACY_FEATURE != 0u */      
1682:.\Generated_Source\PSoC4/BLE_eventHandler.c ****             
1683:.\Generated_Source\PSoC4/BLE_eventHandler.c ****         case CYBLE_EVT_GAP_DEVICE_CONNECTED:
1684:.\Generated_Source\PSoC4/BLE_eventHandler.c ****             CyBle_GapConnUpdateCompleteEventHandler((const CYBLE_GAP_CONN_PARAM_UPDATED_IN_CONTROLL
 800              		.loc 1 1684 0
 801 0178 3B68     		ldr	r3, [r7]
 802 017a 181C     		mov	r0, r3
 803 017c FFF7FEFF 		bl	CyBle_GapConnUpdateCompleteEventHandler
1685:.\Generated_Source\PSoC4/BLE_eventHandler.c ****             #if(CYBLE_GAP_ROLE_CENTRAL)
1686:.\Generated_Source\PSoC4/BLE_eventHandler.c ****                 if(cyBle_connectingTimeout != 0u)
1687:.\Generated_Source\PSoC4/BLE_eventHandler.c ****                 {
1688:.\Generated_Source\PSoC4/BLE_eventHandler.c ****                    (void)CyBle_StopTimer();
1689:.\Generated_Source\PSoC4/BLE_eventHandler.c ****                 }
1690:.\Generated_Source\PSoC4/BLE_eventHandler.c ****             #endif /* CYBLE_GAP_ROLE_CENTRAL */
1691:.\Generated_Source\PSoC4/BLE_eventHandler.c ****             CyBle_SetState(CYBLE_STATE_CONNECTED);
 804              		.loc 1 1691 0
 805 0180 584B     		ldr	r3, .L62+16
 806 0182 0222     		mov	r2, #2
 807 0184 1A70     		strb	r2, [r3]
1692:.\Generated_Source\PSoC4/BLE_eventHandler.c ****             break;
 808              		.loc 1 1692 0
 809 0186 8AE0     		b	.L50
 810              	.L36:
1693:.\Generated_Source\PSoC4/BLE_eventHandler.c **** 
1694:.\Generated_Source\PSoC4/BLE_eventHandler.c ****         case CYBLE_EVT_GAP_DEVICE_DISCONNECTED:
1695:.\Generated_Source\PSoC4/BLE_eventHandler.c ****             CyBle_SetState(CYBLE_STATE_DISCONNECTED);
 811              		.loc 1 1695 0
ARM GAS  C:\Users\behrenb2\AppData\Local\Temp\ccNHrcVd.s 			page 45


 812 0188 564B     		ldr	r3, .L62+16
 813 018a 0422     		mov	r2, #4
 814 018c 1A70     		strb	r2, [r3]
1696:.\Generated_Source\PSoC4/BLE_eventHandler.c ****             break;
 815              		.loc 1 1696 0
 816 018e 86E0     		b	.L50
 817              	.L34:
1697:.\Generated_Source\PSoC4/BLE_eventHandler.c ****         #if(CYBLE_GAP_ROLE_PERIPHERAL || CYBLE_GAP_ROLE_BROADCASTER)
1698:.\Generated_Source\PSoC4/BLE_eventHandler.c ****             
1699:.\Generated_Source\PSoC4/BLE_eventHandler.c ****         case CYBLE_EVT_GAPP_ADVERTISEMENT_START_STOP:
1700:.\Generated_Source\PSoC4/BLE_eventHandler.c ****             #ifdef CYBLE_CPS_SERVER
1701:.\Generated_Source\PSoC4/BLE_eventHandler.c ****                 #if(CYBLE_GAP_ROLE_BROADCASTER)
1702:.\Generated_Source\PSoC4/BLE_eventHandler.c ****                     CyBle_CpssAdvertisementStartStopEventHandler();
1703:.\Generated_Source\PSoC4/BLE_eventHandler.c ****                 #endif /* CYBLE_GAP_ROLE_BROADCASTER */
1704:.\Generated_Source\PSoC4/BLE_eventHandler.c ****             #endif /* CYBLE_CPS_SERVER */
1705:.\Generated_Source\PSoC4/BLE_eventHandler.c ****             
1706:.\Generated_Source\PSoC4/BLE_eventHandler.c ****             if((CYBLE_STATE_CONNECTED != CyBle_GetState()) && ((cyBle_eventHandlerFlag & CYBLE_CALL
 818              		.loc 1 1706 0
 819 0190 544B     		ldr	r3, .L62+16
 820 0192 1B78     		ldrb	r3, [r3]
 821 0194 022B     		cmp	r3, #2
 822 0196 40D0     		beq	.L55
 823              		.loc 1 1706 0 is_stmt 0 discriminator 1
 824 0198 4E4B     		ldr	r3, .L62
 825 019a 1B78     		ldrb	r3, [r3]
 826 019c DBB2     		uxtb	r3, r3
 827 019e 1A1C     		mov	r2, r3
 828 01a0 0123     		mov	r3, #1
 829 01a2 1340     		and	r3, r2
 830 01a4 39D0     		beq	.L55
1707:.\Generated_Source\PSoC4/BLE_eventHandler.c ****             {
1708:.\Generated_Source\PSoC4/BLE_eventHandler.c ****                 /* After CyBle_GappStartAdvertisement first event indicates that advertising has be
1709:.\Generated_Source\PSoC4/BLE_eventHandler.c ****                 if(0u != (cyBle_eventHandlerFlag & CYBLE_START_FLAG))
 831              		.loc 1 1709 0 is_stmt 1
 832 01a6 4B4B     		ldr	r3, .L62
 833 01a8 1B78     		ldrb	r3, [r3]
 834 01aa DBB2     		uxtb	r3, r3
 835 01ac 1A1C     		mov	r2, r3
 836 01ae 0423     		mov	r3, #4
 837 01b0 1340     		and	r3, r2
 838 01b2 0BD0     		beq	.L56
1710:.\Generated_Source\PSoC4/BLE_eventHandler.c ****                 {
1711:.\Generated_Source\PSoC4/BLE_eventHandler.c ****                     CyBle_SetState(CYBLE_STATE_ADVERTISING);
 839              		.loc 1 1711 0
 840 01b4 4B4B     		ldr	r3, .L62+16
 841 01b6 0322     		mov	r2, #3
 842 01b8 1A70     		strb	r2, [r3]
1712:.\Generated_Source\PSoC4/BLE_eventHandler.c ****                     cyBle_eventHandlerFlag &= (uint8)~CYBLE_START_FLAG;
 843              		.loc 1 1712 0
 844 01ba 464B     		ldr	r3, .L62
 845 01bc 1B78     		ldrb	r3, [r3]
 846 01be DBB2     		uxtb	r3, r3
 847 01c0 0422     		mov	r2, #4
 848 01c2 9343     		bic	r3, r2
 849 01c4 DAB2     		uxtb	r2, r3
 850 01c6 434B     		ldr	r3, .L62
 851 01c8 1A70     		strb	r2, [r3]
ARM GAS  C:\Users\behrenb2\AppData\Local\Temp\ccNHrcVd.s 			page 46


 852 01ca 26E0     		b	.L55
 853              	.L56:
1713:.\Generated_Source\PSoC4/BLE_eventHandler.c ****                 }
1714:.\Generated_Source\PSoC4/BLE_eventHandler.c ****                 /* When application initiated stop advertisement */
1715:.\Generated_Source\PSoC4/BLE_eventHandler.c ****                 else if(0u != (cyBle_eventHandlerFlag & CYBLE_STOP_FLAG))
 854              		.loc 1 1715 0
 855 01cc 414B     		ldr	r3, .L62
 856 01ce 1B78     		ldrb	r3, [r3]
 857 01d0 DBB2     		uxtb	r3, r3
 858 01d2 1A1C     		mov	r2, r3
 859 01d4 0823     		mov	r3, #8
 860 01d6 1340     		and	r3, r2
 861 01d8 0BD0     		beq	.L57
1716:.\Generated_Source\PSoC4/BLE_eventHandler.c ****                 {
1717:.\Generated_Source\PSoC4/BLE_eventHandler.c ****                     CyBle_SetState(CYBLE_STATE_DISCONNECTED);  
 862              		.loc 1 1717 0
 863 01da 424B     		ldr	r3, .L62+16
 864 01dc 0422     		mov	r2, #4
 865 01de 1A70     		strb	r2, [r3]
1718:.\Generated_Source\PSoC4/BLE_eventHandler.c ****                     cyBle_eventHandlerFlag &= (uint8)~CYBLE_STOP_FLAG;
 866              		.loc 1 1718 0
 867 01e0 3C4B     		ldr	r3, .L62
 868 01e2 1B78     		ldrb	r3, [r3]
 869 01e4 DBB2     		uxtb	r3, r3
 870 01e6 0822     		mov	r2, #8
 871 01e8 9343     		bic	r3, r2
 872 01ea DAB2     		uxtb	r2, r3
 873 01ec 394B     		ldr	r3, .L62
 874 01ee 1A70     		strb	r2, [r3]
 875 01f0 13E0     		b	.L55
 876              	.L57:
1719:.\Generated_Source\PSoC4/BLE_eventHandler.c ****                 }
1720:.\Generated_Source\PSoC4/BLE_eventHandler.c ****                 else /* Following event indicates that advertising has been stopped */
1721:.\Generated_Source\PSoC4/BLE_eventHandler.c ****                 {
1722:.\Generated_Source\PSoC4/BLE_eventHandler.c ****                     if(CYBLE_STATE_ADVERTISING == CyBle_GetState())
 877              		.loc 1 1722 0
 878 01f2 3C4B     		ldr	r3, .L62+16
 879 01f4 1B78     		ldrb	r3, [r3]
 880 01f6 032B     		cmp	r3, #3
 881 01f8 0FD1     		bne	.L55
1723:.\Generated_Source\PSoC4/BLE_eventHandler.c ****                     {
1724:.\Generated_Source\PSoC4/BLE_eventHandler.c ****                         CyBle_SetState(CYBLE_STATE_DISCONNECTED);
 882              		.loc 1 1724 0
 883 01fa 3A4B     		ldr	r3, .L62+16
 884 01fc 0422     		mov	r2, #4
 885 01fe 1A70     		strb	r2, [r3]
1725:.\Generated_Source\PSoC4/BLE_eventHandler.c ****                     #if ((CYBLE_SLOW_ADV_ENABLED != 0u) && (CYBLE_FAST_ADV_TIMEOUT != 0u))
1726:.\Generated_Source\PSoC4/BLE_eventHandler.c ****                         if(cyBle_advertisingIntervalType == CYBLE_ADVERTISING_FAST)
 886              		.loc 1 1726 0
 887 0200 3E4B     		ldr	r3, .L62+40
 888 0202 1B78     		ldrb	r3, [r3]
 889 0204 002B     		cmp	r3, #0
 890 0206 08D1     		bne	.L55
1727:.\Generated_Source\PSoC4/BLE_eventHandler.c ****                         {
1728:.\Generated_Source\PSoC4/BLE_eventHandler.c ****                             /* When fast advertising time out occur: Start slow advertising */
1729:.\Generated_Source\PSoC4/BLE_eventHandler.c ****                             if(CYBLE_ERROR_OK == CyBle_GappStartAdvertisement(CYBLE_ADVERTISING_SLO
 891              		.loc 1 1729 0
ARM GAS  C:\Users\behrenb2\AppData\Local\Temp\ccNHrcVd.s 			page 47


 892 0208 0120     		mov	r0, #1
 893 020a FFF7FEFF 		bl	CyBle_GappStartAdvertisement
 894 020e 031E     		sub	r3, r0, #0
 895 0210 03D1     		bne	.L55
1730:.\Generated_Source\PSoC4/BLE_eventHandler.c ****                             {
1731:.\Generated_Source\PSoC4/BLE_eventHandler.c ****                                 CyBle_SetState(CYBLE_STATE_ADVERTISING);
 896              		.loc 1 1731 0
 897 0212 344B     		ldr	r3, .L62+16
 898 0214 0322     		mov	r2, #3
 899 0216 1A70     		strb	r2, [r3]
1732:.\Generated_Source\PSoC4/BLE_eventHandler.c ****                             }
1733:.\Generated_Source\PSoC4/BLE_eventHandler.c ****                         }
1734:.\Generated_Source\PSoC4/BLE_eventHandler.c ****                     #endif /* CYBLE_SLOW_ADV_ENABLED */
1735:.\Generated_Source\PSoC4/BLE_eventHandler.c ****                     }
1736:.\Generated_Source\PSoC4/BLE_eventHandler.c ****                 }
1737:.\Generated_Source\PSoC4/BLE_eventHandler.c ****             }
1738:.\Generated_Source\PSoC4/BLE_eventHandler.c ****             break;
 900              		.loc 1 1738 0
 901 0218 41E0     		b	.L50
 902              	.L55:
 903 021a 40E0     		b	.L50
 904              	.L47:
1739:.\Generated_Source\PSoC4/BLE_eventHandler.c ****         #endif /* CYBLE_GAP_ROLE_PERIPHERAL || CYBLE_GAP_ROLE_BROADCASTER */
1740:.\Generated_Source\PSoC4/BLE_eventHandler.c ****         
1741:.\Generated_Source\PSoC4/BLE_eventHandler.c ****         #if(CYBLE_GAP_ROLE_CENTRAL || CYBLE_GAP_ROLE_OBSERVER)    
1742:.\Generated_Source\PSoC4/BLE_eventHandler.c ****         case CYBLE_EVT_GAPC_SCAN_START_STOP:
1743:.\Generated_Source\PSoC4/BLE_eventHandler.c ****             #ifdef CYBLE_CPS_CLIENT
1744:.\Generated_Source\PSoC4/BLE_eventHandler.c ****                 CyBle_CpscScanStartStopEventHandler();
1745:.\Generated_Source\PSoC4/BLE_eventHandler.c ****             #endif /* CYBLE_CPS_CLIENT */
1746:.\Generated_Source\PSoC4/BLE_eventHandler.c ****             
1747:.\Generated_Source\PSoC4/BLE_eventHandler.c ****             if((CYBLE_STATE_CONNECTED != CyBle_GetState()) && ((cyBle_eventHandlerFlag & CYBLE_CALL
1748:.\Generated_Source\PSoC4/BLE_eventHandler.c ****             {
1749:.\Generated_Source\PSoC4/BLE_eventHandler.c ****                 /* After CyBle_GapcStartScan first event indicates that scanning has been started *
1750:.\Generated_Source\PSoC4/BLE_eventHandler.c ****                 if(0u != (cyBle_eventHandlerFlag & CYBLE_START_FLAG))
1751:.\Generated_Source\PSoC4/BLE_eventHandler.c ****                 {
1752:.\Generated_Source\PSoC4/BLE_eventHandler.c ****                     CyBle_SetState(CYBLE_STATE_SCANNING);
1753:.\Generated_Source\PSoC4/BLE_eventHandler.c ****                     cyBle_eventHandlerFlag &= (uint8)~CYBLE_START_FLAG;
1754:.\Generated_Source\PSoC4/BLE_eventHandler.c ****                 }
1755:.\Generated_Source\PSoC4/BLE_eventHandler.c ****                 /* When application initiated stop scanning */
1756:.\Generated_Source\PSoC4/BLE_eventHandler.c ****                 else if(0u != (cyBle_eventHandlerFlag & CYBLE_STOP_FLAG))
1757:.\Generated_Source\PSoC4/BLE_eventHandler.c ****                 {
1758:.\Generated_Source\PSoC4/BLE_eventHandler.c ****                     CyBle_SetState(CYBLE_STATE_DISCONNECTED);  
1759:.\Generated_Source\PSoC4/BLE_eventHandler.c ****                     cyBle_eventHandlerFlag &= (uint8)~CYBLE_STOP_FLAG;
1760:.\Generated_Source\PSoC4/BLE_eventHandler.c ****                 }
1761:.\Generated_Source\PSoC4/BLE_eventHandler.c ****                 else /* Following event indicates that scanning has been stopped by stack */
1762:.\Generated_Source\PSoC4/BLE_eventHandler.c ****                 {
1763:.\Generated_Source\PSoC4/BLE_eventHandler.c ****                     if(CYBLE_STATE_SCANNING == CyBle_GetState())
1764:.\Generated_Source\PSoC4/BLE_eventHandler.c ****                     {
1765:.\Generated_Source\PSoC4/BLE_eventHandler.c ****                         CyBle_SetState(CYBLE_STATE_DISCONNECTED);  
1766:.\Generated_Source\PSoC4/BLE_eventHandler.c ****                     #if ((CYBLE_SLOW_SCAN_ENABLED != 0u) && (CYBLE_FAST_SCAN_TIMEOUT != 0u))
1767:.\Generated_Source\PSoC4/BLE_eventHandler.c ****                         if(cyBle_scanningIntervalType == CYBLE_SCANNING_FAST)
1768:.\Generated_Source\PSoC4/BLE_eventHandler.c ****                         {
1769:.\Generated_Source\PSoC4/BLE_eventHandler.c ****                             /* When fast scanning time out occur: Start slow scanning */
1770:.\Generated_Source\PSoC4/BLE_eventHandler.c ****                             if(CYBLE_ERROR_OK == CyBle_GapcStartScan(CYBLE_SCANNING_SLOW))
1771:.\Generated_Source\PSoC4/BLE_eventHandler.c ****                             {
1772:.\Generated_Source\PSoC4/BLE_eventHandler.c ****                                 CyBle_SetState(CYBLE_STATE_SCANNING);
1773:.\Generated_Source\PSoC4/BLE_eventHandler.c ****                             }
ARM GAS  C:\Users\behrenb2\AppData\Local\Temp\ccNHrcVd.s 			page 48


1774:.\Generated_Source\PSoC4/BLE_eventHandler.c ****                         }
1775:.\Generated_Source\PSoC4/BLE_eventHandler.c ****                     #endif /* CYBLE_SLOW_SCAN_ENABLED */
1776:.\Generated_Source\PSoC4/BLE_eventHandler.c ****                     }
1777:.\Generated_Source\PSoC4/BLE_eventHandler.c ****                 }
1778:.\Generated_Source\PSoC4/BLE_eventHandler.c ****             }
1779:.\Generated_Source\PSoC4/BLE_eventHandler.c ****             break;
1780:.\Generated_Source\PSoC4/BLE_eventHandler.c ****         #endif /* CYBLE_GAP_ROLE_CENTRAL || CYBLE_GAP_ROLE_OBSERVER */
1781:.\Generated_Source\PSoC4/BLE_eventHandler.c **** 
1782:.\Generated_Source\PSoC4/BLE_eventHandler.c ****         /**********************************************************
1783:.\Generated_Source\PSoC4/BLE_eventHandler.c ****         * L2AP events 
1784:.\Generated_Source\PSoC4/BLE_eventHandler.c ****         ************************************************************/
1785:.\Generated_Source\PSoC4/BLE_eventHandler.c ****         case CYBLE_EVT_L2CAP_CONN_PARAM_UPDATE_RSP:
1786:.\Generated_Source\PSoC4/BLE_eventHandler.c ****             CyBle_L2Cap_ConnParamUpdateRspEventHandler(*(uint16 *)eventParam);
 905              		.loc 1 1786 0
 906 021c 3B68     		ldr	r3, [r7]
 907 021e 1B88     		ldrh	r3, [r3]
 908 0220 181C     		mov	r0, r3
 909 0222 FFF7FEFF 		bl	CyBle_L2Cap_ConnParamUpdateRspEventHandler
1787:.\Generated_Source\PSoC4/BLE_eventHandler.c ****             break;
 910              		.loc 1 1787 0
 911 0226 3AE0     		b	.L50
 912              	.L38:
1788:.\Generated_Source\PSoC4/BLE_eventHandler.c ****         
1789:.\Generated_Source\PSoC4/BLE_eventHandler.c ****         /**********************************************************
1790:.\Generated_Source\PSoC4/BLE_eventHandler.c ****         * GATT events
1791:.\Generated_Source\PSoC4/BLE_eventHandler.c ****         ************************************************************/        
1792:.\Generated_Source\PSoC4/BLE_eventHandler.c ****         case CYBLE_EVT_GATT_CONNECT_IND:
1793:.\Generated_Source\PSoC4/BLE_eventHandler.c ****             cyBle_connHandle = *(CYBLE_CONN_HANDLE_T *)eventParam;
 913              		.loc 1 1793 0
 914 0228 334A     		ldr	r2, .L62+36
 915 022a 3B68     		ldr	r3, [r7]
 916 022c 111C     		mov	r1, r2
 917 022e 1A1C     		mov	r2, r3
 918 0230 0223     		mov	r3, #2
 919 0232 081C     		mov	r0, r1
 920 0234 111C     		mov	r1, r2
 921 0236 1A1C     		mov	r2, r3
 922 0238 FFF7FEFF 		bl	memcpy
1794:.\Generated_Source\PSoC4/BLE_eventHandler.c ****             cyBle_busyStatus = CYBLE_STACK_STATE_FREE;
 923              		.loc 1 1794 0
 924 023c 2A4B     		ldr	r3, .L62+20
 925 023e 0022     		mov	r2, #0
 926 0240 1A70     		strb	r2, [r3]
1795:.\Generated_Source\PSoC4/BLE_eventHandler.c ****             
1796:.\Generated_Source\PSoC4/BLE_eventHandler.c ****         #if((CYBLE_GATT_ROLE_SERVER) && (CYBLE_GATT_DB_CCCD_COUNT != 0u) && \
1797:.\Generated_Source\PSoC4/BLE_eventHandler.c ****             (CYBLE_BONDING_REQUIREMENT == CYBLE_BONDING_YES))
1798:.\Generated_Source\PSoC4/BLE_eventHandler.c ****             /* Init CCCD values in RAM when bonding is enabled */
1799:.\Generated_Source\PSoC4/BLE_eventHandler.c ****         	(void) memcpy (cyBle_attValuesCCCD, cyBle_flashStorage.attValuesCCCDFlashMemory[cyBle_conn
1800:.\Generated_Source\PSoC4/BLE_eventHandler.c ****                             CYBLE_GATT_DB_CCCD_COUNT);
1801:.\Generated_Source\PSoC4/BLE_eventHandler.c ****         #endif /* CYBLE_GATT_ROLE_SERVER && (CYBLE_BONDING_REQUIREMENT == CYBLE_BONDING_YES) */
1802:.\Generated_Source\PSoC4/BLE_eventHandler.c ****         
1803:.\Generated_Source\PSoC4/BLE_eventHandler.c ****         #if (CYBLE_GATT_ROLE_CLIENT)
1804:.\Generated_Source\PSoC4/BLE_eventHandler.c ****             CyBle_SetClientState(CYBLE_CLIENT_STATE_CONNECTED);
1805:.\Generated_Source\PSoC4/BLE_eventHandler.c ****         #endif /* CYBLE_GATT_ROLE_CLIENT */
1806:.\Generated_Source\PSoC4/BLE_eventHandler.c ****         
1807:.\Generated_Source\PSoC4/BLE_eventHandler.c ****             CyBle_GattConnectReqHandler();
 927              		.loc 1 1807 0
ARM GAS  C:\Users\behrenb2\AppData\Local\Temp\ccNHrcVd.s 			page 49


 928 0242 FFF7FEFF 		bl	CyBle_GattConnectReqHandler
1808:.\Generated_Source\PSoC4/BLE_eventHandler.c ****             break;
 929              		.loc 1 1808 0
 930 0246 2AE0     		b	.L50
 931              	.L39:
1809:.\Generated_Source\PSoC4/BLE_eventHandler.c **** 
1810:.\Generated_Source\PSoC4/BLE_eventHandler.c ****         case CYBLE_EVT_GATT_DISCONNECT_IND:
1811:.\Generated_Source\PSoC4/BLE_eventHandler.c ****             CyBle_GattDisconnectEventHandler();
 932              		.loc 1 1811 0
 933 0248 FFF7FEFF 		bl	CyBle_GattDisconnectEventHandler
1812:.\Generated_Source\PSoC4/BLE_eventHandler.c ****             break;
 934              		.loc 1 1812 0
 935 024c 27E0     		b	.L50
 936              	.L40:
 937              	.LBB7:
1813:.\Generated_Source\PSoC4/BLE_eventHandler.c **** 
1814:.\Generated_Source\PSoC4/BLE_eventHandler.c ****     #if((CYBLE_GATT_ROLE_SERVER) || (CYBLE_GATT_ROLE_CLIENT))
1815:.\Generated_Source\PSoC4/BLE_eventHandler.c ****         case CYBLE_EVT_GATTS_XCNHG_MTU_REQ:
1816:.\Generated_Source\PSoC4/BLE_eventHandler.c ****             {
1817:.\Generated_Source\PSoC4/BLE_eventHandler.c ****                 uint16 cyBle_mtuSize;
1818:.\Generated_Source\PSoC4/BLE_eventHandler.c ****                 if(CYBLE_GATT_MTU > ((CYBLE_GATT_XCHG_MTU_PARAM_T *)eventParam)->mtu)
 938              		.loc 1 1818 0
 939 024e 3B68     		ldr	r3, [r7]
 940 0250 5B88     		ldrh	r3, [r3, #2]
 941 0252 162B     		cmp	r3, #22
 942 0254 05D8     		bhi	.L58
1819:.\Generated_Source\PSoC4/BLE_eventHandler.c ****                 {
1820:.\Generated_Source\PSoC4/BLE_eventHandler.c ****                     cyBle_mtuSize = ((CYBLE_GATT_XCHG_MTU_PARAM_T *)eventParam)->mtu;
 943              		.loc 1 1820 0
 944 0256 1623     		mov	r3, #22
 945 0258 FB18     		add	r3, r7, r3
 946 025a 3A68     		ldr	r2, [r7]
 947 025c 5288     		ldrh	r2, [r2, #2]
 948 025e 1A80     		strh	r2, [r3]
 949 0260 03E0     		b	.L59
 950              	.L58:
1821:.\Generated_Source\PSoC4/BLE_eventHandler.c ****                 }
1822:.\Generated_Source\PSoC4/BLE_eventHandler.c ****                 else
1823:.\Generated_Source\PSoC4/BLE_eventHandler.c ****                 {
1824:.\Generated_Source\PSoC4/BLE_eventHandler.c ****                     cyBle_mtuSize = CYBLE_GATT_MTU;
 951              		.loc 1 1824 0
 952 0262 1623     		mov	r3, #22
 953 0264 FB18     		add	r3, r7, r3
 954 0266 1722     		mov	r2, #23
 955 0268 1A80     		strh	r2, [r3]
 956              	.L59:
1825:.\Generated_Source\PSoC4/BLE_eventHandler.c ****                 }
1826:.\Generated_Source\PSoC4/BLE_eventHandler.c ****                 (void)CyBle_GattsExchangeMtuRsp(((CYBLE_GATT_XCHG_MTU_PARAM_T *)eventParam)->connHa
 957              		.loc 1 1826 0
 958 026a 3B68     		ldr	r3, [r7]
 959 026c 1622     		mov	r2, #22
 960 026e BA18     		add	r2, r7, r2
 961 0270 1188     		ldrh	r1, [r2]
 962 0272 1A88     		ldrh	r2, [r3]
 963 0274 0023     		mov	r3, #0
 964 0276 1204     		lsl	r2, r2, #16
 965 0278 120C     		lsr	r2, r2, #16
ARM GAS  C:\Users\behrenb2\AppData\Local\Temp\ccNHrcVd.s 			page 50


 966 027a 1B0C     		lsr	r3, r3, #16
 967 027c 1B04     		lsl	r3, r3, #16
 968 027e 1343     		orr	r3, r2
 969 0280 181C     		mov	r0, r3
 970 0282 FFF7FEFF 		bl	CyBle_GattsExchangeMtuRsp
 971              	.LBE7:
1827:.\Generated_Source\PSoC4/BLE_eventHandler.c ****             }
1828:.\Generated_Source\PSoC4/BLE_eventHandler.c ****             break;
 972              		.loc 1 1828 0
 973 0286 0AE0     		b	.L50
 974              	.L41:
1829:.\Generated_Source\PSoC4/BLE_eventHandler.c ****     #endif /* CYBLE_GATT_ROLE_SERVER || CYBLE_GATT_ROLE_CLIENT */
1830:.\Generated_Source\PSoC4/BLE_eventHandler.c ****     
1831:.\Generated_Source\PSoC4/BLE_eventHandler.c ****     #if (CYBLE_GATT_ROLE_CLIENT)
1832:.\Generated_Source\PSoC4/BLE_eventHandler.c ****         case CYBLE_EVT_GAPC_SCAN_PROGRESS_RESULT:
1833:.\Generated_Source\PSoC4/BLE_eventHandler.c ****         #ifdef CYBLE_CPS_CLIENT
1834:.\Generated_Source\PSoC4/BLE_eventHandler.c ****             CyBle_CpscScanProcessEventHandler((CYBLE_GAPC_ADV_REPORT_T *)eventParam);
1835:.\Generated_Source\PSoC4/BLE_eventHandler.c ****         #endif /* CYBLE_CPS_CLIENT */
1836:.\Generated_Source\PSoC4/BLE_eventHandler.c ****             break;
1837:.\Generated_Source\PSoC4/BLE_eventHandler.c ****     #endif /* CYBLE_GATT_ROLE_CLIENT */
1838:.\Generated_Source\PSoC4/BLE_eventHandler.c **** 
1839:.\Generated_Source\PSoC4/BLE_eventHandler.c ****     #if(CYBLE_GATT_ROLE_SERVER)
1840:.\Generated_Source\PSoC4/BLE_eventHandler.c ****         case CYBLE_EVT_GATTS_WRITE_REQ:
1841:.\Generated_Source\PSoC4/BLE_eventHandler.c ****             CyBle_WriteReqHandler((CYBLE_GATTS_WRITE_REQ_PARAM_T *)eventParam);
 975              		.loc 1 1841 0
 976 0288 3B68     		ldr	r3, [r7]
 977 028a 181C     		mov	r0, r3
 978 028c FFF7FEFF 		bl	CyBle_WriteReqHandler
1842:.\Generated_Source\PSoC4/BLE_eventHandler.c ****             break;
 979              		.loc 1 1842 0
 980 0290 05E0     		b	.L50
 981              	.L45:
1843:.\Generated_Source\PSoC4/BLE_eventHandler.c **** 
1844:.\Generated_Source\PSoC4/BLE_eventHandler.c ****         case CYBLE_EVT_GATTS_WRITE_CMD_REQ:
1845:.\Generated_Source\PSoC4/BLE_eventHandler.c ****         #ifdef CYBLE_IAS_SERVER
1846:.\Generated_Source\PSoC4/BLE_eventHandler.c ****             if((cyBle_eventHandlerFlag & CYBLE_CALLBACK) != 0u)
1847:.\Generated_Source\PSoC4/BLE_eventHandler.c ****             {
1848:.\Generated_Source\PSoC4/BLE_eventHandler.c ****                 (void)CyBle_IassWriteCmdEventHandler((CYBLE_GATTS_WRITE_REQ_PARAM_T *)eventParam);
1849:.\Generated_Source\PSoC4/BLE_eventHandler.c ****             }
1850:.\Generated_Source\PSoC4/BLE_eventHandler.c ****         #endif /* CYBLE_IAS_SERVER */
1851:.\Generated_Source\PSoC4/BLE_eventHandler.c ****         #ifdef CYBLE_IPS_SERVER
1852:.\Generated_Source\PSoC4/BLE_eventHandler.c ****             if((cyBle_eventHandlerFlag & CYBLE_CALLBACK) != 0u)
1853:.\Generated_Source\PSoC4/BLE_eventHandler.c ****             {
1854:.\Generated_Source\PSoC4/BLE_eventHandler.c ****                 (void)CyBle_IpssWriteCmdEventHandler((CYBLE_GATTS_WRITE_REQ_PARAM_T *)eventParam);
1855:.\Generated_Source\PSoC4/BLE_eventHandler.c ****             }
1856:.\Generated_Source\PSoC4/BLE_eventHandler.c ****         #endif /* CYBLE_IPS_SERVER */
1857:.\Generated_Source\PSoC4/BLE_eventHandler.c ****         #ifdef CYBLE_HIDS_SERVER
1858:.\Generated_Source\PSoC4/BLE_eventHandler.c ****             if((cyBle_eventHandlerFlag & CYBLE_CALLBACK) != 0u)
1859:.\Generated_Source\PSoC4/BLE_eventHandler.c ****             {
1860:.\Generated_Source\PSoC4/BLE_eventHandler.c ****                 (void)CyBle_HidssWriteEventHandler((CYBLE_GATTS_WRITE_REQ_PARAM_T *)eventParam);
1861:.\Generated_Source\PSoC4/BLE_eventHandler.c ****             }
1862:.\Generated_Source\PSoC4/BLE_eventHandler.c ****         #endif /* CYBLE_HIDS_SERVER */
1863:.\Generated_Source\PSoC4/BLE_eventHandler.c ****         #ifdef CYBLE_PASS_SERVER
1864:.\Generated_Source\PSoC4/BLE_eventHandler.c ****             if((cyBle_eventHandlerFlag & CYBLE_CALLBACK) != 0u)
1865:.\Generated_Source\PSoC4/BLE_eventHandler.c ****             {
1866:.\Generated_Source\PSoC4/BLE_eventHandler.c ****                 (void)CyBle_PasssWriteCmdEventHandler((CYBLE_GATTS_WRITE_REQ_PARAM_T *)eventParam);
1867:.\Generated_Source\PSoC4/BLE_eventHandler.c ****             }
ARM GAS  C:\Users\behrenb2\AppData\Local\Temp\ccNHrcVd.s 			page 51


1868:.\Generated_Source\PSoC4/BLE_eventHandler.c ****         #endif /* CYBLE_PASS_SERVER */
1869:.\Generated_Source\PSoC4/BLE_eventHandler.c ****         #ifdef CYBLE_RTUS_SERVER
1870:.\Generated_Source\PSoC4/BLE_eventHandler.c ****             if((cyBle_eventHandlerFlag & CYBLE_CALLBACK) != 0u)
1871:.\Generated_Source\PSoC4/BLE_eventHandler.c ****             {
1872:.\Generated_Source\PSoC4/BLE_eventHandler.c ****                 (void)CyBle_RtussWriteCmdEventHandler((CYBLE_GATTS_WRITE_REQ_PARAM_T *)eventParam);
1873:.\Generated_Source\PSoC4/BLE_eventHandler.c ****             }
1874:.\Generated_Source\PSoC4/BLE_eventHandler.c ****         #endif /* CYBLE_RTUS_SERVER */
1875:.\Generated_Source\PSoC4/BLE_eventHandler.c ****         #ifdef CYBLE_SCPS_SERVER
1876:.\Generated_Source\PSoC4/BLE_eventHandler.c ****             if((cyBle_eventHandlerFlag & CYBLE_CALLBACK) != 0u)
1877:.\Generated_Source\PSoC4/BLE_eventHandler.c ****             {
1878:.\Generated_Source\PSoC4/BLE_eventHandler.c ****                 (void)CyBle_ScpssWriteEventHandler((CYBLE_GATTS_WRITE_REQ_PARAM_T *)eventParam);
1879:.\Generated_Source\PSoC4/BLE_eventHandler.c ****             }
1880:.\Generated_Source\PSoC4/BLE_eventHandler.c ****         #endif /* CYBLE_SCPS_SERVER */
1881:.\Generated_Source\PSoC4/BLE_eventHandler.c ****             break;
1882:.\Generated_Source\PSoC4/BLE_eventHandler.c ****         
1883:.\Generated_Source\PSoC4/BLE_eventHandler.c ****         case CYBLE_EVT_GATTS_PREP_WRITE_REQ:
1884:.\Generated_Source\PSoC4/BLE_eventHandler.c ****         #ifdef CYBLE_BMS_SERVER
1885:.\Generated_Source\PSoC4/BLE_eventHandler.c ****             CyBle_BmssPrepareWriteRequestEventHandler((CYBLE_GATTS_PREP_WRITE_REQ_PARAM_T *)eventPa
1886:.\Generated_Source\PSoC4/BLE_eventHandler.c ****         #endif /* CYBLE_BMS_SERVER */
1887:.\Generated_Source\PSoC4/BLE_eventHandler.c ****         #ifdef CYBLE_BTS_SERVER
1888:.\Generated_Source\PSoC4/BLE_eventHandler.c ****             if((cyBle_eventHandlerFlag & CYBLE_CALLBACK) != 0u)
1889:.\Generated_Source\PSoC4/BLE_eventHandler.c ****             {
1890:.\Generated_Source\PSoC4/BLE_eventHandler.c ****                 CyBle_BtssPrepareWriteRequestEventHandler((CYBLE_GATTS_PREP_WRITE_REQ_PARAM_T *)eve
1891:.\Generated_Source\PSoC4/BLE_eventHandler.c ****             }
1892:.\Generated_Source\PSoC4/BLE_eventHandler.c ****         #endif /* CYBLE_BTS_SERVER */
1893:.\Generated_Source\PSoC4/BLE_eventHandler.c ****         #ifdef CYBLE_ESS_SERVER
1894:.\Generated_Source\PSoC4/BLE_eventHandler.c ****             if((cyBle_eventHandlerFlag & CYBLE_CALLBACK) != 0u)
1895:.\Generated_Source\PSoC4/BLE_eventHandler.c ****             {
1896:.\Generated_Source\PSoC4/BLE_eventHandler.c ****                 CyBle_EsssPrepareWriteRequestEventHandler((CYBLE_GATTS_PREP_WRITE_REQ_PARAM_T *)eve
1897:.\Generated_Source\PSoC4/BLE_eventHandler.c ****             }
1898:.\Generated_Source\PSoC4/BLE_eventHandler.c ****         #endif /* CYBLE_ESS_SERVER */
1899:.\Generated_Source\PSoC4/BLE_eventHandler.c ****         #ifdef CYBLE_HPS_SERVER
1900:.\Generated_Source\PSoC4/BLE_eventHandler.c ****             if((cyBle_eventHandlerFlag & CYBLE_CALLBACK) != 0u)
1901:.\Generated_Source\PSoC4/BLE_eventHandler.c ****             {
1902:.\Generated_Source\PSoC4/BLE_eventHandler.c ****                 CyBle_HpssPrepareWriteRequestEventHandler((CYBLE_GATTS_PREP_WRITE_REQ_PARAM_T *)eve
1903:.\Generated_Source\PSoC4/BLE_eventHandler.c ****             }
1904:.\Generated_Source\PSoC4/BLE_eventHandler.c ****         #endif /* CYBLE_HPS_SERVER */
1905:.\Generated_Source\PSoC4/BLE_eventHandler.c ****         #ifdef CYBLE_IPS_SERVER
1906:.\Generated_Source\PSoC4/BLE_eventHandler.c ****             if((cyBle_eventHandlerFlag & CYBLE_CALLBACK) != 0u)
1907:.\Generated_Source\PSoC4/BLE_eventHandler.c ****             {
1908:.\Generated_Source\PSoC4/BLE_eventHandler.c ****                 CyBle_IpssPrepareWriteRequestEventHandler((CYBLE_GATTS_PREP_WRITE_REQ_PARAM_T *)eve
1909:.\Generated_Source\PSoC4/BLE_eventHandler.c ****             }
1910:.\Generated_Source\PSoC4/BLE_eventHandler.c ****         #endif /* CYBLE_IPS_SERVER */
1911:.\Generated_Source\PSoC4/BLE_eventHandler.c ****         #ifdef CYBLE_UDS_SERVER
1912:.\Generated_Source\PSoC4/BLE_eventHandler.c ****             if((cyBle_eventHandlerFlag & CYBLE_CALLBACK) != 0u)
1913:.\Generated_Source\PSoC4/BLE_eventHandler.c ****             {
1914:.\Generated_Source\PSoC4/BLE_eventHandler.c ****                 CyBle_UdssPrepareWriteRequestEventHandler((CYBLE_GATTS_PREP_WRITE_REQ_PARAM_T *)eve
1915:.\Generated_Source\PSoC4/BLE_eventHandler.c ****             }
1916:.\Generated_Source\PSoC4/BLE_eventHandler.c ****         #endif /* CYBLE_UDS_SERVER */
1917:.\Generated_Source\PSoC4/BLE_eventHandler.c ****             break;
1918:.\Generated_Source\PSoC4/BLE_eventHandler.c **** 
1919:.\Generated_Source\PSoC4/BLE_eventHandler.c ****         case CYBLE_EVT_GATTS_EXEC_WRITE_REQ:
1920:.\Generated_Source\PSoC4/BLE_eventHandler.c ****         #ifdef CYBLE_BMS_SERVER
1921:.\Generated_Source\PSoC4/BLE_eventHandler.c ****             CyBle_BmssExecuteWriteRequestEventHandler((CYBLE_GATTS_EXEC_WRITE_REQ_T *)eventParam);
1922:.\Generated_Source\PSoC4/BLE_eventHandler.c ****         #endif /* CYBLE_BMS_SERVER */
1923:.\Generated_Source\PSoC4/BLE_eventHandler.c ****         #ifdef CYBLE_BTS_SERVER
1924:.\Generated_Source\PSoC4/BLE_eventHandler.c ****             CyBle_BtssExecuteWriteRequestEventHandler((CYBLE_GATTS_EXEC_WRITE_REQ_T *)eventParam);
ARM GAS  C:\Users\behrenb2\AppData\Local\Temp\ccNHrcVd.s 			page 52


1925:.\Generated_Source\PSoC4/BLE_eventHandler.c ****         #endif /* CYBLE_BTS_SERVER */
1926:.\Generated_Source\PSoC4/BLE_eventHandler.c ****         #ifdef CYBLE_ESS_SERVER
1927:.\Generated_Source\PSoC4/BLE_eventHandler.c ****             CyBle_EsssExecuteWriteRequestEventHandler((CYBLE_GATTS_EXEC_WRITE_REQ_T *)eventParam);
1928:.\Generated_Source\PSoC4/BLE_eventHandler.c ****         #endif /* CYBLE_ESS_SERVER */
1929:.\Generated_Source\PSoC4/BLE_eventHandler.c ****         #ifdef CYBLE_HPS_SERVER
1930:.\Generated_Source\PSoC4/BLE_eventHandler.c ****             CyBle_HpssExecuteWriteRequestEventHandler((CYBLE_GATTS_EXEC_WRITE_REQ_T *)eventParam);
1931:.\Generated_Source\PSoC4/BLE_eventHandler.c ****         #endif /* CYBLE_HPS_SERVER */
1932:.\Generated_Source\PSoC4/BLE_eventHandler.c ****         #ifdef CYBLE_IPS_SERVER
1933:.\Generated_Source\PSoC4/BLE_eventHandler.c ****             CyBle_IpssExecuteWriteRequestEventHandler((CYBLE_GATTS_EXEC_WRITE_REQ_T *)eventParam);
1934:.\Generated_Source\PSoC4/BLE_eventHandler.c ****         #endif /* CYBLE_IPS_SERVER */
1935:.\Generated_Source\PSoC4/BLE_eventHandler.c **** 		#ifdef CYBLE_UDS_SERVER
1936:.\Generated_Source\PSoC4/BLE_eventHandler.c ****             CyBle_UdssExecuteWriteRequestEventHandler((CYBLE_GATTS_EXEC_WRITE_REQ_T *)eventParam);
1937:.\Generated_Source\PSoC4/BLE_eventHandler.c ****         #endif /* CYBLE_UDS_SERVER */
1938:.\Generated_Source\PSoC4/BLE_eventHandler.c ****             break;
1939:.\Generated_Source\PSoC4/BLE_eventHandler.c ****         
1940:.\Generated_Source\PSoC4/BLE_eventHandler.c ****         case CYBLE_EVT_GATTS_HANDLE_VALUE_CNF:
1941:.\Generated_Source\PSoC4/BLE_eventHandler.c ****             CyBle_ValueConfirmation((CYBLE_CONN_HANDLE_T *)eventParam);
 982              		.loc 1 1941 0
 983 0292 3B68     		ldr	r3, [r7]
 984 0294 181C     		mov	r0, r3
 985 0296 FFF7FEFF 		bl	CyBle_ValueConfirmation
1942:.\Generated_Source\PSoC4/BLE_eventHandler.c ****             break;
 986              		.loc 1 1942 0
 987 029a 00E0     		b	.L50
 988              	.L61:
1943:.\Generated_Source\PSoC4/BLE_eventHandler.c ****             
1944:.\Generated_Source\PSoC4/BLE_eventHandler.c ****         case CYBLE_EVT_GATTS_READ_CHAR_VAL_ACCESS_REQ:
1945:.\Generated_Source\PSoC4/BLE_eventHandler.c ****         #ifdef CYBLE_UDS_SERVER
1946:.\Generated_Source\PSoC4/BLE_eventHandler.c ****             CyBle_UdssReadRequestEventHandler((CYBLE_GATTS_CHAR_VAL_READ_REQ_T *)eventParam);
1947:.\Generated_Source\PSoC4/BLE_eventHandler.c ****         #endif /* CYBLE_UDS_SERVER */
1948:.\Generated_Source\PSoC4/BLE_eventHandler.c ****             break;
1949:.\Generated_Source\PSoC4/BLE_eventHandler.c ****             
1950:.\Generated_Source\PSoC4/BLE_eventHandler.c ****     #endif /* CYBLE_GATT_ROLE_SERVER */
1951:.\Generated_Source\PSoC4/BLE_eventHandler.c **** 
1952:.\Generated_Source\PSoC4/BLE_eventHandler.c ****     #if (CYBLE_GATT_ROLE_CLIENT)
1953:.\Generated_Source\PSoC4/BLE_eventHandler.c ****         
1954:.\Generated_Source\PSoC4/BLE_eventHandler.c ****         case CYBLE_EVT_GATTC_READ_BY_GROUP_TYPE_RSP:
1955:.\Generated_Source\PSoC4/BLE_eventHandler.c ****             CyBle_ReadByGroupEventHandler((CYBLE_GATTC_READ_BY_GRP_RSP_PARAM_T *)eventParam);
1956:.\Generated_Source\PSoC4/BLE_eventHandler.c ****             break;
1957:.\Generated_Source\PSoC4/BLE_eventHandler.c **** 
1958:.\Generated_Source\PSoC4/BLE_eventHandler.c ****         case CYBLE_EVT_GATTC_READ_BY_TYPE_RSP:
1959:.\Generated_Source\PSoC4/BLE_eventHandler.c ****             CyBle_ReadByTypeEventHandler((CYBLE_GATTC_READ_BY_TYPE_RSP_PARAM_T *)eventParam);
1960:.\Generated_Source\PSoC4/BLE_eventHandler.c ****             break;
1961:.\Generated_Source\PSoC4/BLE_eventHandler.c **** 
1962:.\Generated_Source\PSoC4/BLE_eventHandler.c ****         case CYBLE_EVT_GATTC_READ_BLOB_RSP:
1963:.\Generated_Source\PSoC4/BLE_eventHandler.c ****         #ifdef CYBLE_ESS_CLIENT
1964:.\Generated_Source\PSoC4/BLE_eventHandler.c ****             CyBle_EsscReadLongRespEventHandler((CYBLE_GATTC_READ_RSP_PARAM_T *)eventParam);
1965:.\Generated_Source\PSoC4/BLE_eventHandler.c ****         #endif /* CYBLE_ESS_CLIENT */
1966:.\Generated_Source\PSoC4/BLE_eventHandler.c ****         #ifdef CYBLE_HPS_CLIENT
1967:.\Generated_Source\PSoC4/BLE_eventHandler.c ****             CyBle_HpscReadLongRespEventHandler((CYBLE_GATTC_READ_RSP_PARAM_T *)eventParam);
1968:.\Generated_Source\PSoC4/BLE_eventHandler.c ****         #endif /* CYBLE_HPS_CLIENT */
1969:.\Generated_Source\PSoC4/BLE_eventHandler.c **** 		#ifdef CYBLE_IPS_CLIENT
1970:.\Generated_Source\PSoC4/BLE_eventHandler.c ****             CyBle_IpscReadLongRespEventHandler((CYBLE_GATTC_READ_RSP_PARAM_T *)eventParam);
1971:.\Generated_Source\PSoC4/BLE_eventHandler.c ****         #endif /* CYBLE_IPS_CLIENT */
1972:.\Generated_Source\PSoC4/BLE_eventHandler.c ****         #ifdef CYBLE_UDS_CLIENT
1973:.\Generated_Source\PSoC4/BLE_eventHandler.c ****             if((cyBle_eventHandlerFlag & CYBLE_CALLBACK) != 0u)
1974:.\Generated_Source\PSoC4/BLE_eventHandler.c ****             {
ARM GAS  C:\Users\behrenb2\AppData\Local\Temp\ccNHrcVd.s 			page 53


1975:.\Generated_Source\PSoC4/BLE_eventHandler.c ****                 CyBle_UdscReadLongRespEventHandler((CYBLE_GATTC_READ_RSP_PARAM_T *)eventParam);
1976:.\Generated_Source\PSoC4/BLE_eventHandler.c ****             }
1977:.\Generated_Source\PSoC4/BLE_eventHandler.c ****         #endif /* CYBLE_UDS_CLIENT */
1978:.\Generated_Source\PSoC4/BLE_eventHandler.c ****             break;
1979:.\Generated_Source\PSoC4/BLE_eventHandler.c ****         
1980:.\Generated_Source\PSoC4/BLE_eventHandler.c ****         case CYBLE_EVT_GATTC_LONG_PROCEDURE_END:
1981:.\Generated_Source\PSoC4/BLE_eventHandler.c ****             CyBle_LongProcedureEndEventHandler();
1982:.\Generated_Source\PSoC4/BLE_eventHandler.c ****             break;
1983:.\Generated_Source\PSoC4/BLE_eventHandler.c ****         
1984:.\Generated_Source\PSoC4/BLE_eventHandler.c ****         case CYBLE_EVT_GATTC_FIND_INFO_RSP:
1985:.\Generated_Source\PSoC4/BLE_eventHandler.c ****             CyBle_FindInfoEventHandler((CYBLE_GATTC_FIND_INFO_RSP_PARAM_T *)eventParam);
1986:.\Generated_Source\PSoC4/BLE_eventHandler.c ****             break;
1987:.\Generated_Source\PSoC4/BLE_eventHandler.c **** 
1988:.\Generated_Source\PSoC4/BLE_eventHandler.c ****         case CYBLE_EVT_GATTC_ERROR_RSP:
1989:.\Generated_Source\PSoC4/BLE_eventHandler.c ****             CyBle_ErrorResponseEventHandler((CYBLE_GATTC_ERR_RSP_PARAM_T *)eventParam);
1990:.\Generated_Source\PSoC4/BLE_eventHandler.c ****             break;
1991:.\Generated_Source\PSoC4/BLE_eventHandler.c **** 
1992:.\Generated_Source\PSoC4/BLE_eventHandler.c ****         case CYBLE_EVT_GATTC_HANDLE_VALUE_NTF:
1993:.\Generated_Source\PSoC4/BLE_eventHandler.c ****             CyBle_NotificationEventHandler((CYBLE_GATTC_HANDLE_VALUE_NTF_PARAM_T *)eventParam);
1994:.\Generated_Source\PSoC4/BLE_eventHandler.c ****             break;
1995:.\Generated_Source\PSoC4/BLE_eventHandler.c **** 
1996:.\Generated_Source\PSoC4/BLE_eventHandler.c ****         case CYBLE_EVT_GATTC_HANDLE_VALUE_IND:
1997:.\Generated_Source\PSoC4/BLE_eventHandler.c ****             CyBle_GattcIndicationEventHandler((CYBLE_GATTC_HANDLE_VALUE_IND_PARAM_T *)eventParam);
1998:.\Generated_Source\PSoC4/BLE_eventHandler.c ****             CyBle_IndicationEventHandler((CYBLE_GATTC_HANDLE_VALUE_IND_PARAM_T *)eventParam);
1999:.\Generated_Source\PSoC4/BLE_eventHandler.c ****         
2000:.\Generated_Source\PSoC4/BLE_eventHandler.c ****             /* Respond with a Handle Value Confirmation when request handled */
2001:.\Generated_Source\PSoC4/BLE_eventHandler.c ****             if((cyBle_eventHandlerFlag & CYBLE_CALLBACK) == 0u)
2002:.\Generated_Source\PSoC4/BLE_eventHandler.c ****             {
2003:.\Generated_Source\PSoC4/BLE_eventHandler.c ****                 (void)CyBle_GattcConfirmation(((CYBLE_GATTC_HANDLE_VALUE_IND_PARAM_T *)eventParam)-
2004:.\Generated_Source\PSoC4/BLE_eventHandler.c ****             }
2005:.\Generated_Source\PSoC4/BLE_eventHandler.c ****             break;
2006:.\Generated_Source\PSoC4/BLE_eventHandler.c ****         
2007:.\Generated_Source\PSoC4/BLE_eventHandler.c ****         case CYBLE_EVT_GATTC_READ_RSP:
2008:.\Generated_Source\PSoC4/BLE_eventHandler.c ****             CyBle_ReadResponseEventHandler((CYBLE_GATTC_READ_RSP_PARAM_T *)eventParam);
2009:.\Generated_Source\PSoC4/BLE_eventHandler.c ****             break;
2010:.\Generated_Source\PSoC4/BLE_eventHandler.c ****         
2011:.\Generated_Source\PSoC4/BLE_eventHandler.c ****         case CYBLE_EVT_GATTC_READ_MULTI_RSP:
2012:.\Generated_Source\PSoC4/BLE_eventHandler.c ****             CyBle_ReadMultipleResponseEventHandler((CYBLE_GATTC_READ_RSP_PARAM_T *)eventParam);
2013:.\Generated_Source\PSoC4/BLE_eventHandler.c ****             break;
2014:.\Generated_Source\PSoC4/BLE_eventHandler.c ****             
2015:.\Generated_Source\PSoC4/BLE_eventHandler.c ****         case CYBLE_EVT_GATTC_WRITE_RSP:
2016:.\Generated_Source\PSoC4/BLE_eventHandler.c ****             CyBle_GattcWriteResponseEventHandler((CYBLE_CONN_HANDLE_T *)eventParam);
2017:.\Generated_Source\PSoC4/BLE_eventHandler.c ****             break;
2018:.\Generated_Source\PSoC4/BLE_eventHandler.c ****             
2019:.\Generated_Source\PSoC4/BLE_eventHandler.c ****         case CYBLE_EVT_GATTC_EXEC_WRITE_RSP:
2020:.\Generated_Source\PSoC4/BLE_eventHandler.c ****         #ifdef CYBLE_BMS_CLIENT
2021:.\Generated_Source\PSoC4/BLE_eventHandler.c ****             CyBle_BmscExecuteWriteResponseEventHandler((CYBLE_GATTC_EXEC_WRITE_RSP_T *)eventParam);
2022:.\Generated_Source\PSoC4/BLE_eventHandler.c ****         #endif /* CYBLE_BMS_CLIENT */
2023:.\Generated_Source\PSoC4/BLE_eventHandler.c ****         #ifdef CYBLE_ESS_CLIENT
2024:.\Generated_Source\PSoC4/BLE_eventHandler.c ****             if((cyBle_eventHandlerFlag & CYBLE_CALLBACK) != 0u)
2025:.\Generated_Source\PSoC4/BLE_eventHandler.c ****             {
2026:.\Generated_Source\PSoC4/BLE_eventHandler.c ****                 CyBle_EsscExecuteWriteResponseEventHandler((CYBLE_GATTC_EXEC_WRITE_RSP_T *)eventPar
2027:.\Generated_Source\PSoC4/BLE_eventHandler.c ****             }
2028:.\Generated_Source\PSoC4/BLE_eventHandler.c ****         #endif /* CYBLE_ESS_CLIENT */
2029:.\Generated_Source\PSoC4/BLE_eventHandler.c ****         #ifdef CYBLE_HPS_CLIENT
2030:.\Generated_Source\PSoC4/BLE_eventHandler.c ****             if((cyBle_eventHandlerFlag & CYBLE_CALLBACK) != 0u)
2031:.\Generated_Source\PSoC4/BLE_eventHandler.c ****             {
ARM GAS  C:\Users\behrenb2\AppData\Local\Temp\ccNHrcVd.s 			page 54


2032:.\Generated_Source\PSoC4/BLE_eventHandler.c ****                 CyBle_HpscExecuteWriteResponseEventHandler((CYBLE_GATTC_EXEC_WRITE_RSP_T *)eventPar
2033:.\Generated_Source\PSoC4/BLE_eventHandler.c ****             }
2034:.\Generated_Source\PSoC4/BLE_eventHandler.c ****         #endif /* CYBLE_HPS_CLIENT */
2035:.\Generated_Source\PSoC4/BLE_eventHandler.c ****         #ifdef CYBLE_IPS_CLIENT
2036:.\Generated_Source\PSoC4/BLE_eventHandler.c ****             if((cyBle_eventHandlerFlag & CYBLE_CALLBACK) != 0u)
2037:.\Generated_Source\PSoC4/BLE_eventHandler.c ****             {
2038:.\Generated_Source\PSoC4/BLE_eventHandler.c ****                 CyBle_IpscExecuteWriteResponseEventHandler((CYBLE_GATTC_EXEC_WRITE_RSP_T *)eventPar
2039:.\Generated_Source\PSoC4/BLE_eventHandler.c ****             }
2040:.\Generated_Source\PSoC4/BLE_eventHandler.c ****         #endif /* CYBLE_IPS_CLIENT */
2041:.\Generated_Source\PSoC4/BLE_eventHandler.c ****         #ifdef CYBLE_UDS_CLIENT
2042:.\Generated_Source\PSoC4/BLE_eventHandler.c ****             if((cyBle_eventHandlerFlag & CYBLE_CALLBACK) != 0u)
2043:.\Generated_Source\PSoC4/BLE_eventHandler.c ****             {
2044:.\Generated_Source\PSoC4/BLE_eventHandler.c ****                 CyBle_UdscExecuteWriteResponseEventHandler((CYBLE_GATTC_EXEC_WRITE_RSP_T *)eventPar
2045:.\Generated_Source\PSoC4/BLE_eventHandler.c ****             }
2046:.\Generated_Source\PSoC4/BLE_eventHandler.c ****         #endif /* CYBLE_UDS_CLIENT */
2047:.\Generated_Source\PSoC4/BLE_eventHandler.c ****             break;
2048:.\Generated_Source\PSoC4/BLE_eventHandler.c ****             
2049:.\Generated_Source\PSoC4/BLE_eventHandler.c ****     #endif /* CYBLE_GATT_ROLE_CLIENT */
2050:.\Generated_Source\PSoC4/BLE_eventHandler.c **** 
2051:.\Generated_Source\PSoC4/BLE_eventHandler.c ****     #if((CYBLE_GAP_ROLE_PERIPHERAL || CYBLE_GAP_ROLE_CENTRAL) && (CYBLE_BONDING_REQUIREMENT == CYBL
2052:.\Generated_Source\PSoC4/BLE_eventHandler.c **** 
2053:.\Generated_Source\PSoC4/BLE_eventHandler.c ****         case CYBLE_EVT_PENDING_FLASH_WRITE:
2054:.\Generated_Source\PSoC4/BLE_eventHandler.c ****             cyBle_pendingFlashWrite |= CYBLE_PENDING_STACK_FLASH_WRITE_BIT;
2055:.\Generated_Source\PSoC4/BLE_eventHandler.c ****             break;
2056:.\Generated_Source\PSoC4/BLE_eventHandler.c ****         
2057:.\Generated_Source\PSoC4/BLE_eventHandler.c ****     #endif  /* (CYBLE_BONDING_REQUIREMENT == CYBLE_BONDING_YES) */
2058:.\Generated_Source\PSoC4/BLE_eventHandler.c ****     
2059:.\Generated_Source\PSoC4/BLE_eventHandler.c ****         default:
2060:.\Generated_Source\PSoC4/BLE_eventHandler.c ****             break;
 989              		.loc 1 2060 0
 990 029c C046     		mov	r8, r8
 991              	.L50:
2061:.\Generated_Source\PSoC4/BLE_eventHandler.c ****     }
2062:.\Generated_Source\PSoC4/BLE_eventHandler.c **** 
2063:.\Generated_Source\PSoC4/BLE_eventHandler.c ****     if(0u != (cyBle_eventHandlerFlag & (CYBLE_CALLBACK | CYBLE_ENABLE_ALL_EVENTS))) 
 992              		.loc 1 2063 0
 993 029e 0D4B     		ldr	r3, .L62
 994 02a0 1B78     		ldrb	r3, [r3]
 995 02a2 DBB2     		uxtb	r3, r3
 996 02a4 1A1C     		mov	r2, r3
 997 02a6 1123     		mov	r3, #17
 998 02a8 1340     		and	r3, r2
 999 02aa 0FD0     		beq	.L25
2064:.\Generated_Source\PSoC4/BLE_eventHandler.c ****     {
2065:.\Generated_Source\PSoC4/BLE_eventHandler.c ****         cyBle_eventHandlerFlag &= (uint8)~CYBLE_CALLBACK;
 1000              		.loc 1 2065 0
 1001 02ac 094B     		ldr	r3, .L62
 1002 02ae 1B78     		ldrb	r3, [r3]
 1003 02b0 DBB2     		uxtb	r3, r3
 1004 02b2 0122     		mov	r2, #1
 1005 02b4 9343     		bic	r3, r2
 1006 02b6 DAB2     		uxtb	r2, r3
 1007 02b8 064B     		ldr	r3, .L62
 1008 02ba 1A70     		strb	r2, [r3]
2066:.\Generated_Source\PSoC4/BLE_eventHandler.c ****         CyBle_ApplCallback((uint32)eventCode, eventParam);
 1009              		.loc 1 2066 0
 1010 02bc 104B     		ldr	r3, .L62+44
ARM GAS  C:\Users\behrenb2\AppData\Local\Temp\ccNHrcVd.s 			page 55


 1011 02be 1B68     		ldr	r3, [r3]
 1012 02c0 FA1D     		add	r2, r7, #7
 1013 02c2 1178     		ldrb	r1, [r2]
 1014 02c4 3A68     		ldr	r2, [r7]
 1015 02c6 081C     		mov	r0, r1
 1016 02c8 111C     		mov	r1, r2
 1017 02ca 9847     		blx	r3
 1018              	.L25:
2067:.\Generated_Source\PSoC4/BLE_eventHandler.c ****     }
2068:.\Generated_Source\PSoC4/BLE_eventHandler.c **** }
 1019              		.loc 1 2068 0
 1020 02cc BD46     		mov	sp, r7
 1021 02ce 06B0     		add	sp, sp, #24
 1022              		@ sp needed
 1023 02d0 80BD     		pop	{r7, pc}
 1024              	.L63:
 1025 02d2 C046     		.align	2
 1026              	.L62:
 1027 02d4 00000000 		.word	cyBle_eventHandlerFlag
 1028 02d8 00000000 		.word	.L28
 1029 02dc 00000000 		.word	cyBle_sflashDeviceAddress
 1030 02e0 00000000 		.word	cyBle_deviceAddress
 1031 02e4 00000000 		.word	cyBle_state
 1032 02e8 00000000 		.word	cyBle_busyStatus
 1033 02ec 00000000 		.word	gPrepWriteReqMem.6505
 1034 02f0 E00A0000 		.word	cyBle_stackMemoryRam+2784
 1035 02f4 00000000 		.word	cyBle_authInfo
 1036 02f8 00000000 		.word	cyBle_connHandle
 1037 02fc 00000000 		.word	cyBle_advertisingIntervalType
 1038 0300 00000000 		.word	CyBle_ApplCallback
 1039              		.cfi_endproc
 1040              	.LFE10:
 1041              		.size	CyBle_EventHandler, .-CyBle_EventHandler
 1042              		.bss
 1043              		.align	2
 1044              	gPrepWriteReqMem.6505:
 1045 0000 00000000 		.space	8
 1045      00000000 
 1046              		.text
 1047              	.Letext0:
 1048              		.file 2 ".\\Generated_Source\\PSoC4\\cytypes.h"
 1049              		.file 3 ".\\Generated_Source\\PSoC4\\BLE_Stack.h"
 1050              		.file 4 ".\\Generated_Source\\PSoC4\\BLE_StackHostMain.h"
 1051              		.file 5 ".\\Generated_Source\\PSoC4\\BLE_StackGap.h"
 1052              		.file 6 ".\\Generated_Source\\PSoC4\\BLE_StackGatt.h"
 1053              		.file 7 ".\\Generated_Source\\PSoC4\\BLE_StackGattServer.h"
 1054              		.file 8 ".\\Generated_Source\\PSoC4\\BLE.h"
 1055              		.file 9 ".\\Generated_Source\\PSoC4\\BLE_dis.h"
 1056              		.file 10 ".\\Generated_Source\\PSoC4\\BLE_hts.h"
 1057              		.file 11 ".\\Generated_Source\\PSoC4\\BLE_eventHandler.h"
 1058              		.section	.debug_info,"",%progbits
 1059              	.Ldebug_info0:
 1060 0000 390D0000 		.4byte	0xd39
 1061 0004 0400     		.2byte	0x4
 1062 0006 00000000 		.4byte	.Ldebug_abbrev0
 1063 000a 04       		.byte	0x4
 1064 000b 01       		.uleb128 0x1
ARM GAS  C:\Users\behrenb2\AppData\Local\Temp\ccNHrcVd.s 			page 56


 1065 000c 271B0000 		.4byte	.LASF327
 1066 0010 01       		.byte	0x1
 1067 0011 56060000 		.4byte	.LASF328
 1068 0015 D2150000 		.4byte	.LASF329
 1069 0019 00000000 		.4byte	.Ldebug_ranges0+0
 1070 001d 00000000 		.4byte	0
 1071 0021 00000000 		.4byte	.Ldebug_line0
 1072 0025 02       		.uleb128 0x2
 1073 0026 01       		.byte	0x1
 1074 0027 06       		.byte	0x6
 1075 0028 50070000 		.4byte	.LASF0
 1076 002c 02       		.uleb128 0x2
 1077 002d 01       		.byte	0x1
 1078 002e 08       		.byte	0x8
 1079 002f A2080000 		.4byte	.LASF1
 1080 0033 02       		.uleb128 0x2
 1081 0034 02       		.byte	0x2
 1082 0035 05       		.byte	0x5
 1083 0036 921D0000 		.4byte	.LASF2
 1084 003a 02       		.uleb128 0x2
 1085 003b 02       		.byte	0x2
 1086 003c 07       		.byte	0x7
 1087 003d A8210000 		.4byte	.LASF3
 1088 0041 02       		.uleb128 0x2
 1089 0042 04       		.byte	0x4
 1090 0043 05       		.byte	0x5
 1091 0044 1D050000 		.4byte	.LASF4
 1092 0048 02       		.uleb128 0x2
 1093 0049 04       		.byte	0x4
 1094 004a 07       		.byte	0x7
 1095 004b 1C0F0000 		.4byte	.LASF5
 1096 004f 02       		.uleb128 0x2
 1097 0050 08       		.byte	0x8
 1098 0051 05       		.byte	0x5
 1099 0052 26120000 		.4byte	.LASF6
 1100 0056 02       		.uleb128 0x2
 1101 0057 08       		.byte	0x8
 1102 0058 07       		.byte	0x7
 1103 0059 93190000 		.4byte	.LASF7
 1104 005d 03       		.uleb128 0x3
 1105 005e 04       		.byte	0x4
 1106 005f 05       		.byte	0x5
 1107 0060 696E7400 		.ascii	"int\000"
 1108 0064 02       		.uleb128 0x2
 1109 0065 04       		.byte	0x4
 1110 0066 07       		.byte	0x7
 1111 0067 ED140000 		.4byte	.LASF8
 1112 006b 04       		.uleb128 0x4
 1113 006c 191D0000 		.4byte	.LASF9
 1114 0070 02       		.byte	0x2
 1115 0071 9801     		.2byte	0x198
 1116 0073 2C000000 		.4byte	0x2c
 1117 0077 04       		.uleb128 0x4
 1118 0078 4D230000 		.4byte	.LASF10
 1119 007c 02       		.byte	0x2
 1120 007d 9901     		.2byte	0x199
 1121 007f 3A000000 		.4byte	0x3a
ARM GAS  C:\Users\behrenb2\AppData\Local\Temp\ccNHrcVd.s 			page 57


 1122 0083 04       		.uleb128 0x4
 1123 0084 2E010000 		.4byte	.LASF11
 1124 0088 02       		.byte	0x2
 1125 0089 9A01     		.2byte	0x19a
 1126 008b 48000000 		.4byte	0x48
 1127 008f 02       		.uleb128 0x2
 1128 0090 04       		.byte	0x4
 1129 0091 04       		.byte	0x4
 1130 0092 37140000 		.4byte	.LASF12
 1131 0096 02       		.uleb128 0x2
 1132 0097 08       		.byte	0x8
 1133 0098 04       		.byte	0x4
 1134 0099 F1120000 		.4byte	.LASF13
 1135 009d 02       		.uleb128 0x2
 1136 009e 01       		.byte	0x1
 1137 009f 08       		.byte	0x8
 1138 00a0 DC090000 		.4byte	.LASF14
 1139 00a4 05       		.uleb128 0x5
 1140 00a5 6B000000 		.4byte	0x6b
 1141 00a9 02       		.uleb128 0x2
 1142 00aa 04       		.byte	0x4
 1143 00ab 07       		.byte	0x7
 1144 00ac 30000000 		.4byte	.LASF15
 1145 00b0 06       		.uleb128 0x6
 1146 00b1 04       		.byte	0x4
 1147 00b2 07       		.uleb128 0x7
 1148 00b3 01       		.byte	0x1
 1149 00b4 03       		.byte	0x3
 1150 00b5 4201     		.2byte	0x142
 1151 00b7 6F020000 		.4byte	0x26f
 1152 00bb 08       		.uleb128 0x8
 1153 00bc 640A0000 		.4byte	.LASF16
 1154 00c0 00       		.sleb128 0
 1155 00c1 08       		.uleb128 0x8
 1156 00c2 B6050000 		.4byte	.LASF17
 1157 00c6 01       		.sleb128 1
 1158 00c7 08       		.uleb128 0x8
 1159 00c8 C8190000 		.4byte	.LASF18
 1160 00cc 02       		.sleb128 2
 1161 00cd 08       		.uleb128 0x8
 1162 00ce 91070000 		.4byte	.LASF19
 1163 00d2 03       		.sleb128 3
 1164 00d3 08       		.uleb128 0x8
 1165 00d4 70220000 		.4byte	.LASF20
 1166 00d8 04       		.sleb128 4
 1167 00d9 08       		.uleb128 0x8
 1168 00da 56200000 		.4byte	.LASF21
 1169 00de 05       		.sleb128 5
 1170 00df 08       		.uleb128 0x8
 1171 00e0 6E180000 		.4byte	.LASF22
 1172 00e4 06       		.sleb128 6
 1173 00e5 08       		.uleb128 0x8
 1174 00e6 BA1E0000 		.4byte	.LASF23
 1175 00ea 20       		.sleb128 32
 1176 00eb 08       		.uleb128 0x8
 1177 00ec 7C030000 		.4byte	.LASF24
 1178 00f0 21       		.sleb128 33
ARM GAS  C:\Users\behrenb2\AppData\Local\Temp\ccNHrcVd.s 			page 58


 1179 00f1 08       		.uleb128 0x8
 1180 00f2 72110000 		.4byte	.LASF25
 1181 00f6 22       		.sleb128 34
 1182 00f7 08       		.uleb128 0x8
 1183 00f8 2F170000 		.4byte	.LASF26
 1184 00fc 23       		.sleb128 35
 1185 00fd 08       		.uleb128 0x8
 1186 00fe 600E0000 		.4byte	.LASF27
 1187 0102 24       		.sleb128 36
 1188 0103 08       		.uleb128 0x8
 1189 0104 7C0E0000 		.4byte	.LASF28
 1190 0108 25       		.sleb128 37
 1191 0109 08       		.uleb128 0x8
 1192 010a F11C0000 		.4byte	.LASF29
 1193 010e 26       		.sleb128 38
 1194 010f 08       		.uleb128 0x8
 1195 0110 B0000000 		.4byte	.LASF30
 1196 0114 27       		.sleb128 39
 1197 0115 08       		.uleb128 0x8
 1198 0116 0A230000 		.4byte	.LASF31
 1199 011a 28       		.sleb128 40
 1200 011b 08       		.uleb128 0x8
 1201 011c A1180000 		.4byte	.LASF32
 1202 0120 29       		.sleb128 41
 1203 0121 08       		.uleb128 0x8
 1204 0122 C9100000 		.4byte	.LASF33
 1205 0126 2A       		.sleb128 42
 1206 0127 08       		.uleb128 0x8
 1207 0128 BC160000 		.4byte	.LASF34
 1208 012c 2B       		.sleb128 43
 1209 012d 08       		.uleb128 0x8
 1210 012e CB200000 		.4byte	.LASF35
 1211 0132 2C       		.sleb128 44
 1212 0133 08       		.uleb128 0x8
 1213 0134 5E000000 		.4byte	.LASF36
 1214 0138 2D       		.sleb128 45
 1215 0139 08       		.uleb128 0x8
 1216 013a 2E1D0000 		.4byte	.LASF37
 1217 013e 2E       		.sleb128 46
 1218 013f 08       		.uleb128 0x8
 1219 0140 24040000 		.4byte	.LASF38
 1220 0144 2F       		.sleb128 47
 1221 0145 08       		.uleb128 0x8
 1222 0146 BB090000 		.4byte	.LASF39
 1223 014a 30       		.sleb128 48
 1224 014b 08       		.uleb128 0x8
 1225 014c B9130000 		.4byte	.LASF40
 1226 0150 31       		.sleb128 49
 1227 0151 08       		.uleb128 0x8
 1228 0152 B40A0000 		.4byte	.LASF41
 1229 0156 32       		.sleb128 50
 1230 0157 08       		.uleb128 0x8
 1231 0158 EA080000 		.4byte	.LASF42
 1232 015c 33       		.sleb128 51
 1233 015d 08       		.uleb128 0x8
 1234 015e 341E0000 		.4byte	.LASF43
 1235 0162 C000     		.sleb128 64
ARM GAS  C:\Users\behrenb2\AppData\Local\Temp\ccNHrcVd.s 			page 59


 1236 0164 08       		.uleb128 0x8
 1237 0165 F0000000 		.4byte	.LASF44
 1238 0169 C100     		.sleb128 65
 1239 016b 08       		.uleb128 0x8
 1240 016c 85220000 		.4byte	.LASF45
 1241 0170 C200     		.sleb128 66
 1242 0172 08       		.uleb128 0x8
 1243 0173 CA180000 		.4byte	.LASF46
 1244 0177 C300     		.sleb128 67
 1245 0179 08       		.uleb128 0x8
 1246 017a B0080000 		.4byte	.LASF47
 1247 017e C400     		.sleb128 68
 1248 0180 08       		.uleb128 0x8
 1249 0181 12080000 		.4byte	.LASF48
 1250 0185 C500     		.sleb128 69
 1251 0187 08       		.uleb128 0x8
 1252 0188 421C0000 		.4byte	.LASF49
 1253 018c C600     		.sleb128 70
 1254 018e 08       		.uleb128 0x8
 1255 018f 241C0000 		.4byte	.LASF50
 1256 0193 C700     		.sleb128 71
 1257 0195 08       		.uleb128 0x8
 1258 0196 94090000 		.4byte	.LASF51
 1259 019a C800     		.sleb128 72
 1260 019c 08       		.uleb128 0x8
 1261 019d A4170000 		.4byte	.LASF52
 1262 01a1 C900     		.sleb128 73
 1263 01a3 08       		.uleb128 0x8
 1264 01a4 0B0B0000 		.4byte	.LASF53
 1265 01a8 CA00     		.sleb128 74
 1266 01aa 08       		.uleb128 0x8
 1267 01ab 110A0000 		.4byte	.LASF54
 1268 01af CB00     		.sleb128 75
 1269 01b1 08       		.uleb128 0x8
 1270 01b2 15170000 		.4byte	.LASF55
 1271 01b6 CC00     		.sleb128 76
 1272 01b8 08       		.uleb128 0x8
 1273 01b9 B71C0000 		.4byte	.LASF56
 1274 01bd CD00     		.sleb128 77
 1275 01bf 08       		.uleb128 0x8
 1276 01c0 FF040000 		.4byte	.LASF57
 1277 01c4 CE00     		.sleb128 78
 1278 01c6 08       		.uleb128 0x8
 1279 01c7 FA140000 		.4byte	.LASF58
 1280 01cb CF00     		.sleb128 79
 1281 01cd 08       		.uleb128 0x8
 1282 01ce 9B1E0000 		.4byte	.LASF59
 1283 01d2 D000     		.sleb128 80
 1284 01d4 08       		.uleb128 0x8
 1285 01d5 4E0B0000 		.4byte	.LASF60
 1286 01d9 D100     		.sleb128 81
 1287 01db 08       		.uleb128 0x8
 1288 01dc 5B030000 		.4byte	.LASF61
 1289 01e0 D200     		.sleb128 82
 1290 01e2 08       		.uleb128 0x8
 1291 01e3 14200000 		.4byte	.LASF62
 1292 01e7 D300     		.sleb128 83
ARM GAS  C:\Users\behrenb2\AppData\Local\Temp\ccNHrcVd.s 			page 60


 1293 01e9 08       		.uleb128 0x8
 1294 01ea 2C230000 		.4byte	.LASF63
 1295 01ee D400     		.sleb128 84
 1296 01f0 08       		.uleb128 0x8
 1297 01f1 29020000 		.4byte	.LASF64
 1298 01f5 D500     		.sleb128 85
 1299 01f7 08       		.uleb128 0x8
 1300 01f8 F50B0000 		.4byte	.LASF65
 1301 01fc D600     		.sleb128 86
 1302 01fe 08       		.uleb128 0x8
 1303 01ff 62140000 		.4byte	.LASF66
 1304 0203 D700     		.sleb128 87
 1305 0205 08       		.uleb128 0x8
 1306 0206 E7220000 		.4byte	.LASF67
 1307 020a D800     		.sleb128 88
 1308 020c 08       		.uleb128 0x8
 1309 020d 39210000 		.4byte	.LASF68
 1310 0211 F000     		.sleb128 112
 1311 0213 08       		.uleb128 0x8
 1312 0214 E50D0000 		.4byte	.LASF69
 1313 0218 F100     		.sleb128 113
 1314 021a 08       		.uleb128 0x8
 1315 021b CE060000 		.4byte	.LASF70
 1316 021f F200     		.sleb128 114
 1317 0221 08       		.uleb128 0x8
 1318 0222 7D1E0000 		.4byte	.LASF71
 1319 0226 F300     		.sleb128 115
 1320 0228 08       		.uleb128 0x8
 1321 0229 F7170000 		.4byte	.LASF72
 1322 022d F400     		.sleb128 116
 1323 022f 08       		.uleb128 0x8
 1324 0230 51110000 		.4byte	.LASF73
 1325 0234 F500     		.sleb128 117
 1326 0236 08       		.uleb128 0x8
 1327 0237 73090000 		.4byte	.LASF74
 1328 023b F600     		.sleb128 118
 1329 023d 08       		.uleb128 0x8
 1330 023e 3B1A0000 		.4byte	.LASF75
 1331 0242 F700     		.sleb128 119
 1332 0244 08       		.uleb128 0x8
 1333 0245 4D020000 		.4byte	.LASF76
 1334 0249 F800     		.sleb128 120
 1335 024b 08       		.uleb128 0x8
 1336 024c 11090000 		.4byte	.LASF77
 1337 0250 F900     		.sleb128 121
 1338 0252 08       		.uleb128 0x8
 1339 0253 C3220000 		.4byte	.LASF78
 1340 0257 FA00     		.sleb128 122
 1341 0259 08       		.uleb128 0x8
 1342 025a 30130000 		.4byte	.LASF79
 1343 025e FA01     		.sleb128 250
 1344 0260 08       		.uleb128 0x8
 1345 0261 F51F0000 		.4byte	.LASF80
 1346 0265 FB01     		.sleb128 251
 1347 0267 08       		.uleb128 0x8
 1348 0268 AE160000 		.4byte	.LASF81
 1349 026c FF01     		.sleb128 255
ARM GAS  C:\Users\behrenb2\AppData\Local\Temp\ccNHrcVd.s 			page 61


 1350 026e 00       		.byte	0
 1351 026f 07       		.uleb128 0x7
 1352 0270 02       		.byte	0x2
 1353 0271 03       		.byte	0x3
 1354 0272 FF02     		.2byte	0x2ff
 1355 0274 3F030000 		.4byte	0x33f
 1356 0278 08       		.uleb128 0x8
 1357 0279 BD070000 		.4byte	.LASF82
 1358 027d 00       		.sleb128 0
 1359 027e 08       		.uleb128 0x8
 1360 027f A60C0000 		.4byte	.LASF83
 1361 0283 01       		.sleb128 1
 1362 0284 08       		.uleb128 0x8
 1363 0285 52220000 		.4byte	.LASF84
 1364 0289 02       		.sleb128 2
 1365 028a 08       		.uleb128 0x8
 1366 028b 1C0D0000 		.4byte	.LASF85
 1367 028f 03       		.sleb128 3
 1368 0290 08       		.uleb128 0x8
 1369 0291 BD0E0000 		.4byte	.LASF86
 1370 0295 04       		.sleb128 4
 1371 0296 08       		.uleb128 0x8
 1372 0297 D3120000 		.4byte	.LASF87
 1373 029b 05       		.sleb128 5
 1374 029c 08       		.uleb128 0x8
 1375 029d AF1F0000 		.4byte	.LASF88
 1376 02a1 06       		.sleb128 6
 1377 02a2 08       		.uleb128 0x8
 1378 02a3 EE0A0000 		.4byte	.LASF89
 1379 02a7 07       		.sleb128 7
 1380 02a8 08       		.uleb128 0x8
 1381 02a9 01140000 		.4byte	.LASF90
 1382 02ad 08       		.sleb128 8
 1383 02ae 08       		.uleb128 0x8
 1384 02af 1A1F0000 		.4byte	.LASF91
 1385 02b3 09       		.sleb128 9
 1386 02b4 08       		.uleb128 0x8
 1387 02b5 54230000 		.4byte	.LASF92
 1388 02b9 0A       		.sleb128 10
 1389 02ba 08       		.uleb128 0x8
 1390 02bb A7030000 		.4byte	.LASF93
 1391 02bf 0B       		.sleb128 11
 1392 02c0 08       		.uleb128 0x8
 1393 02c1 3F200000 		.4byte	.LASF94
 1394 02c5 0C       		.sleb128 12
 1395 02c6 08       		.uleb128 0x8
 1396 02c7 38160000 		.4byte	.LASF95
 1397 02cb 0D       		.sleb128 13
 1398 02cc 08       		.uleb128 0x8
 1399 02cd 24100000 		.4byte	.LASF96
 1400 02d1 0E       		.sleb128 14
 1401 02d2 08       		.uleb128 0x8
 1402 02d3 AE120000 		.4byte	.LASF97
 1403 02d7 0F       		.sleb128 15
 1404 02d8 08       		.uleb128 0x8
 1405 02d9 DF010000 		.4byte	.LASF98
 1406 02dd 10       		.sleb128 16
ARM GAS  C:\Users\behrenb2\AppData\Local\Temp\ccNHrcVd.s 			page 62


 1407 02de 08       		.uleb128 0x8
 1408 02df DD130000 		.4byte	.LASF99
 1409 02e3 11       		.sleb128 17
 1410 02e4 08       		.uleb128 0x8
 1411 02e5 C9050000 		.4byte	.LASF100
 1412 02e9 12       		.sleb128 18
 1413 02ea 08       		.uleb128 0x8
 1414 02eb 28070000 		.4byte	.LASF101
 1415 02ef 13       		.sleb128 19
 1416 02f0 08       		.uleb128 0x8
 1417 02f1 F8120000 		.4byte	.LASF102
 1418 02f5 27       		.sleb128 39
 1419 02f6 08       		.uleb128 0x8
 1420 02f7 3D140000 		.4byte	.LASF103
 1421 02fb 28       		.sleb128 40
 1422 02fc 08       		.uleb128 0x8
 1423 02fd 0D020000 		.4byte	.LASF104
 1424 0301 29       		.sleb128 41
 1425 0302 08       		.uleb128 0x8
 1426 0303 A41D0000 		.4byte	.LASF105
 1427 0307 2A       		.sleb128 42
 1428 0308 08       		.uleb128 0x8
 1429 0309 640F0000 		.4byte	.LASF106
 1430 030d 2B       		.sleb128 43
 1431 030e 08       		.uleb128 0x8
 1432 030f B01A0000 		.4byte	.LASF107
 1433 0313 2C       		.sleb128 44
 1434 0314 08       		.uleb128 0x8
 1435 0315 8A0C0000 		.4byte	.LASF108
 1436 0319 FE01     		.sleb128 254
 1437 031b 08       		.uleb128 0x8
 1438 031c D50D0000 		.4byte	.LASF109
 1439 0320 FF01     		.sleb128 255
 1440 0322 08       		.uleb128 0x8
 1441 0323 6E170000 		.4byte	.LASF110
 1442 0327 8002     		.sleb128 256
 1443 0329 08       		.uleb128 0x8
 1444 032a 55170000 		.4byte	.LASF111
 1445 032e 8102     		.sleb128 257
 1446 0330 08       		.uleb128 0x8
 1447 0331 82060000 		.4byte	.LASF112
 1448 0335 8202     		.sleb128 258
 1449 0337 08       		.uleb128 0x8
 1450 0338 F5190000 		.4byte	.LASF113
 1451 033c 8302     		.sleb128 259
 1452 033e 00       		.byte	0
 1453 033f 07       		.uleb128 0x7
 1454 0340 01       		.byte	0x1
 1455 0341 03       		.byte	0x3
 1456 0342 9C03     		.2byte	0x39c
 1457 0344 7F030000 		.4byte	0x37f
 1458 0348 08       		.uleb128 0x8
 1459 0349 5C070000 		.4byte	.LASF114
 1460 034d 01       		.sleb128 1
 1461 034e 08       		.uleb128 0x8
 1462 034f CA040000 		.4byte	.LASF115
 1463 0353 02       		.sleb128 2
ARM GAS  C:\Users\behrenb2\AppData\Local\Temp\ccNHrcVd.s 			page 63


 1464 0354 08       		.uleb128 0x8
 1465 0355 53180000 		.4byte	.LASF116
 1466 0359 03       		.sleb128 3
 1467 035a 08       		.uleb128 0x8
 1468 035b E4030000 		.4byte	.LASF117
 1469 035f 04       		.sleb128 4
 1470 0360 08       		.uleb128 0x8
 1471 0361 E1090000 		.4byte	.LASF118
 1472 0365 05       		.sleb128 5
 1473 0366 08       		.uleb128 0x8
 1474 0367 490F0000 		.4byte	.LASF119
 1475 036b 06       		.sleb128 6
 1476 036c 08       		.uleb128 0x8
 1477 036d C91F0000 		.4byte	.LASF120
 1478 0371 07       		.sleb128 7
 1479 0372 08       		.uleb128 0x8
 1480 0373 050F0000 		.4byte	.LASF121
 1481 0377 08       		.sleb128 8
 1482 0378 08       		.uleb128 0x8
 1483 0379 77130000 		.4byte	.LASF122
 1484 037d 09       		.sleb128 9
 1485 037e 00       		.byte	0
 1486 037f 04       		.uleb128 0x4
 1487 0380 BE110000 		.4byte	.LASF123
 1488 0384 03       		.byte	0x3
 1489 0385 B303     		.2byte	0x3b3
 1490 0387 3F030000 		.4byte	0x33f
 1491 038b 07       		.uleb128 0x7
 1492 038c 01       		.byte	0x1
 1493 038d 03       		.byte	0x3
 1494 038e B703     		.2byte	0x3b7
 1495 0390 A7030000 		.4byte	0x3a7
 1496 0394 08       		.uleb128 0x8
 1497 0395 E01F0000 		.4byte	.LASF124
 1498 0399 00       		.sleb128 0
 1499 039a 08       		.uleb128 0x8
 1500 039b 78150000 		.4byte	.LASF125
 1501 039f 01       		.sleb128 1
 1502 03a0 08       		.uleb128 0x8
 1503 03a1 24210000 		.4byte	.LASF126
 1504 03a5 02       		.sleb128 2
 1505 03a6 00       		.byte	0
 1506 03a7 04       		.uleb128 0x4
 1507 03a8 CC070000 		.4byte	.LASF127
 1508 03ac 03       		.byte	0x3
 1509 03ad BE03     		.2byte	0x3be
 1510 03af 8B030000 		.4byte	0x38b
 1511 03b3 09       		.uleb128 0x9
 1512 03b4 02       		.byte	0x2
 1513 03b5 03       		.byte	0x3
 1514 03b6 C103     		.2byte	0x3c1
 1515 03b8 D7030000 		.4byte	0x3d7
 1516 03bc 0A       		.uleb128 0xa
 1517 03bd 35010000 		.4byte	.LASF128
 1518 03c1 03       		.byte	0x3
 1519 03c2 C403     		.2byte	0x3c4
 1520 03c4 7F030000 		.4byte	0x37f
ARM GAS  C:\Users\behrenb2\AppData\Local\Temp\ccNHrcVd.s 			page 64


 1521 03c8 00       		.byte	0
 1522 03c9 0A       		.uleb128 0xa
 1523 03ca C4060000 		.4byte	.LASF129
 1524 03ce 03       		.byte	0x3
 1525 03cf C603     		.2byte	0x3c6
 1526 03d1 A7030000 		.4byte	0x3a7
 1527 03d5 01       		.byte	0x1
 1528 03d6 00       		.byte	0
 1529 03d7 04       		.uleb128 0x4
 1530 03d8 0C210000 		.4byte	.LASF130
 1531 03dc 03       		.byte	0x3
 1532 03dd C703     		.2byte	0x3c7
 1533 03df B3030000 		.4byte	0x3b3
 1534 03e3 07       		.uleb128 0x7
 1535 03e4 01       		.byte	0x1
 1536 03e5 03       		.byte	0x3
 1537 03e6 E803     		.2byte	0x3e8
 1538 03e8 F9030000 		.4byte	0x3f9
 1539 03ec 08       		.uleb128 0x8
 1540 03ed 2D190000 		.4byte	.LASF131
 1541 03f1 00       		.sleb128 0
 1542 03f2 08       		.uleb128 0x8
 1543 03f3 970F0000 		.4byte	.LASF132
 1544 03f7 01       		.sleb128 1
 1545 03f8 00       		.byte	0
 1546 03f9 04       		.uleb128 0x4
 1547 03fa 5F210000 		.4byte	.LASF133
 1548 03fe 03       		.byte	0x3
 1549 03ff EF03     		.2byte	0x3ef
 1550 0401 E3030000 		.4byte	0x3e3
 1551 0405 09       		.uleb128 0x9
 1552 0406 08       		.byte	0x8
 1553 0407 03       		.byte	0x3
 1554 0408 F203     		.2byte	0x3f2
 1555 040a 36040000 		.4byte	0x436
 1556 040e 0A       		.uleb128 0xa
 1557 040f 9D000000 		.4byte	.LASF134
 1558 0413 03       		.byte	0x3
 1559 0414 F503     		.2byte	0x3f5
 1560 0416 F9030000 		.4byte	0x3f9
 1561 041a 00       		.byte	0
 1562 041b 0A       		.uleb128 0xa
 1563 041c 960E0000 		.4byte	.LASF135
 1564 0420 03       		.byte	0x3
 1565 0421 FA03     		.2byte	0x3fa
 1566 0423 6B000000 		.4byte	0x6b
 1567 0427 01       		.byte	0x1
 1568 0428 0A       		.uleb128 0xa
 1569 0429 66090000 		.4byte	.LASF136
 1570 042d 03       		.byte	0x3
 1571 042e 0204     		.2byte	0x402
 1572 0430 B0000000 		.4byte	0xb0
 1573 0434 04       		.byte	0x4
 1574 0435 00       		.byte	0
 1575 0436 04       		.uleb128 0x4
 1576 0437 66120000 		.4byte	.LASF137
 1577 043b 03       		.byte	0x3
ARM GAS  C:\Users\behrenb2\AppData\Local\Temp\ccNHrcVd.s 			page 65


 1578 043c 0404     		.2byte	0x404
 1579 043e 05040000 		.4byte	0x405
 1580 0442 09       		.uleb128 0x9
 1581 0443 07       		.byte	0x7
 1582 0444 03       		.byte	0x3
 1583 0445 2804     		.2byte	0x428
 1584 0447 66040000 		.4byte	0x466
 1585 044b 0A       		.uleb128 0xa
 1586 044c 621F0000 		.4byte	.LASF138
 1587 0450 03       		.byte	0x3
 1588 0451 2B04     		.2byte	0x42b
 1589 0453 66040000 		.4byte	0x466
 1590 0457 00       		.byte	0
 1591 0458 0A       		.uleb128 0xa
 1592 0459 A7020000 		.4byte	.LASF139
 1593 045d 03       		.byte	0x3
 1594 045e 2D04     		.2byte	0x42d
 1595 0460 6B000000 		.4byte	0x6b
 1596 0464 06       		.byte	0x6
 1597 0465 00       		.byte	0
 1598 0466 0B       		.uleb128 0xb
 1599 0467 6B000000 		.4byte	0x6b
 1600 046b 76040000 		.4byte	0x476
 1601 046f 0C       		.uleb128 0xc
 1602 0470 A9000000 		.4byte	0xa9
 1603 0474 05       		.byte	0x5
 1604 0475 00       		.byte	0
 1605 0476 04       		.uleb128 0x4
 1606 0477 FA1A0000 		.4byte	.LASF140
 1607 047b 03       		.byte	0x3
 1608 047c 2E04     		.2byte	0x42e
 1609 047e 42040000 		.4byte	0x442
 1610 0482 0D       		.uleb128 0xd
 1611 0483 01       		.byte	0x1
 1612 0484 04       		.byte	0x4
 1613 0485 2C       		.byte	0x2c
 1614 0486 A3040000 		.4byte	0x4a3
 1615 048a 08       		.uleb128 0x8
 1616 048b BC150000 		.4byte	.LASF141
 1617 048f 01       		.sleb128 1
 1618 0490 08       		.uleb128 0x8
 1619 0491 C81A0000 		.4byte	.LASF142
 1620 0495 02       		.sleb128 2
 1621 0496 08       		.uleb128 0x8
 1622 0497 B1220000 		.4byte	.LASF143
 1623 049b 03       		.sleb128 3
 1624 049c 08       		.uleb128 0x8
 1625 049d 131C0000 		.4byte	.LASF144
 1626 04a1 04       		.sleb128 4
 1627 04a2 00       		.byte	0
 1628 04a3 0E       		.uleb128 0xe
 1629 04a4 AC020000 		.4byte	.LASF145
 1630 04a8 04       		.byte	0x4
 1631 04a9 39       		.byte	0x39
 1632 04aa 82040000 		.4byte	0x482
 1633 04ae 0D       		.uleb128 0xd
 1634 04af 01       		.byte	0x1
ARM GAS  C:\Users\behrenb2\AppData\Local\Temp\ccNHrcVd.s 			page 66


 1635 04b0 05       		.byte	0x5
 1636 04b1 F8       		.byte	0xf8
 1637 04b2 D5040000 		.4byte	0x4d5
 1638 04b6 08       		.uleb128 0x8
 1639 04b7 3C050000 		.4byte	.LASF146
 1640 04bb 00       		.sleb128 0
 1641 04bc 08       		.uleb128 0x8
 1642 04bd 52050000 		.4byte	.LASF147
 1643 04c1 01       		.sleb128 1
 1644 04c2 08       		.uleb128 0x8
 1645 04c3 68050000 		.4byte	.LASF148
 1646 04c7 02       		.sleb128 2
 1647 04c8 08       		.uleb128 0x8
 1648 04c9 7E050000 		.4byte	.LASF149
 1649 04cd 03       		.sleb128 3
 1650 04ce 08       		.uleb128 0x8
 1651 04cf C50B0000 		.4byte	.LASF150
 1652 04d3 0F       		.sleb128 15
 1653 04d4 00       		.byte	0
 1654 04d5 07       		.uleb128 0x7
 1655 04d6 01       		.byte	0x1
 1656 04d7 05       		.byte	0x5
 1657 04d8 1701     		.2byte	0x117
 1658 04da FD040000 		.4byte	0x4fd
 1659 04de 08       		.uleb128 0x8
 1660 04df C7030000 		.4byte	.LASF151
 1661 04e3 00       		.sleb128 0
 1662 04e4 08       		.uleb128 0x8
 1663 04e5 AD200000 		.4byte	.LASF152
 1664 04e9 01       		.sleb128 1
 1665 04ea 08       		.uleb128 0x8
 1666 04eb 460A0000 		.4byte	.LASF153
 1667 04ef 02       		.sleb128 2
 1668 04f0 08       		.uleb128 0x8
 1669 04f1 CF000000 		.4byte	.LASF154
 1670 04f5 03       		.sleb128 3
 1671 04f6 08       		.uleb128 0x8
 1672 04f7 4E1E0000 		.4byte	.LASF155
 1673 04fb 04       		.sleb128 4
 1674 04fc 00       		.byte	0
 1675 04fd 07       		.uleb128 0x7
 1676 04fe 01       		.byte	0x1
 1677 04ff 05       		.byte	0x5
 1678 0500 2D01     		.2byte	0x12d
 1679 0502 6D050000 		.4byte	0x56d
 1680 0506 08       		.uleb128 0x8
 1681 0507 87180000 		.4byte	.LASF156
 1682 050b 00       		.sleb128 0
 1683 050c 08       		.uleb128 0x8
 1684 050d 7C040000 		.4byte	.LASF157
 1685 0511 01       		.sleb128 1
 1686 0512 08       		.uleb128 0x8
 1687 0513 01190000 		.4byte	.LASF158
 1688 0517 02       		.sleb128 2
 1689 0518 08       		.uleb128 0x8
 1690 0519 D80F0000 		.4byte	.LASF159
 1691 051d 03       		.sleb128 3
ARM GAS  C:\Users\behrenb2\AppData\Local\Temp\ccNHrcVd.s 			page 67


 1692 051e 08       		.uleb128 0x8
 1693 051f 1F220000 		.4byte	.LASF160
 1694 0523 04       		.sleb128 4
 1695 0524 08       		.uleb128 0x8
 1696 0525 E81B0000 		.4byte	.LASF161
 1697 0529 05       		.sleb128 5
 1698 052a 08       		.uleb128 0x8
 1699 052b F0110000 		.4byte	.LASF162
 1700 052f 06       		.sleb128 6
 1701 0530 08       		.uleb128 0x8
 1702 0531 AD0F0000 		.4byte	.LASF163
 1703 0535 07       		.sleb128 7
 1704 0536 08       		.uleb128 0x8
 1705 0537 EF020000 		.4byte	.LASF164
 1706 053b 08       		.sleb128 8
 1707 053c 08       		.uleb128 0x8
 1708 053d 2A110000 		.4byte	.LASF165
 1709 0541 09       		.sleb128 9
 1710 0542 08       		.uleb128 0x8
 1711 0543 3E090000 		.4byte	.LASF166
 1712 0547 0A       		.sleb128 10
 1713 0548 08       		.uleb128 0x8
 1714 0549 96110000 		.4byte	.LASF167
 1715 054d 0B       		.sleb128 11
 1716 054e 08       		.uleb128 0x8
 1717 054f 7E200000 		.4byte	.LASF168
 1718 0553 0C       		.sleb128 12
 1719 0554 08       		.uleb128 0x8
 1720 0555 EC0C0000 		.4byte	.LASF169
 1721 0559 0D       		.sleb128 13
 1722 055a 08       		.uleb128 0x8
 1723 055b 39080000 		.4byte	.LASF170
 1724 055f 0E       		.sleb128 14
 1725 0560 08       		.uleb128 0x8
 1726 0561 C3020000 		.4byte	.LASF171
 1727 0565 15       		.sleb128 21
 1728 0566 08       		.uleb128 0x8
 1729 0567 0B0E0000 		.4byte	.LASF172
 1730 056b 18       		.sleb128 24
 1731 056c 00       		.byte	0
 1732 056d 04       		.uleb128 0x4
 1733 056e F6160000 		.4byte	.LASF173
 1734 0572 05       		.byte	0x5
 1735 0573 6C01     		.2byte	0x16c
 1736 0575 FD040000 		.4byte	0x4fd
 1737 0579 09       		.uleb128 0x9
 1738 057a 05       		.byte	0x5
 1739 057b 05       		.byte	0x5
 1740 057c B901     		.2byte	0x1b9
 1741 057e C4050000 		.4byte	0x5c4
 1742 0582 0A       		.uleb128 0xa
 1743 0583 7D120000 		.4byte	.LASF174
 1744 0587 05       		.byte	0x5
 1745 0588 C301     		.2byte	0x1c3
 1746 058a 6B000000 		.4byte	0x6b
 1747 058e 00       		.byte	0
 1748 058f 0A       		.uleb128 0xa
ARM GAS  C:\Users\behrenb2\AppData\Local\Temp\ccNHrcVd.s 			page 68


 1749 0590 C7140000 		.4byte	.LASF175
 1750 0594 05       		.byte	0x5
 1751 0595 C901     		.2byte	0x1c9
 1752 0597 6B000000 		.4byte	0x6b
 1753 059b 01       		.byte	0x1
 1754 059c 0A       		.uleb128 0xa
 1755 059d 39000000 		.4byte	.LASF176
 1756 05a1 05       		.byte	0x5
 1757 05a2 D001     		.2byte	0x1d0
 1758 05a4 6B000000 		.4byte	0x6b
 1759 05a8 02       		.byte	0x2
 1760 05a9 0A       		.uleb128 0xa
 1761 05aa 9C1D0000 		.4byte	.LASF177
 1762 05ae 05       		.byte	0x5
 1763 05af D401     		.2byte	0x1d4
 1764 05b1 6D050000 		.4byte	0x56d
 1765 05b5 03       		.byte	0x3
 1766 05b6 0A       		.uleb128 0xa
 1767 05b7 A51C0000 		.4byte	.LASF178
 1768 05bb 05       		.byte	0x5
 1769 05bc DE01     		.2byte	0x1de
 1770 05be 6B000000 		.4byte	0x6b
 1771 05c2 04       		.byte	0x4
 1772 05c3 00       		.byte	0
 1773 05c4 04       		.uleb128 0x4
 1774 05c5 300A0000 		.4byte	.LASF179
 1775 05c9 05       		.byte	0x5
 1776 05ca E001     		.2byte	0x1e0
 1777 05cc 79050000 		.4byte	0x579
 1778 05d0 0F       		.uleb128 0xf
 1779 05d1 04       		.byte	0x4
 1780 05d2 6B000000 		.4byte	0x6b
 1781 05d6 09       		.uleb128 0x9
 1782 05d7 08       		.byte	0x8
 1783 05d8 05       		.byte	0x5
 1784 05d9 5A03     		.2byte	0x35a
 1785 05db 14060000 		.4byte	0x614
 1786 05df 0A       		.uleb128 0xa
 1787 05e0 420F0000 		.4byte	.LASF180
 1788 05e4 05       		.byte	0x5
 1789 05e5 5E03     		.2byte	0x35e
 1790 05e7 6B000000 		.4byte	0x6b
 1791 05eb 00       		.byte	0
 1792 05ec 0A       		.uleb128 0xa
 1793 05ed 9F210000 		.4byte	.LASF181
 1794 05f1 05       		.byte	0x5
 1795 05f2 6403     		.2byte	0x364
 1796 05f4 77000000 		.4byte	0x77
 1797 05f8 02       		.byte	0x2
 1798 05f9 0A       		.uleb128 0xa
 1799 05fa 72200000 		.4byte	.LASF182
 1800 05fe 05       		.byte	0x5
 1801 05ff 6903     		.2byte	0x369
 1802 0601 77000000 		.4byte	0x77
 1803 0605 04       		.byte	0x4
 1804 0606 0A       		.uleb128 0xa
 1805 0607 A3220000 		.4byte	.LASF183
ARM GAS  C:\Users\behrenb2\AppData\Local\Temp\ccNHrcVd.s 			page 69


 1806 060b 05       		.byte	0x5
 1807 060c 6F03     		.2byte	0x36f
 1808 060e 77000000 		.4byte	0x77
 1809 0612 06       		.byte	0x6
 1810 0613 00       		.byte	0
 1811 0614 04       		.uleb128 0x4
 1812 0615 4A190000 		.4byte	.LASF184
 1813 0619 05       		.byte	0x5
 1814 061a 7103     		.2byte	0x371
 1815 061c D6050000 		.4byte	0x5d6
 1816 0620 0D       		.uleb128 0xd
 1817 0621 01       		.byte	0x1
 1818 0622 06       		.byte	0x6
 1819 0623 4F       		.byte	0x4f
 1820 0624 DA060000 		.4byte	0x6da
 1821 0628 08       		.uleb128 0x8
 1822 0629 750C0000 		.4byte	.LASF185
 1823 062d 01       		.sleb128 1
 1824 062e 08       		.uleb128 0x8
 1825 062f D50A0000 		.4byte	.LASF186
 1826 0633 02       		.sleb128 2
 1827 0634 08       		.uleb128 0x8
 1828 0635 E6040000 		.4byte	.LASF187
 1829 0639 03       		.sleb128 3
 1830 063a 08       		.uleb128 0x8
 1831 063b 78070000 		.4byte	.LASF188
 1832 063f 04       		.sleb128 4
 1833 0640 08       		.uleb128 0x8
 1834 0641 E8180000 		.4byte	.LASF189
 1835 0645 05       		.sleb128 5
 1836 0646 08       		.uleb128 0x8
 1837 0647 31180000 		.4byte	.LASF190
 1838 064b 06       		.sleb128 6
 1839 064c 08       		.uleb128 0x8
 1840 064d 94050000 		.4byte	.LASF191
 1841 0651 07       		.sleb128 7
 1842 0652 08       		.uleb128 0x8
 1843 0653 DB170000 		.4byte	.LASF192
 1844 0657 08       		.sleb128 8
 1845 0658 08       		.uleb128 0x8
 1846 0659 17030000 		.4byte	.LASF193
 1847 065d 09       		.sleb128 9
 1848 065e 08       		.uleb128 0x8
 1849 065f 2E0F0000 		.4byte	.LASF194
 1850 0663 0A       		.sleb128 10
 1851 0664 08       		.uleb128 0x8
 1852 0665 9B1F0000 		.4byte	.LASF195
 1853 0669 0B       		.sleb128 11
 1854 066a 08       		.uleb128 0x8
 1855 066b 0E1B0000 		.4byte	.LASF196
 1856 066f 0C       		.sleb128 12
 1857 0670 08       		.uleb128 0x8
 1858 0671 EA060000 		.4byte	.LASF197
 1859 0675 0D       		.sleb128 13
 1860 0676 08       		.uleb128 0x8
 1861 0677 87170000 		.4byte	.LASF198
 1862 067b 0E       		.sleb128 14
ARM GAS  C:\Users\behrenb2\AppData\Local\Temp\ccNHrcVd.s 			page 70


 1863 067c 08       		.uleb128 0x8
 1864 067d 8A020000 		.4byte	.LASF199
 1865 0681 0F       		.sleb128 15
 1866 0682 08       		.uleb128 0x8
 1867 0683 02220000 		.4byte	.LASF200
 1868 0687 10       		.sleb128 16
 1869 0688 08       		.uleb128 0x8
 1870 0689 A00E0000 		.4byte	.LASF201
 1871 068d 11       		.sleb128 17
 1872 068e 08       		.uleb128 0x8
 1873 068f 7D1D0000 		.4byte	.LASF202
 1874 0693 12       		.sleb128 18
 1875 0694 08       		.uleb128 0x8
 1876 0695 FC090000 		.4byte	.LASF203
 1877 0699 13       		.sleb128 19
 1878 069a 08       		.uleb128 0x8
 1879 069b 19010000 		.4byte	.LASF204
 1880 069f D200     		.sleb128 82
 1881 06a1 08       		.uleb128 0x8
 1882 06a2 9C010000 		.4byte	.LASF205
 1883 06a6 16       		.sleb128 22
 1884 06a7 08       		.uleb128 0x8
 1885 06a8 5D160000 		.4byte	.LASF206
 1886 06ac 17       		.sleb128 23
 1887 06ad 08       		.uleb128 0x8
 1888 06ae EF200000 		.4byte	.LASF207
 1889 06b2 18       		.sleb128 24
 1890 06b3 08       		.uleb128 0x8
 1891 06b4 B80D0000 		.4byte	.LASF208
 1892 06b8 19       		.sleb128 25
 1893 06b9 08       		.uleb128 0x8
 1894 06ba 08100000 		.4byte	.LASF209
 1895 06be 1B       		.sleb128 27
 1896 06bf 08       		.uleb128 0x8
 1897 06c0 CE080000 		.4byte	.LASF210
 1898 06c4 1D       		.sleb128 29
 1899 06c5 08       		.uleb128 0x8
 1900 06c6 42000000 		.4byte	.LASF211
 1901 06ca 1E       		.sleb128 30
 1902 06cb 08       		.uleb128 0x8
 1903 06cc 710D0000 		.4byte	.LASF212
 1904 06d0 D201     		.sleb128 210
 1905 06d2 08       		.uleb128 0x8
 1906 06d3 DA190000 		.4byte	.LASF213
 1907 06d7 FF01     		.sleb128 255
 1908 06d9 00       		.byte	0
 1909 06da 0D       		.uleb128 0xd
 1910 06db 01       		.byte	0x1
 1911 06dc 06       		.byte	0x6
 1912 06dd AB       		.byte	0xab
 1913 06de DB070000 		.4byte	0x7db
 1914 06e2 08       		.uleb128 0x8
 1915 06e3 5A1A0000 		.4byte	.LASF214
 1916 06e7 00       		.sleb128 0
 1917 06e8 08       		.uleb128 0x8
 1918 06e9 AA190000 		.4byte	.LASF215
 1919 06ed 01       		.sleb128 1
ARM GAS  C:\Users\behrenb2\AppData\Local\Temp\ccNHrcVd.s 			page 71


 1920 06ee 08       		.uleb128 0x8
 1921 06ef 46010000 		.4byte	.LASF216
 1922 06f3 02       		.sleb128 2
 1923 06f4 08       		.uleb128 0x8
 1924 06f5 7C210000 		.4byte	.LASF217
 1925 06f9 03       		.sleb128 3
 1926 06fa 08       		.uleb128 0x8
 1927 06fb 3B060000 		.4byte	.LASF218
 1928 06ff 04       		.sleb128 4
 1929 0700 08       		.uleb128 0x8
 1930 0701 19150000 		.4byte	.LASF219
 1931 0705 05       		.sleb128 5
 1932 0706 08       		.uleb128 0x8
 1933 0707 F81D0000 		.4byte	.LASF220
 1934 070b 06       		.sleb128 6
 1935 070c 08       		.uleb128 0x8
 1936 070d BD170000 		.4byte	.LASF221
 1937 0711 07       		.sleb128 7
 1938 0712 08       		.uleb128 0x8
 1939 0713 92140000 		.4byte	.LASF222
 1940 0717 08       		.sleb128 8
 1941 0718 08       		.uleb128 0x8
 1942 0719 86120000 		.4byte	.LASF223
 1943 071d 09       		.sleb128 9
 1944 071e 08       		.uleb128 0x8
 1945 071f 8B160000 		.4byte	.LASF224
 1946 0723 0A       		.sleb128 10
 1947 0724 08       		.uleb128 0x8
 1948 0725 A30B0000 		.4byte	.LASF225
 1949 0729 0B       		.sleb128 11
 1950 072a 08       		.uleb128 0x8
 1951 072b 4E130000 		.4byte	.LASF226
 1952 072f 0C       		.sleb128 12
 1953 0730 08       		.uleb128 0x8
 1954 0731 03070000 		.4byte	.LASF227
 1955 0735 0D       		.sleb128 13
 1956 0736 08       		.uleb128 0x8
 1957 0737 960A0000 		.4byte	.LASF228
 1958 073b 0E       		.sleb128 14
 1959 073c 08       		.uleb128 0x8
 1960 073d BB210000 		.4byte	.LASF229
 1961 0741 0F       		.sleb128 15
 1962 0742 08       		.uleb128 0x8
 1963 0743 B9010000 		.4byte	.LASF230
 1964 0747 10       		.sleb128 16
 1965 0748 08       		.uleb128 0x8
 1966 0749 68010000 		.4byte	.LASF231
 1967 074d 11       		.sleb128 17
 1968 074e 08       		.uleb128 0x8
 1969 074f 6D0B0000 		.4byte	.LASF232
 1970 0753 8001     		.sleb128 128
 1971 0755 08       		.uleb128 0x8
 1972 0756 320E0000 		.4byte	.LASF233
 1973 075a 8001     		.sleb128 128
 1974 075c 08       		.uleb128 0x8
 1975 075d C11D0000 		.4byte	.LASF234
 1976 0761 8001     		.sleb128 128
ARM GAS  C:\Users\behrenb2\AppData\Local\Temp\ccNHrcVd.s 			page 72


 1977 0763 08       		.uleb128 0x8
 1978 0764 DA1A0000 		.4byte	.LASF235
 1979 0768 8001     		.sleb128 128
 1980 076a 08       		.uleb128 0x8
 1981 076b 8E150000 		.4byte	.LASF236
 1982 076f 8001     		.sleb128 128
 1983 0771 08       		.uleb128 0x8
 1984 0772 E00E0000 		.4byte	.LASF237
 1985 0776 8001     		.sleb128 128
 1986 0778 08       		.uleb128 0x8
 1987 0779 7B0A0000 		.4byte	.LASF238
 1988 077d 8001     		.sleb128 128
 1989 077f 08       		.uleb128 0x8
 1990 0780 8D0D0000 		.4byte	.LASF239
 1991 0784 8101     		.sleb128 129
 1992 0786 08       		.uleb128 0x8
 1993 0787 631C0000 		.4byte	.LASF240
 1994 078b 8101     		.sleb128 129
 1995 078d 08       		.uleb128 0x8
 1996 078e 00000000 		.4byte	.LASF241
 1997 0792 8101     		.sleb128 129
 1998 0794 08       		.uleb128 0x8
 1999 0795 17060000 		.4byte	.LASF242
 2000 0799 8101     		.sleb128 129
 2001 079b 08       		.uleb128 0x8
 2002 079c 56040000 		.4byte	.LASF243
 2003 07a0 8201     		.sleb128 130
 2004 07a2 08       		.uleb128 0x8
 2005 07a3 691F0000 		.4byte	.LASF244
 2006 07a7 A001     		.sleb128 160
 2007 07a9 08       		.uleb128 0x8
 2008 07aa 4D100000 		.4byte	.LASF245
 2009 07ae A001     		.sleb128 160
 2010 07b0 08       		.uleb128 0x8
 2011 07b1 A6040000 		.4byte	.LASF246
 2012 07b5 A101     		.sleb128 161
 2013 07b7 08       		.uleb128 0x8
 2014 07b8 F41E0000 		.4byte	.LASF247
 2015 07bc A201     		.sleb128 162
 2016 07be 08       		.uleb128 0x8
 2017 07bf 170C0000 		.4byte	.LASF248
 2018 07c3 A301     		.sleb128 163
 2019 07c5 08       		.uleb128 0x8
 2020 07c6 E8070000 		.4byte	.LASF249
 2021 07ca FD01     		.sleb128 253
 2022 07cc 08       		.uleb128 0x8
 2023 07cd 8C130000 		.4byte	.LASF250
 2024 07d1 FE01     		.sleb128 254
 2025 07d3 08       		.uleb128 0x8
 2026 07d4 15180000 		.4byte	.LASF251
 2027 07d8 FF01     		.sleb128 255
 2028 07da 00       		.byte	0
 2029 07db 04       		.uleb128 0x4
 2030 07dc DE1E0000 		.4byte	.LASF252
 2031 07e0 06       		.byte	0x6
 2032 07e1 6201     		.2byte	0x162
 2033 07e3 DA060000 		.4byte	0x6da
ARM GAS  C:\Users\behrenb2\AppData\Local\Temp\ccNHrcVd.s 			page 73


 2034 07e7 04       		.uleb128 0x4
 2035 07e8 0F1A0000 		.4byte	.LASF253
 2036 07ec 06       		.byte	0x6
 2037 07ed 9201     		.2byte	0x192
 2038 07ef 77000000 		.4byte	0x77
 2039 07f3 09       		.uleb128 0x9
 2040 07f4 02       		.byte	0x2
 2041 07f5 06       		.byte	0x6
 2042 07f6 9C01     		.2byte	0x19c
 2043 07f8 17080000 		.4byte	0x817
 2044 07fc 0A       		.uleb128 0xa
 2045 07fd 4D040000 		.4byte	.LASF254
 2046 0801 06       		.byte	0x6
 2047 0802 A301     		.2byte	0x1a3
 2048 0804 6B000000 		.4byte	0x6b
 2049 0808 00       		.byte	0
 2050 0809 0A       		.uleb128 0xa
 2051 080a 4C220000 		.4byte	.LASF255
 2052 080e 06       		.byte	0x6
 2053 080f A901     		.2byte	0x1a9
 2054 0811 6B000000 		.4byte	0x6b
 2055 0815 01       		.byte	0x1
 2056 0816 00       		.byte	0
 2057 0817 04       		.uleb128 0x4
 2058 0818 93030000 		.4byte	.LASF256
 2059 081c 06       		.byte	0x6
 2060 081d AB01     		.2byte	0x1ab
 2061 081f F3070000 		.4byte	0x7f3
 2062 0823 09       		.uleb128 0x9
 2063 0824 08       		.byte	0x8
 2064 0825 06       		.byte	0x6
 2065 0826 C701     		.2byte	0x1c7
 2066 0828 54080000 		.4byte	0x854
 2067 082c 10       		.uleb128 0x10
 2068 082d 76616C00 		.ascii	"val\000"
 2069 0831 06       		.byte	0x6
 2070 0832 CA01     		.2byte	0x1ca
 2071 0834 D0050000 		.4byte	0x5d0
 2072 0838 00       		.byte	0
 2073 0839 10       		.uleb128 0x10
 2074 083a 6C656E00 		.ascii	"len\000"
 2075 083e 06       		.byte	0x6
 2076 083f CD01     		.2byte	0x1cd
 2077 0841 77000000 		.4byte	0x77
 2078 0845 04       		.byte	0x4
 2079 0846 0A       		.uleb128 0xa
 2080 0847 F8210000 		.4byte	.LASF257
 2081 084b 06       		.byte	0x6
 2082 084c D401     		.2byte	0x1d4
 2083 084e 77000000 		.4byte	0x77
 2084 0852 06       		.byte	0x6
 2085 0853 00       		.byte	0
 2086 0854 04       		.uleb128 0x4
 2087 0855 70020000 		.4byte	.LASF258
 2088 0859 06       		.byte	0x6
 2089 085a D601     		.2byte	0x1d6
 2090 085c 23080000 		.4byte	0x823
ARM GAS  C:\Users\behrenb2\AppData\Local\Temp\ccNHrcVd.s 			page 74


 2091 0860 09       		.uleb128 0x9
 2092 0861 0C       		.byte	0xc
 2093 0862 06       		.byte	0x6
 2094 0863 D901     		.2byte	0x1d9
 2095 0865 84080000 		.4byte	0x884
 2096 0869 0A       		.uleb128 0xa
 2097 086a 6E1A0000 		.4byte	.LASF259
 2098 086e 06       		.byte	0x6
 2099 086f DC01     		.2byte	0x1dc
 2100 0871 54080000 		.4byte	0x854
 2101 0875 00       		.byte	0
 2102 0876 0A       		.uleb128 0xa
 2103 0877 BC140000 		.4byte	.LASF260
 2104 087b 06       		.byte	0x6
 2105 087c DF01     		.2byte	0x1df
 2106 087e E7070000 		.4byte	0x7e7
 2107 0882 08       		.byte	0x8
 2108 0883 00       		.byte	0
 2109 0884 04       		.uleb128 0x4
 2110 0885 A5060000 		.4byte	.LASF261
 2111 0889 06       		.byte	0x6
 2112 088a E101     		.2byte	0x1e1
 2113 088c 60080000 		.4byte	0x860
 2114 0890 09       		.uleb128 0x9
 2115 0891 04       		.byte	0x4
 2116 0892 06       		.byte	0x6
 2117 0893 EF01     		.2byte	0x1ef
 2118 0895 B4080000 		.4byte	0x8b4
 2119 0899 0A       		.uleb128 0xa
 2120 089a C31B0000 		.4byte	.LASF262
 2121 089e 06       		.byte	0x6
 2122 089f F201     		.2byte	0x1f2
 2123 08a1 17080000 		.4byte	0x817
 2124 08a5 00       		.byte	0
 2125 08a6 10       		.uleb128 0x10
 2126 08a7 6D747500 		.ascii	"mtu\000"
 2127 08ab 06       		.byte	0x6
 2128 08ac F501     		.2byte	0x1f5
 2129 08ae 77000000 		.4byte	0x77
 2130 08b2 02       		.byte	0x2
 2131 08b3 00       		.byte	0
 2132 08b4 04       		.uleb128 0x4
 2133 08b5 44150000 		.4byte	.LASF263
 2134 08b9 06       		.byte	0x6
 2135 08ba F701     		.2byte	0x1f7
 2136 08bc 90080000 		.4byte	0x890
 2137 08c0 09       		.uleb128 0x9
 2138 08c1 08       		.byte	0x8
 2139 08c2 06       		.byte	0x6
 2140 08c3 0502     		.2byte	0x205
 2141 08c5 F1080000 		.4byte	0x8f1
 2142 08c9 0A       		.uleb128 0xa
 2143 08ca BE180000 		.4byte	.LASF264
 2144 08ce 06       		.byte	0x6
 2145 08cf 0A02     		.2byte	0x20a
 2146 08d1 D0050000 		.4byte	0x5d0
 2147 08d5 00       		.byte	0
ARM GAS  C:\Users\behrenb2\AppData\Local\Temp\ccNHrcVd.s 			page 75


 2148 08d6 0A       		.uleb128 0xa
 2149 08d7 881A0000 		.4byte	.LASF265
 2150 08db 06       		.byte	0x6
 2151 08dc 0F02     		.2byte	0x20f
 2152 08de 77000000 		.4byte	0x77
 2153 08e2 04       		.byte	0x4
 2154 08e3 0A       		.uleb128 0xa
 2155 08e4 410D0000 		.4byte	.LASF266
 2156 08e8 06       		.byte	0x6
 2157 08e9 1602     		.2byte	0x216
 2158 08eb 77000000 		.4byte	0x77
 2159 08ef 06       		.byte	0x6
 2160 08f0 00       		.byte	0
 2161 08f1 04       		.uleb128 0x4
 2162 08f2 A4100000 		.4byte	.LASF267
 2163 08f6 06       		.byte	0x6
 2164 08f7 1802     		.2byte	0x218
 2165 08f9 C0080000 		.4byte	0x8c0
 2166 08fd 11       		.uleb128 0x11
 2167 08fe 04       		.byte	0x4
 2168 08ff 07       		.byte	0x7
 2169 0900 3A       		.byte	0x3a
 2170 0901 2A090000 		.4byte	0x92a
 2171 0905 12       		.uleb128 0x12
 2172 0906 BC140000 		.4byte	.LASF260
 2173 090a 07       		.byte	0x7
 2174 090b 3D       		.byte	0x3d
 2175 090c E7070000 		.4byte	0x7e7
 2176 0910 00       		.byte	0
 2177 0911 12       		.uleb128 0x12
 2178 0912 8B140000 		.4byte	.LASF268
 2179 0916 07       		.byte	0x7
 2180 0917 43       		.byte	0x43
 2181 0918 6B000000 		.4byte	0x6b
 2182 091c 02       		.byte	0x2
 2183 091d 12       		.uleb128 0x12
 2184 091e 34090000 		.4byte	.LASF269
 2185 0922 07       		.byte	0x7
 2186 0923 46       		.byte	0x46
 2187 0924 DB070000 		.4byte	0x7db
 2188 0928 03       		.byte	0x3
 2189 0929 00       		.byte	0
 2190 092a 0E       		.uleb128 0xe
 2191 092b 8A080000 		.4byte	.LASF270
 2192 092f 07       		.byte	0x7
 2193 0930 48       		.byte	0x48
 2194 0931 FD080000 		.4byte	0x8fd
 2195 0935 11       		.uleb128 0x11
 2196 0936 10       		.byte	0x10
 2197 0937 07       		.byte	0x7
 2198 0938 8A       		.byte	0x8a
 2199 0939 56090000 		.4byte	0x956
 2200 093d 12       		.uleb128 0x12
 2201 093e C31B0000 		.4byte	.LASF262
 2202 0942 07       		.byte	0x7
 2203 0943 8D       		.byte	0x8d
 2204 0944 17080000 		.4byte	0x817
ARM GAS  C:\Users\behrenb2\AppData\Local\Temp\ccNHrcVd.s 			page 76


 2205 0948 00       		.byte	0
 2206 0949 12       		.uleb128 0x12
 2207 094a B51B0000 		.4byte	.LASF271
 2208 094e 07       		.byte	0x7
 2209 094f 90       		.byte	0x90
 2210 0950 84080000 		.4byte	0x884
 2211 0954 04       		.byte	0x4
 2212 0955 00       		.byte	0
 2213 0956 0E       		.uleb128 0xe
 2214 0957 CF140000 		.4byte	.LASF272
 2215 095b 07       		.byte	0x7
 2216 095c 92       		.byte	0x92
 2217 095d 35090000 		.4byte	0x935
 2218 0961 04       		.uleb128 0x4
 2219 0962 33030000 		.4byte	.LASF273
 2220 0966 08       		.byte	0x8
 2221 0967 E601     		.2byte	0x1e6
 2222 0969 6D090000 		.4byte	0x96d
 2223 096d 0F       		.uleb128 0xf
 2224 096e 04       		.byte	0x4
 2225 096f 73090000 		.4byte	0x973
 2226 0973 13       		.uleb128 0x13
 2227 0974 83090000 		.4byte	0x983
 2228 0978 14       		.uleb128 0x14
 2229 0979 83000000 		.4byte	0x83
 2230 097d 14       		.uleb128 0x14
 2231 097e B0000000 		.4byte	0xb0
 2232 0982 00       		.byte	0
 2233 0983 0D       		.uleb128 0xd
 2234 0984 01       		.byte	0x1
 2235 0985 09       		.byte	0x9
 2236 0986 22       		.byte	0x22
 2237 0987 C8090000 		.4byte	0x9c8
 2238 098b 08       		.uleb128 0x8
 2239 098c 77190000 		.4byte	.LASF274
 2240 0990 00       		.sleb128 0
 2241 0991 08       		.uleb128 0x8
 2242 0992 390C0000 		.4byte	.LASF275
 2243 0996 01       		.sleb128 1
 2244 0997 08       		.uleb128 0x8
 2245 0998 71100000 		.4byte	.LASF276
 2246 099c 02       		.sleb128 2
 2247 099d 08       		.uleb128 0x8
 2248 099e EC050000 		.4byte	.LASF277
 2249 09a2 03       		.sleb128 3
 2250 09a3 08       		.uleb128 0x8
 2251 09a4 44030000 		.4byte	.LASF278
 2252 09a8 04       		.sleb128 4
 2253 09a9 08       		.uleb128 0x8
 2254 09aa DE0B0000 		.4byte	.LASF279
 2255 09ae 05       		.sleb128 5
 2256 09af 08       		.uleb128 0x8
 2257 09b0 610C0000 		.4byte	.LASF280
 2258 09b4 06       		.sleb128 6
 2259 09b5 08       		.uleb128 0x8
 2260 09b6 60150000 		.4byte	.LASF281
 2261 09ba 07       		.sleb128 7
ARM GAS  C:\Users\behrenb2\AppData\Local\Temp\ccNHrcVd.s 			page 77


 2262 09bb 08       		.uleb128 0x8
 2263 09bc 55120000 		.4byte	.LASF282
 2264 09c0 08       		.sleb128 8
 2265 09c1 08       		.uleb128 0x8
 2266 09c2 1B000000 		.4byte	.LASF283
 2267 09c6 09       		.sleb128 9
 2268 09c7 00       		.byte	0
 2269 09c8 0D       		.uleb128 0xd
 2270 09c9 01       		.byte	0x1
 2271 09ca 0A       		.byte	0xa
 2272 09cb 21       		.byte	0x21
 2273 09cc EF090000 		.4byte	0x9ef
 2274 09d0 08       		.uleb128 0x8
 2275 09d1 1D1E0000 		.4byte	.LASF284
 2276 09d5 00       		.sleb128 0
 2277 09d6 08       		.uleb128 0x8
 2278 09d7 741A0000 		.4byte	.LASF285
 2279 09db 01       		.sleb128 1
 2280 09dc 08       		.uleb128 0x8
 2281 09dd 26050000 		.4byte	.LASF286
 2282 09e1 02       		.sleb128 2
 2283 09e2 08       		.uleb128 0x8
 2284 09e3 89100000 		.4byte	.LASF287
 2285 09e7 03       		.sleb128 3
 2286 09e8 08       		.uleb128 0x8
 2287 09e9 901C0000 		.4byte	.LASF288
 2288 09ed 04       		.sleb128 4
 2289 09ee 00       		.byte	0
 2290 09ef 0D       		.uleb128 0xd
 2291 09f0 01       		.byte	0x1
 2292 09f1 0A       		.byte	0xa
 2293 09f2 2C       		.byte	0x2c
 2294 09f3 0A0A0000 		.4byte	0xa0a
 2295 09f7 08       		.uleb128 0x8
 2296 09f8 8D010000 		.4byte	.LASF289
 2297 09fc 00       		.sleb128 0
 2298 09fd 08       		.uleb128 0x8
 2299 09fe 0B010000 		.4byte	.LASF290
 2300 0a02 01       		.sleb128 1
 2301 0a03 08       		.uleb128 0x8
 2302 0a04 1A130000 		.4byte	.LASF291
 2303 0a08 02       		.sleb128 2
 2304 0a09 00       		.byte	0
 2305 0a0a 07       		.uleb128 0x7
 2306 0a0b 01       		.byte	0x1
 2307 0a0c 0B       		.byte	0xb
 2308 0a0d BF07     		.2byte	0x7bf
 2309 0a0f 320A0000 		.4byte	0xa32
 2310 0a13 08       		.uleb128 0x8
 2311 0a14 76080000 		.4byte	.LASF292
 2312 0a18 00       		.sleb128 0
 2313 0a19 08       		.uleb128 0x8
 2314 0a1a 03110000 		.4byte	.LASF293
 2315 0a1e 01       		.sleb128 1
 2316 0a1f 08       		.uleb128 0x8
 2317 0a20 E2210000 		.4byte	.LASF294
 2318 0a24 02       		.sleb128 2
ARM GAS  C:\Users\behrenb2\AppData\Local\Temp\ccNHrcVd.s 			page 78


 2319 0a25 08       		.uleb128 0x8
 2320 0a26 0C040000 		.4byte	.LASF295
 2321 0a2a 03       		.sleb128 3
 2322 0a2b 08       		.uleb128 0x8
 2323 0a2c D11C0000 		.4byte	.LASF296
 2324 0a30 04       		.sleb128 4
 2325 0a31 00       		.byte	0
 2326 0a32 04       		.uleb128 0x4
 2327 0a33 6F1E0000 		.4byte	.LASF297
 2328 0a37 0B       		.byte	0xb
 2329 0a38 CD07     		.2byte	0x7cd
 2330 0a3a 0A0A0000 		.4byte	0xa0a
 2331 0a3e 15       		.uleb128 0x15
 2332 0a3f 87000000 		.4byte	.LASF300
 2333 0a43 01       		.byte	0x1
 2334 0a44 E8       		.byte	0xe8
 2335 0a45 00000000 		.4byte	.LFB2
 2336 0a49 C0000000 		.4byte	.LFE2-.LFB2
 2337 0a4d 01       		.uleb128 0x1
 2338 0a4e 9C       		.byte	0x9c
 2339 0a4f 890A0000 		.4byte	0xa89
 2340 0a53 16       		.uleb128 0x16
 2341 0a54 A5000000 		.4byte	.LASF302
 2342 0a58 01       		.byte	0x1
 2343 0a59 E8       		.byte	0xe8
 2344 0a5a 890A0000 		.4byte	0xa89
 2345 0a5e 02       		.uleb128 0x2
 2346 0a5f 91       		.byte	0x91
 2347 0a60 64       		.sleb128 -28
 2348 0a61 17       		.uleb128 0x17
 2349 0a62 74210000 		.4byte	.LASF298
 2350 0a66 01       		.byte	0x1
 2351 0a67 EA       		.byte	0xea
 2352 0a68 DB070000 		.4byte	0x7db
 2353 0a6c 02       		.uleb128 0x2
 2354 0a6d 91       		.byte	0x91
 2355 0a6e 6F       		.sleb128 -17
 2356 0a6f 18       		.uleb128 0x18
 2357 0a70 80000000 		.4byte	.LBB2
 2358 0a74 2C000000 		.4byte	.LBE2-.LBB2
 2359 0a78 19       		.uleb128 0x19
 2360 0a79 2E160000 		.4byte	.LASF299
 2361 0a7d 01       		.byte	0x1
 2362 0a7e 9801     		.2byte	0x198
 2363 0a80 2A090000 		.4byte	0x92a
 2364 0a84 02       		.uleb128 0x2
 2365 0a85 91       		.byte	0x91
 2366 0a86 68       		.sleb128 -24
 2367 0a87 00       		.byte	0
 2368 0a88 00       		.byte	0
 2369 0a89 0F       		.uleb128 0xf
 2370 0a8a 04       		.byte	0x4
 2371 0a8b 56090000 		.4byte	0x956
 2372 0a8f 1A       		.uleb128 0x1a
 2373 0a90 1F140000 		.4byte	.LASF301
 2374 0a94 01       		.byte	0x1
 2375 0a95 B501     		.2byte	0x1b5
ARM GAS  C:\Users\behrenb2\AppData\Local\Temp\ccNHrcVd.s 			page 79


 2376 0a97 00000000 		.4byte	.LFB3
 2377 0a9b 30000000 		.4byte	.LFE3-.LFB3
 2378 0a9f 01       		.uleb128 0x1
 2379 0aa0 9C       		.byte	0x9c
 2380 0aa1 B50A0000 		.4byte	0xab5
 2381 0aa5 1B       		.uleb128 0x1b
 2382 0aa6 A5000000 		.4byte	.LASF302
 2383 0aaa 01       		.byte	0x1
 2384 0aab B501     		.2byte	0x1b5
 2385 0aad B50A0000 		.4byte	0xab5
 2386 0ab1 02       		.uleb128 0x2
 2387 0ab2 91       		.byte	0x91
 2388 0ab3 74       		.sleb128 -12
 2389 0ab4 00       		.byte	0
 2390 0ab5 0F       		.uleb128 0xf
 2391 0ab6 04       		.byte	0x4
 2392 0ab7 BB0A0000 		.4byte	0xabb
 2393 0abb 1C       		.uleb128 0x1c
 2394 0abc 17080000 		.4byte	0x817
 2395 0ac0 1D       		.uleb128 0x1d
 2396 0ac1 34120000 		.4byte	.LASF304
 2397 0ac5 01       		.byte	0x1
 2398 0ac6 F004     		.2byte	0x4f0
 2399 0ac8 00000000 		.4byte	.LFB4
 2400 0acc 18000000 		.4byte	.LFE4-.LFB4
 2401 0ad0 01       		.uleb128 0x1
 2402 0ad1 9C       		.byte	0x9c
 2403 0ad2 1E       		.uleb128 0x1e
 2404 0ad3 CE1B0000 		.4byte	.LASF303
 2405 0ad7 01       		.byte	0x1
 2406 0ad8 2805     		.2byte	0x528
 2407 0ada 00000000 		.4byte	.LFB5
 2408 0ade 0E000000 		.4byte	.LFE5-.LFB5
 2409 0ae2 01       		.uleb128 0x1
 2410 0ae3 9C       		.byte	0x9c
 2411 0ae4 F80A0000 		.4byte	0xaf8
 2412 0ae8 1B       		.uleb128 0x1b
 2413 0ae9 A5000000 		.4byte	.LASF302
 2414 0aed 01       		.byte	0x1
 2415 0aee 2805     		.2byte	0x528
 2416 0af0 F80A0000 		.4byte	0xaf8
 2417 0af4 02       		.uleb128 0x2
 2418 0af5 91       		.byte	0x91
 2419 0af6 74       		.sleb128 -12
 2420 0af7 00       		.byte	0
 2421 0af8 0F       		.uleb128 0xf
 2422 0af9 04       		.byte	0x4
 2423 0afa FE0A0000 		.4byte	0xafe
 2424 0afe 1C       		.uleb128 0x1c
 2425 0aff A3040000 		.4byte	0x4a3
 2426 0b03 1D       		.uleb128 0x1d
 2427 0b04 D4110000 		.4byte	.LASF305
 2428 0b08 01       		.byte	0x1
 2429 0b09 6005     		.2byte	0x560
 2430 0b0b 00000000 		.4byte	.LFB6
 2431 0b0f 08000000 		.4byte	.LFE6-.LFB6
 2432 0b13 01       		.uleb128 0x1
ARM GAS  C:\Users\behrenb2\AppData\Local\Temp\ccNHrcVd.s 			page 80


 2433 0b14 9C       		.byte	0x9c
 2434 0b15 1F       		.uleb128 0x1f
 2435 0b16 DB160000 		.4byte	.LASF330
 2436 0b1a 01       		.byte	0x1
 2437 0b1b 8C05     		.2byte	0x58c
 2438 0b1d 6B000000 		.4byte	0x6b
 2439 0b21 00000000 		.4byte	.LFB7
 2440 0b25 60000000 		.4byte	.LFE7-.LFB7
 2441 0b29 01       		.uleb128 0x1
 2442 0b2a 9C       		.byte	0x9c
 2443 0b2b 5B0B0000 		.4byte	0xb5b
 2444 0b2f 1B       		.uleb128 0x1b
 2445 0b30 290B0000 		.4byte	.LASF306
 2446 0b34 01       		.byte	0x1
 2447 0b35 8C05     		.2byte	0x58c
 2448 0b37 5B0B0000 		.4byte	0xb5b
 2449 0b3b 02       		.uleb128 0x2
 2450 0b3c 91       		.byte	0x91
 2451 0b3d 6C       		.sleb128 -20
 2452 0b3e 20       		.uleb128 0x20
 2453 0b3f 6900     		.ascii	"i\000"
 2454 0b41 01       		.byte	0x1
 2455 0b42 8E05     		.2byte	0x58e
 2456 0b44 6B000000 		.4byte	0x6b
 2457 0b48 02       		.uleb128 0x2
 2458 0b49 91       		.byte	0x91
 2459 0b4a 77       		.sleb128 -9
 2460 0b4b 19       		.uleb128 0x19
 2461 0b4c FF030000 		.4byte	.LASF307
 2462 0b50 01       		.byte	0x1
 2463 0b51 8F05     		.2byte	0x58f
 2464 0b53 6B000000 		.4byte	0x6b
 2465 0b57 02       		.uleb128 0x2
 2466 0b58 91       		.byte	0x91
 2467 0b59 76       		.sleb128 -10
 2468 0b5a 00       		.byte	0
 2469 0b5b 0F       		.uleb128 0xf
 2470 0b5c 04       		.byte	0x4
 2471 0b5d 610B0000 		.4byte	0xb61
 2472 0b61 1C       		.uleb128 0x1c
 2473 0b62 76040000 		.4byte	0x476
 2474 0b66 1E       		.uleb128 0x1e
 2475 0b67 521D0000 		.4byte	.LASF308
 2476 0b6b 01       		.byte	0x1
 2477 0b6c B005     		.2byte	0x5b0
 2478 0b6e 00000000 		.4byte	.LFB8
 2479 0b72 12000000 		.4byte	.LFE8-.LFB8
 2480 0b76 01       		.uleb128 0x1
 2481 0b77 9C       		.byte	0x9c
 2482 0b78 8C0B0000 		.4byte	0xb8c
 2483 0b7c 1B       		.uleb128 0x1b
 2484 0b7d 921F0000 		.4byte	.LASF309
 2485 0b81 01       		.byte	0x1
 2486 0b82 B005     		.2byte	0x5b0
 2487 0b84 77000000 		.4byte	0x77
 2488 0b88 02       		.uleb128 0x2
 2489 0b89 91       		.byte	0x91
ARM GAS  C:\Users\behrenb2\AppData\Local\Temp\ccNHrcVd.s 			page 81


 2490 0b8a 76       		.sleb128 -10
 2491 0b8b 00       		.byte	0
 2492 0b8c 1E       		.uleb128 0x1e
 2493 0b8d C40C0000 		.4byte	.LASF310
 2494 0b91 01       		.byte	0x1
 2495 0b92 CA05     		.2byte	0x5ca
 2496 0b94 00000000 		.4byte	.LFB9
 2497 0b98 0E000000 		.4byte	.LFE9-.LFB9
 2498 0b9c 01       		.uleb128 0x1
 2499 0b9d 9C       		.byte	0x9c
 2500 0b9e B20B0000 		.4byte	0xbb2
 2501 0ba2 1B       		.uleb128 0x1b
 2502 0ba3 A5000000 		.4byte	.LASF302
 2503 0ba7 01       		.byte	0x1
 2504 0ba8 CA05     		.2byte	0x5ca
 2505 0baa B20B0000 		.4byte	0xbb2
 2506 0bae 02       		.uleb128 0x2
 2507 0baf 91       		.byte	0x91
 2508 0bb0 74       		.sleb128 -12
 2509 0bb1 00       		.byte	0
 2510 0bb2 0F       		.uleb128 0xf
 2511 0bb3 04       		.byte	0x4
 2512 0bb4 B80B0000 		.4byte	0xbb8
 2513 0bb8 1C       		.uleb128 0x1c
 2514 0bb9 14060000 		.4byte	0x614
 2515 0bbd 21       		.uleb128 0x21
 2516 0bbe AA070000 		.4byte	.LASF331
 2517 0bc2 01       		.byte	0x1
 2518 0bc3 E405     		.2byte	0x5e4
 2519 0bc5 00000000 		.4byte	.LFB10
 2520 0bc9 04030000 		.4byte	.LFE10-.LFB10
 2521 0bcd 01       		.uleb128 0x1
 2522 0bce 9C       		.byte	0x9c
 2523 0bcf 7E0C0000 		.4byte	0xc7e
 2524 0bd3 1B       		.uleb128 0x1b
 2525 0bd4 35200000 		.4byte	.LASF311
 2526 0bd8 01       		.byte	0x1
 2527 0bd9 E405     		.2byte	0x5e4
 2528 0bdb 6B000000 		.4byte	0x6b
 2529 0bdf 02       		.uleb128 0x2
 2530 0be0 91       		.byte	0x91
 2531 0be1 67       		.sleb128 -25
 2532 0be2 1B       		.uleb128 0x1b
 2533 0be3 A5000000 		.4byte	.LASF302
 2534 0be7 01       		.byte	0x1
 2535 0be8 E405     		.2byte	0x5e4
 2536 0bea B0000000 		.4byte	0xb0
 2537 0bee 02       		.uleb128 0x2
 2538 0bef 91       		.byte	0x91
 2539 0bf0 60       		.sleb128 -32
 2540 0bf1 22       		.uleb128 0x22
 2541 0bf2 32000000 		.4byte	.LBB3
 2542 0bf6 34000000 		.4byte	.LBE3-.LBB3
 2543 0bfa 0E0C0000 		.4byte	0xc0e
 2544 0bfe 19       		.uleb128 0x19
 2545 0bff 2B1A0000 		.4byte	.LASF312
 2546 0c03 01       		.byte	0x1
ARM GAS  C:\Users\behrenb2\AppData\Local\Temp\ccNHrcVd.s 			page 82


 2547 0c04 F105     		.2byte	0x5f1
 2548 0c06 D7030000 		.4byte	0x3d7
 2549 0c0a 02       		.uleb128 0x2
 2550 0c0b 91       		.byte	0x91
 2551 0c0c 6C       		.sleb128 -20
 2552 0c0d 00       		.byte	0
 2553 0c0e 22       		.uleb128 0x22
 2554 0c0f BA000000 		.4byte	.LBB4
 2555 0c13 1A000000 		.4byte	.LBE4-.LBB4
 2556 0c17 2B0C0000 		.4byte	0xc2b
 2557 0c1b 19       		.uleb128 0x19
 2558 0c1c EA1C0000 		.4byte	.LASF313
 2559 0c20 01       		.byte	0x1
 2560 0c21 2306     		.2byte	0x623
 2561 0c23 7E0C0000 		.4byte	0xc7e
 2562 0c27 02       		.uleb128 0x2
 2563 0c28 91       		.byte	0x91
 2564 0c29 68       		.sleb128 -24
 2565 0c2a 00       		.byte	0
 2566 0c2b 22       		.uleb128 0x22
 2567 0c2c F0000000 		.4byte	.LBB5
 2568 0c30 3C000000 		.4byte	.LBE5-.LBB5
 2569 0c34 640C0000 		.4byte	0xc64
 2570 0c38 19       		.uleb128 0x19
 2571 0c39 83020000 		.4byte	.LASF314
 2572 0c3d 01       		.byte	0x1
 2573 0c3e 3B06     		.2byte	0x63b
 2574 0c40 8E0C0000 		.4byte	0xc8e
 2575 0c44 02       		.uleb128 0x2
 2576 0c45 91       		.byte	0x91
 2577 0c46 70       		.sleb128 -16
 2578 0c47 18       		.uleb128 0x18
 2579 0c48 04010000 		.4byte	.LBB6
 2580 0c4c 18000000 		.4byte	.LBE6-.LBB6
 2581 0c50 19       		.uleb128 0x19
 2582 0c51 7A160000 		.4byte	.LASF315
 2583 0c55 01       		.byte	0x1
 2584 0c56 4206     		.2byte	0x642
 2585 0c58 F1080000 		.4byte	0x8f1
 2586 0c5c 05       		.uleb128 0x5
 2587 0c5d 03       		.byte	0x3
 2588 0c5e 00000000 		.4byte	gPrepWriteReqMem.6505
 2589 0c62 00       		.byte	0
 2590 0c63 00       		.byte	0
 2591 0c64 18       		.uleb128 0x18
 2592 0c65 4E020000 		.4byte	.LBB7
 2593 0c69 38000000 		.4byte	.LBE7-.LBB7
 2594 0c6d 19       		.uleb128 0x19
 2595 0c6e 1C110000 		.4byte	.LASF316
 2596 0c72 01       		.byte	0x1
 2597 0c73 1907     		.2byte	0x719
 2598 0c75 77000000 		.4byte	0x77
 2599 0c79 02       		.uleb128 0x2
 2600 0c7a 91       		.byte	0x91
 2601 0c7b 76       		.sleb128 -10
 2602 0c7c 00       		.byte	0
 2603 0c7d 00       		.byte	0
ARM GAS  C:\Users\behrenb2\AppData\Local\Temp\ccNHrcVd.s 			page 83


 2604 0c7e 0B       		.uleb128 0xb
 2605 0c7f 6B000000 		.4byte	0x6b
 2606 0c83 8E0C0000 		.4byte	0xc8e
 2607 0c87 0C       		.uleb128 0xc
 2608 0c88 A9000000 		.4byte	0xa9
 2609 0c8c 01       		.byte	0x1
 2610 0c8d 00       		.byte	0
 2611 0c8e 0F       		.uleb128 0xf
 2612 0c8f 04       		.byte	0x4
 2613 0c90 36040000 		.4byte	0x436
 2614 0c94 23       		.uleb128 0x23
 2615 0c95 9D1A0000 		.4byte	.LASF317
 2616 0c99 08       		.byte	0x8
 2617 0c9a 7F02     		.2byte	0x27f
 2618 0c9c 61090000 		.4byte	0x961
 2619 0ca0 0B       		.uleb128 0xb
 2620 0ca1 6B000000 		.4byte	0x6b
 2621 0ca5 B10C0000 		.4byte	0xcb1
 2622 0ca9 24       		.uleb128 0x24
 2623 0caa A9000000 		.4byte	0xa9
 2624 0cae 170B     		.2byte	0xb17
 2625 0cb0 00       		.byte	0
 2626 0cb1 23       		.uleb128 0x23
 2627 0cb2 2F1F0000 		.4byte	.LASF318
 2628 0cb6 08       		.byte	0x8
 2629 0cb7 8402     		.2byte	0x284
 2630 0cb9 A00C0000 		.4byte	0xca0
 2631 0cbd 25       		.uleb128 0x25
 2632 0cbe 370B0000 		.4byte	.LASF319
 2633 0cc2 01       		.byte	0x1
 2634 0cc3 3D       		.byte	0x3d
 2635 0cc4 A4000000 		.4byte	0xa4
 2636 0cc8 05       		.uleb128 0x5
 2637 0cc9 03       		.byte	0x3
 2638 0cca 00000000 		.4byte	cyBle_eventHandlerFlag
 2639 0cce 23       		.uleb128 0x23
 2640 0ccf 03060000 		.4byte	.LASF320
 2641 0cd3 08       		.byte	0x8
 2642 0cd4 8702     		.2byte	0x287
 2643 0cd6 76040000 		.4byte	0x476
 2644 0cda 23       		.uleb128 0x23
 2645 0cdb 570D0000 		.4byte	.LASF321
 2646 0cdf 08       		.byte	0x8
 2647 0ce0 8802     		.2byte	0x288
 2648 0ce2 E60C0000 		.4byte	0xce6
 2649 0ce6 0F       		.uleb128 0xf
 2650 0ce7 04       		.byte	0x4
 2651 0ce8 76040000 		.4byte	0x476
 2652 0cec 25       		.uleb128 0x25
 2653 0ced 1F1D0000 		.4byte	.LASF322
 2654 0cf1 01       		.byte	0x1
 2655 0cf2 D0       		.byte	0xd0
 2656 0cf3 C4050000 		.4byte	0x5c4
 2657 0cf7 05       		.uleb128 0x5
 2658 0cf8 03       		.byte	0x3
 2659 0cf9 00000000 		.4byte	cyBle_authInfo
 2660 0cfd 23       		.uleb128 0x23
ARM GAS  C:\Users\behrenb2\AppData\Local\Temp\ccNHrcVd.s 			page 84


 2661 0cfe 841C0000 		.4byte	.LASF323
 2662 0d02 0B       		.byte	0xb
 2663 0d03 DA09     		.2byte	0x9da
 2664 0d05 320A0000 		.4byte	0xa32
 2665 0d09 25       		.uleb128 0x25
 2666 0d0a 500C0000 		.4byte	.LASF324
 2667 0d0e 01       		.byte	0x1
 2668 0d0f 3B       		.byte	0x3b
 2669 0d10 17080000 		.4byte	0x817
 2670 0d14 05       		.uleb128 0x5
 2671 0d15 03       		.byte	0x3
 2672 0d16 00000000 		.4byte	cyBle_connHandle
 2673 0d1a 25       		.uleb128 0x25
 2674 0d1b F2100000 		.4byte	.LASF325
 2675 0d1f 01       		.byte	0x1
 2676 0d20 3E       		.byte	0x3e
 2677 0d21 A4000000 		.4byte	0xa4
 2678 0d25 05       		.uleb128 0x5
 2679 0d26 03       		.byte	0x3
 2680 0d27 00000000 		.4byte	cyBle_busyStatus
 2681 0d2b 25       		.uleb128 0x25
 2682 0d2c 441F0000 		.4byte	.LASF326
 2683 0d30 01       		.byte	0x1
 2684 0d31 41       		.byte	0x41
 2685 0d32 6B000000 		.4byte	0x6b
 2686 0d36 05       		.uleb128 0x5
 2687 0d37 03       		.byte	0x3
 2688 0d38 00000000 		.4byte	cyBle_advertisingIntervalType
 2689 0d3c 00       		.byte	0
 2690              		.section	.debug_abbrev,"",%progbits
 2691              	.Ldebug_abbrev0:
 2692 0000 01       		.uleb128 0x1
 2693 0001 11       		.uleb128 0x11
 2694 0002 01       		.byte	0x1
 2695 0003 25       		.uleb128 0x25
 2696 0004 0E       		.uleb128 0xe
 2697 0005 13       		.uleb128 0x13
 2698 0006 0B       		.uleb128 0xb
 2699 0007 03       		.uleb128 0x3
 2700 0008 0E       		.uleb128 0xe
 2701 0009 1B       		.uleb128 0x1b
 2702 000a 0E       		.uleb128 0xe
 2703 000b 55       		.uleb128 0x55
 2704 000c 17       		.uleb128 0x17
 2705 000d 11       		.uleb128 0x11
 2706 000e 01       		.uleb128 0x1
 2707 000f 10       		.uleb128 0x10
 2708 0010 17       		.uleb128 0x17
 2709 0011 00       		.byte	0
 2710 0012 00       		.byte	0
 2711 0013 02       		.uleb128 0x2
 2712 0014 24       		.uleb128 0x24
 2713 0015 00       		.byte	0
 2714 0016 0B       		.uleb128 0xb
 2715 0017 0B       		.uleb128 0xb
 2716 0018 3E       		.uleb128 0x3e
 2717 0019 0B       		.uleb128 0xb
ARM GAS  C:\Users\behrenb2\AppData\Local\Temp\ccNHrcVd.s 			page 85


 2718 001a 03       		.uleb128 0x3
 2719 001b 0E       		.uleb128 0xe
 2720 001c 00       		.byte	0
 2721 001d 00       		.byte	0
 2722 001e 03       		.uleb128 0x3
 2723 001f 24       		.uleb128 0x24
 2724 0020 00       		.byte	0
 2725 0021 0B       		.uleb128 0xb
 2726 0022 0B       		.uleb128 0xb
 2727 0023 3E       		.uleb128 0x3e
 2728 0024 0B       		.uleb128 0xb
 2729 0025 03       		.uleb128 0x3
 2730 0026 08       		.uleb128 0x8
 2731 0027 00       		.byte	0
 2732 0028 00       		.byte	0
 2733 0029 04       		.uleb128 0x4
 2734 002a 16       		.uleb128 0x16
 2735 002b 00       		.byte	0
 2736 002c 03       		.uleb128 0x3
 2737 002d 0E       		.uleb128 0xe
 2738 002e 3A       		.uleb128 0x3a
 2739 002f 0B       		.uleb128 0xb
 2740 0030 3B       		.uleb128 0x3b
 2741 0031 05       		.uleb128 0x5
 2742 0032 49       		.uleb128 0x49
 2743 0033 13       		.uleb128 0x13
 2744 0034 00       		.byte	0
 2745 0035 00       		.byte	0
 2746 0036 05       		.uleb128 0x5
 2747 0037 35       		.uleb128 0x35
 2748 0038 00       		.byte	0
 2749 0039 49       		.uleb128 0x49
 2750 003a 13       		.uleb128 0x13
 2751 003b 00       		.byte	0
 2752 003c 00       		.byte	0
 2753 003d 06       		.uleb128 0x6
 2754 003e 0F       		.uleb128 0xf
 2755 003f 00       		.byte	0
 2756 0040 0B       		.uleb128 0xb
 2757 0041 0B       		.uleb128 0xb
 2758 0042 00       		.byte	0
 2759 0043 00       		.byte	0
 2760 0044 07       		.uleb128 0x7
 2761 0045 04       		.uleb128 0x4
 2762 0046 01       		.byte	0x1
 2763 0047 0B       		.uleb128 0xb
 2764 0048 0B       		.uleb128 0xb
 2765 0049 3A       		.uleb128 0x3a
 2766 004a 0B       		.uleb128 0xb
 2767 004b 3B       		.uleb128 0x3b
 2768 004c 05       		.uleb128 0x5
 2769 004d 01       		.uleb128 0x1
 2770 004e 13       		.uleb128 0x13
 2771 004f 00       		.byte	0
 2772 0050 00       		.byte	0
 2773 0051 08       		.uleb128 0x8
 2774 0052 28       		.uleb128 0x28
ARM GAS  C:\Users\behrenb2\AppData\Local\Temp\ccNHrcVd.s 			page 86


 2775 0053 00       		.byte	0
 2776 0054 03       		.uleb128 0x3
 2777 0055 0E       		.uleb128 0xe
 2778 0056 1C       		.uleb128 0x1c
 2779 0057 0D       		.uleb128 0xd
 2780 0058 00       		.byte	0
 2781 0059 00       		.byte	0
 2782 005a 09       		.uleb128 0x9
 2783 005b 13       		.uleb128 0x13
 2784 005c 01       		.byte	0x1
 2785 005d 0B       		.uleb128 0xb
 2786 005e 0B       		.uleb128 0xb
 2787 005f 3A       		.uleb128 0x3a
 2788 0060 0B       		.uleb128 0xb
 2789 0061 3B       		.uleb128 0x3b
 2790 0062 05       		.uleb128 0x5
 2791 0063 01       		.uleb128 0x1
 2792 0064 13       		.uleb128 0x13
 2793 0065 00       		.byte	0
 2794 0066 00       		.byte	0
 2795 0067 0A       		.uleb128 0xa
 2796 0068 0D       		.uleb128 0xd
 2797 0069 00       		.byte	0
 2798 006a 03       		.uleb128 0x3
 2799 006b 0E       		.uleb128 0xe
 2800 006c 3A       		.uleb128 0x3a
 2801 006d 0B       		.uleb128 0xb
 2802 006e 3B       		.uleb128 0x3b
 2803 006f 05       		.uleb128 0x5
 2804 0070 49       		.uleb128 0x49
 2805 0071 13       		.uleb128 0x13
 2806 0072 38       		.uleb128 0x38
 2807 0073 0B       		.uleb128 0xb
 2808 0074 00       		.byte	0
 2809 0075 00       		.byte	0
 2810 0076 0B       		.uleb128 0xb
 2811 0077 01       		.uleb128 0x1
 2812 0078 01       		.byte	0x1
 2813 0079 49       		.uleb128 0x49
 2814 007a 13       		.uleb128 0x13
 2815 007b 01       		.uleb128 0x1
 2816 007c 13       		.uleb128 0x13
 2817 007d 00       		.byte	0
 2818 007e 00       		.byte	0
 2819 007f 0C       		.uleb128 0xc
 2820 0080 21       		.uleb128 0x21
 2821 0081 00       		.byte	0
 2822 0082 49       		.uleb128 0x49
 2823 0083 13       		.uleb128 0x13
 2824 0084 2F       		.uleb128 0x2f
 2825 0085 0B       		.uleb128 0xb
 2826 0086 00       		.byte	0
 2827 0087 00       		.byte	0
 2828 0088 0D       		.uleb128 0xd
 2829 0089 04       		.uleb128 0x4
 2830 008a 01       		.byte	0x1
 2831 008b 0B       		.uleb128 0xb
ARM GAS  C:\Users\behrenb2\AppData\Local\Temp\ccNHrcVd.s 			page 87


 2832 008c 0B       		.uleb128 0xb
 2833 008d 3A       		.uleb128 0x3a
 2834 008e 0B       		.uleb128 0xb
 2835 008f 3B       		.uleb128 0x3b
 2836 0090 0B       		.uleb128 0xb
 2837 0091 01       		.uleb128 0x1
 2838 0092 13       		.uleb128 0x13
 2839 0093 00       		.byte	0
 2840 0094 00       		.byte	0
 2841 0095 0E       		.uleb128 0xe
 2842 0096 16       		.uleb128 0x16
 2843 0097 00       		.byte	0
 2844 0098 03       		.uleb128 0x3
 2845 0099 0E       		.uleb128 0xe
 2846 009a 3A       		.uleb128 0x3a
 2847 009b 0B       		.uleb128 0xb
 2848 009c 3B       		.uleb128 0x3b
 2849 009d 0B       		.uleb128 0xb
 2850 009e 49       		.uleb128 0x49
 2851 009f 13       		.uleb128 0x13
 2852 00a0 00       		.byte	0
 2853 00a1 00       		.byte	0
 2854 00a2 0F       		.uleb128 0xf
 2855 00a3 0F       		.uleb128 0xf
 2856 00a4 00       		.byte	0
 2857 00a5 0B       		.uleb128 0xb
 2858 00a6 0B       		.uleb128 0xb
 2859 00a7 49       		.uleb128 0x49
 2860 00a8 13       		.uleb128 0x13
 2861 00a9 00       		.byte	0
 2862 00aa 00       		.byte	0
 2863 00ab 10       		.uleb128 0x10
 2864 00ac 0D       		.uleb128 0xd
 2865 00ad 00       		.byte	0
 2866 00ae 03       		.uleb128 0x3
 2867 00af 08       		.uleb128 0x8
 2868 00b0 3A       		.uleb128 0x3a
 2869 00b1 0B       		.uleb128 0xb
 2870 00b2 3B       		.uleb128 0x3b
 2871 00b3 05       		.uleb128 0x5
 2872 00b4 49       		.uleb128 0x49
 2873 00b5 13       		.uleb128 0x13
 2874 00b6 38       		.uleb128 0x38
 2875 00b7 0B       		.uleb128 0xb
 2876 00b8 00       		.byte	0
 2877 00b9 00       		.byte	0
 2878 00ba 11       		.uleb128 0x11
 2879 00bb 13       		.uleb128 0x13
 2880 00bc 01       		.byte	0x1
 2881 00bd 0B       		.uleb128 0xb
 2882 00be 0B       		.uleb128 0xb
 2883 00bf 3A       		.uleb128 0x3a
 2884 00c0 0B       		.uleb128 0xb
 2885 00c1 3B       		.uleb128 0x3b
 2886 00c2 0B       		.uleb128 0xb
 2887 00c3 01       		.uleb128 0x1
 2888 00c4 13       		.uleb128 0x13
ARM GAS  C:\Users\behrenb2\AppData\Local\Temp\ccNHrcVd.s 			page 88


 2889 00c5 00       		.byte	0
 2890 00c6 00       		.byte	0
 2891 00c7 12       		.uleb128 0x12
 2892 00c8 0D       		.uleb128 0xd
 2893 00c9 00       		.byte	0
 2894 00ca 03       		.uleb128 0x3
 2895 00cb 0E       		.uleb128 0xe
 2896 00cc 3A       		.uleb128 0x3a
 2897 00cd 0B       		.uleb128 0xb
 2898 00ce 3B       		.uleb128 0x3b
 2899 00cf 0B       		.uleb128 0xb
 2900 00d0 49       		.uleb128 0x49
 2901 00d1 13       		.uleb128 0x13
 2902 00d2 38       		.uleb128 0x38
 2903 00d3 0B       		.uleb128 0xb
 2904 00d4 00       		.byte	0
 2905 00d5 00       		.byte	0
 2906 00d6 13       		.uleb128 0x13
 2907 00d7 15       		.uleb128 0x15
 2908 00d8 01       		.byte	0x1
 2909 00d9 27       		.uleb128 0x27
 2910 00da 19       		.uleb128 0x19
 2911 00db 01       		.uleb128 0x1
 2912 00dc 13       		.uleb128 0x13
 2913 00dd 00       		.byte	0
 2914 00de 00       		.byte	0
 2915 00df 14       		.uleb128 0x14
 2916 00e0 05       		.uleb128 0x5
 2917 00e1 00       		.byte	0
 2918 00e2 49       		.uleb128 0x49
 2919 00e3 13       		.uleb128 0x13
 2920 00e4 00       		.byte	0
 2921 00e5 00       		.byte	0
 2922 00e6 15       		.uleb128 0x15
 2923 00e7 2E       		.uleb128 0x2e
 2924 00e8 01       		.byte	0x1
 2925 00e9 03       		.uleb128 0x3
 2926 00ea 0E       		.uleb128 0xe
 2927 00eb 3A       		.uleb128 0x3a
 2928 00ec 0B       		.uleb128 0xb
 2929 00ed 3B       		.uleb128 0x3b
 2930 00ee 0B       		.uleb128 0xb
 2931 00ef 27       		.uleb128 0x27
 2932 00f0 19       		.uleb128 0x19
 2933 00f1 11       		.uleb128 0x11
 2934 00f2 01       		.uleb128 0x1
 2935 00f3 12       		.uleb128 0x12
 2936 00f4 06       		.uleb128 0x6
 2937 00f5 40       		.uleb128 0x40
 2938 00f6 18       		.uleb128 0x18
 2939 00f7 9642     		.uleb128 0x2116
 2940 00f9 19       		.uleb128 0x19
 2941 00fa 01       		.uleb128 0x1
 2942 00fb 13       		.uleb128 0x13
 2943 00fc 00       		.byte	0
 2944 00fd 00       		.byte	0
 2945 00fe 16       		.uleb128 0x16
ARM GAS  C:\Users\behrenb2\AppData\Local\Temp\ccNHrcVd.s 			page 89


 2946 00ff 05       		.uleb128 0x5
 2947 0100 00       		.byte	0
 2948 0101 03       		.uleb128 0x3
 2949 0102 0E       		.uleb128 0xe
 2950 0103 3A       		.uleb128 0x3a
 2951 0104 0B       		.uleb128 0xb
 2952 0105 3B       		.uleb128 0x3b
 2953 0106 0B       		.uleb128 0xb
 2954 0107 49       		.uleb128 0x49
 2955 0108 13       		.uleb128 0x13
 2956 0109 02       		.uleb128 0x2
 2957 010a 18       		.uleb128 0x18
 2958 010b 00       		.byte	0
 2959 010c 00       		.byte	0
 2960 010d 17       		.uleb128 0x17
 2961 010e 34       		.uleb128 0x34
 2962 010f 00       		.byte	0
 2963 0110 03       		.uleb128 0x3
 2964 0111 0E       		.uleb128 0xe
 2965 0112 3A       		.uleb128 0x3a
 2966 0113 0B       		.uleb128 0xb
 2967 0114 3B       		.uleb128 0x3b
 2968 0115 0B       		.uleb128 0xb
 2969 0116 49       		.uleb128 0x49
 2970 0117 13       		.uleb128 0x13
 2971 0118 02       		.uleb128 0x2
 2972 0119 18       		.uleb128 0x18
 2973 011a 00       		.byte	0
 2974 011b 00       		.byte	0
 2975 011c 18       		.uleb128 0x18
 2976 011d 0B       		.uleb128 0xb
 2977 011e 01       		.byte	0x1
 2978 011f 11       		.uleb128 0x11
 2979 0120 01       		.uleb128 0x1
 2980 0121 12       		.uleb128 0x12
 2981 0122 06       		.uleb128 0x6
 2982 0123 00       		.byte	0
 2983 0124 00       		.byte	0
 2984 0125 19       		.uleb128 0x19
 2985 0126 34       		.uleb128 0x34
 2986 0127 00       		.byte	0
 2987 0128 03       		.uleb128 0x3
 2988 0129 0E       		.uleb128 0xe
 2989 012a 3A       		.uleb128 0x3a
 2990 012b 0B       		.uleb128 0xb
 2991 012c 3B       		.uleb128 0x3b
 2992 012d 05       		.uleb128 0x5
 2993 012e 49       		.uleb128 0x49
 2994 012f 13       		.uleb128 0x13
 2995 0130 02       		.uleb128 0x2
 2996 0131 18       		.uleb128 0x18
 2997 0132 00       		.byte	0
 2998 0133 00       		.byte	0
 2999 0134 1A       		.uleb128 0x1a
 3000 0135 2E       		.uleb128 0x2e
 3001 0136 01       		.byte	0x1
 3002 0137 03       		.uleb128 0x3
ARM GAS  C:\Users\behrenb2\AppData\Local\Temp\ccNHrcVd.s 			page 90


 3003 0138 0E       		.uleb128 0xe
 3004 0139 3A       		.uleb128 0x3a
 3005 013a 0B       		.uleb128 0xb
 3006 013b 3B       		.uleb128 0x3b
 3007 013c 05       		.uleb128 0x5
 3008 013d 27       		.uleb128 0x27
 3009 013e 19       		.uleb128 0x19
 3010 013f 11       		.uleb128 0x11
 3011 0140 01       		.uleb128 0x1
 3012 0141 12       		.uleb128 0x12
 3013 0142 06       		.uleb128 0x6
 3014 0143 40       		.uleb128 0x40
 3015 0144 18       		.uleb128 0x18
 3016 0145 9642     		.uleb128 0x2116
 3017 0147 19       		.uleb128 0x19
 3018 0148 01       		.uleb128 0x1
 3019 0149 13       		.uleb128 0x13
 3020 014a 00       		.byte	0
 3021 014b 00       		.byte	0
 3022 014c 1B       		.uleb128 0x1b
 3023 014d 05       		.uleb128 0x5
 3024 014e 00       		.byte	0
 3025 014f 03       		.uleb128 0x3
 3026 0150 0E       		.uleb128 0xe
 3027 0151 3A       		.uleb128 0x3a
 3028 0152 0B       		.uleb128 0xb
 3029 0153 3B       		.uleb128 0x3b
 3030 0154 05       		.uleb128 0x5
 3031 0155 49       		.uleb128 0x49
 3032 0156 13       		.uleb128 0x13
 3033 0157 02       		.uleb128 0x2
 3034 0158 18       		.uleb128 0x18
 3035 0159 00       		.byte	0
 3036 015a 00       		.byte	0
 3037 015b 1C       		.uleb128 0x1c
 3038 015c 26       		.uleb128 0x26
 3039 015d 00       		.byte	0
 3040 015e 49       		.uleb128 0x49
 3041 015f 13       		.uleb128 0x13
 3042 0160 00       		.byte	0
 3043 0161 00       		.byte	0
 3044 0162 1D       		.uleb128 0x1d
 3045 0163 2E       		.uleb128 0x2e
 3046 0164 00       		.byte	0
 3047 0165 03       		.uleb128 0x3
 3048 0166 0E       		.uleb128 0xe
 3049 0167 3A       		.uleb128 0x3a
 3050 0168 0B       		.uleb128 0xb
 3051 0169 3B       		.uleb128 0x3b
 3052 016a 05       		.uleb128 0x5
 3053 016b 27       		.uleb128 0x27
 3054 016c 19       		.uleb128 0x19
 3055 016d 11       		.uleb128 0x11
 3056 016e 01       		.uleb128 0x1
 3057 016f 12       		.uleb128 0x12
 3058 0170 06       		.uleb128 0x6
 3059 0171 40       		.uleb128 0x40
ARM GAS  C:\Users\behrenb2\AppData\Local\Temp\ccNHrcVd.s 			page 91


 3060 0172 18       		.uleb128 0x18
 3061 0173 9742     		.uleb128 0x2117
 3062 0175 19       		.uleb128 0x19
 3063 0176 00       		.byte	0
 3064 0177 00       		.byte	0
 3065 0178 1E       		.uleb128 0x1e
 3066 0179 2E       		.uleb128 0x2e
 3067 017a 01       		.byte	0x1
 3068 017b 03       		.uleb128 0x3
 3069 017c 0E       		.uleb128 0xe
 3070 017d 3A       		.uleb128 0x3a
 3071 017e 0B       		.uleb128 0xb
 3072 017f 3B       		.uleb128 0x3b
 3073 0180 05       		.uleb128 0x5
 3074 0181 27       		.uleb128 0x27
 3075 0182 19       		.uleb128 0x19
 3076 0183 11       		.uleb128 0x11
 3077 0184 01       		.uleb128 0x1
 3078 0185 12       		.uleb128 0x12
 3079 0186 06       		.uleb128 0x6
 3080 0187 40       		.uleb128 0x40
 3081 0188 18       		.uleb128 0x18
 3082 0189 9742     		.uleb128 0x2117
 3083 018b 19       		.uleb128 0x19
 3084 018c 01       		.uleb128 0x1
 3085 018d 13       		.uleb128 0x13
 3086 018e 00       		.byte	0
 3087 018f 00       		.byte	0
 3088 0190 1F       		.uleb128 0x1f
 3089 0191 2E       		.uleb128 0x2e
 3090 0192 01       		.byte	0x1
 3091 0193 3F       		.uleb128 0x3f
 3092 0194 19       		.uleb128 0x19
 3093 0195 03       		.uleb128 0x3
 3094 0196 0E       		.uleb128 0xe
 3095 0197 3A       		.uleb128 0x3a
 3096 0198 0B       		.uleb128 0xb
 3097 0199 3B       		.uleb128 0x3b
 3098 019a 05       		.uleb128 0x5
 3099 019b 27       		.uleb128 0x27
 3100 019c 19       		.uleb128 0x19
 3101 019d 49       		.uleb128 0x49
 3102 019e 13       		.uleb128 0x13
 3103 019f 11       		.uleb128 0x11
 3104 01a0 01       		.uleb128 0x1
 3105 01a1 12       		.uleb128 0x12
 3106 01a2 06       		.uleb128 0x6
 3107 01a3 40       		.uleb128 0x40
 3108 01a4 18       		.uleb128 0x18
 3109 01a5 9742     		.uleb128 0x2117
 3110 01a7 19       		.uleb128 0x19
 3111 01a8 01       		.uleb128 0x1
 3112 01a9 13       		.uleb128 0x13
 3113 01aa 00       		.byte	0
 3114 01ab 00       		.byte	0
 3115 01ac 20       		.uleb128 0x20
 3116 01ad 34       		.uleb128 0x34
ARM GAS  C:\Users\behrenb2\AppData\Local\Temp\ccNHrcVd.s 			page 92


 3117 01ae 00       		.byte	0
 3118 01af 03       		.uleb128 0x3
 3119 01b0 08       		.uleb128 0x8
 3120 01b1 3A       		.uleb128 0x3a
 3121 01b2 0B       		.uleb128 0xb
 3122 01b3 3B       		.uleb128 0x3b
 3123 01b4 05       		.uleb128 0x5
 3124 01b5 49       		.uleb128 0x49
 3125 01b6 13       		.uleb128 0x13
 3126 01b7 02       		.uleb128 0x2
 3127 01b8 18       		.uleb128 0x18
 3128 01b9 00       		.byte	0
 3129 01ba 00       		.byte	0
 3130 01bb 21       		.uleb128 0x21
 3131 01bc 2E       		.uleb128 0x2e
 3132 01bd 01       		.byte	0x1
 3133 01be 3F       		.uleb128 0x3f
 3134 01bf 19       		.uleb128 0x19
 3135 01c0 03       		.uleb128 0x3
 3136 01c1 0E       		.uleb128 0xe
 3137 01c2 3A       		.uleb128 0x3a
 3138 01c3 0B       		.uleb128 0xb
 3139 01c4 3B       		.uleb128 0x3b
 3140 01c5 05       		.uleb128 0x5
 3141 01c6 27       		.uleb128 0x27
 3142 01c7 19       		.uleb128 0x19
 3143 01c8 11       		.uleb128 0x11
 3144 01c9 01       		.uleb128 0x1
 3145 01ca 12       		.uleb128 0x12
 3146 01cb 06       		.uleb128 0x6
 3147 01cc 40       		.uleb128 0x40
 3148 01cd 18       		.uleb128 0x18
 3149 01ce 9642     		.uleb128 0x2116
 3150 01d0 19       		.uleb128 0x19
 3151 01d1 01       		.uleb128 0x1
 3152 01d2 13       		.uleb128 0x13
 3153 01d3 00       		.byte	0
 3154 01d4 00       		.byte	0
 3155 01d5 22       		.uleb128 0x22
 3156 01d6 0B       		.uleb128 0xb
 3157 01d7 01       		.byte	0x1
 3158 01d8 11       		.uleb128 0x11
 3159 01d9 01       		.uleb128 0x1
 3160 01da 12       		.uleb128 0x12
 3161 01db 06       		.uleb128 0x6
 3162 01dc 01       		.uleb128 0x1
 3163 01dd 13       		.uleb128 0x13
 3164 01de 00       		.byte	0
 3165 01df 00       		.byte	0
 3166 01e0 23       		.uleb128 0x23
 3167 01e1 34       		.uleb128 0x34
 3168 01e2 00       		.byte	0
 3169 01e3 03       		.uleb128 0x3
 3170 01e4 0E       		.uleb128 0xe
 3171 01e5 3A       		.uleb128 0x3a
 3172 01e6 0B       		.uleb128 0xb
 3173 01e7 3B       		.uleb128 0x3b
ARM GAS  C:\Users\behrenb2\AppData\Local\Temp\ccNHrcVd.s 			page 93


 3174 01e8 05       		.uleb128 0x5
 3175 01e9 49       		.uleb128 0x49
 3176 01ea 13       		.uleb128 0x13
 3177 01eb 3F       		.uleb128 0x3f
 3178 01ec 19       		.uleb128 0x19
 3179 01ed 3C       		.uleb128 0x3c
 3180 01ee 19       		.uleb128 0x19
 3181 01ef 00       		.byte	0
 3182 01f0 00       		.byte	0
 3183 01f1 24       		.uleb128 0x24
 3184 01f2 21       		.uleb128 0x21
 3185 01f3 00       		.byte	0
 3186 01f4 49       		.uleb128 0x49
 3187 01f5 13       		.uleb128 0x13
 3188 01f6 2F       		.uleb128 0x2f
 3189 01f7 05       		.uleb128 0x5
 3190 01f8 00       		.byte	0
 3191 01f9 00       		.byte	0
 3192 01fa 25       		.uleb128 0x25
 3193 01fb 34       		.uleb128 0x34
 3194 01fc 00       		.byte	0
 3195 01fd 03       		.uleb128 0x3
 3196 01fe 0E       		.uleb128 0xe
 3197 01ff 3A       		.uleb128 0x3a
 3198 0200 0B       		.uleb128 0xb
 3199 0201 3B       		.uleb128 0x3b
 3200 0202 0B       		.uleb128 0xb
 3201 0203 49       		.uleb128 0x49
 3202 0204 13       		.uleb128 0x13
 3203 0205 3F       		.uleb128 0x3f
 3204 0206 19       		.uleb128 0x19
 3205 0207 02       		.uleb128 0x2
 3206 0208 18       		.uleb128 0x18
 3207 0209 00       		.byte	0
 3208 020a 00       		.byte	0
 3209 020b 00       		.byte	0
 3210              		.section	.debug_aranges,"",%progbits
 3211 0000 5C000000 		.4byte	0x5c
 3212 0004 0200     		.2byte	0x2
 3213 0006 00000000 		.4byte	.Ldebug_info0
 3214 000a 04       		.byte	0x4
 3215 000b 00       		.byte	0
 3216 000c 0000     		.2byte	0
 3217 000e 0000     		.2byte	0
 3218 0010 00000000 		.4byte	.LFB2
 3219 0014 C0000000 		.4byte	.LFE2-.LFB2
 3220 0018 00000000 		.4byte	.LFB3
 3221 001c 30000000 		.4byte	.LFE3-.LFB3
 3222 0020 00000000 		.4byte	.LFB4
 3223 0024 18000000 		.4byte	.LFE4-.LFB4
 3224 0028 00000000 		.4byte	.LFB5
 3225 002c 0E000000 		.4byte	.LFE5-.LFB5
 3226 0030 00000000 		.4byte	.LFB6
 3227 0034 08000000 		.4byte	.LFE6-.LFB6
 3228 0038 00000000 		.4byte	.LFB7
 3229 003c 60000000 		.4byte	.LFE7-.LFB7
 3230 0040 00000000 		.4byte	.LFB8
ARM GAS  C:\Users\behrenb2\AppData\Local\Temp\ccNHrcVd.s 			page 94


 3231 0044 12000000 		.4byte	.LFE8-.LFB8
 3232 0048 00000000 		.4byte	.LFB9
 3233 004c 0E000000 		.4byte	.LFE9-.LFB9
 3234 0050 00000000 		.4byte	.LFB10
 3235 0054 04030000 		.4byte	.LFE10-.LFB10
 3236 0058 00000000 		.4byte	0
 3237 005c 00000000 		.4byte	0
 3238              		.section	.debug_ranges,"",%progbits
 3239              	.Ldebug_ranges0:
 3240 0000 00000000 		.4byte	.LFB2
 3241 0004 C0000000 		.4byte	.LFE2
 3242 0008 00000000 		.4byte	.LFB3
 3243 000c 30000000 		.4byte	.LFE3
 3244 0010 00000000 		.4byte	.LFB4
 3245 0014 18000000 		.4byte	.LFE4
 3246 0018 00000000 		.4byte	.LFB5
 3247 001c 0E000000 		.4byte	.LFE5
 3248 0020 00000000 		.4byte	.LFB6
 3249 0024 08000000 		.4byte	.LFE6
 3250 0028 00000000 		.4byte	.LFB7
 3251 002c 60000000 		.4byte	.LFE7
 3252 0030 00000000 		.4byte	.LFB8
 3253 0034 12000000 		.4byte	.LFE8
 3254 0038 00000000 		.4byte	.LFB9
 3255 003c 0E000000 		.4byte	.LFE9
 3256 0040 00000000 		.4byte	.LFB10
 3257 0044 04030000 		.4byte	.LFE10
 3258 0048 00000000 		.4byte	0
 3259 004c 00000000 		.4byte	0
 3260              		.section	.debug_line,"",%progbits
 3261              	.Ldebug_line0:
 3262 0000 44020000 		.section	.debug_str,"MS",%progbits,1
 3262      0200EC00 
 3262      00000201 
 3262      FB0E0D00 
 3262      01010101 
 3263              	.LASF241:
 3264 0000 4359424C 		.ascii	"CYBLE_GATT_ERR_INVALID_CRC\000"
 3264      455F4741 
 3264      54545F45 
 3264      52525F49 
 3264      4E56414C 
 3265              	.LASF283:
 3266 001b 4359424C 		.ascii	"CYBLE_DIS_CHAR_COUNT\000"
 3266      455F4449 
 3266      535F4348 
 3266      41525F43 
 3266      4F554E54 
 3267              	.LASF15:
 3268 0030 73697A65 		.ascii	"sizetype\000"
 3268      74797065 
 3268      00
 3269              	.LASF176:
 3270 0039 656B6579 		.ascii	"ekeySize\000"
 3270      53697A65 
 3270      00
 3271              	.LASF211:
ARM GAS  C:\Users\behrenb2\AppData\Local\Temp\ccNHrcVd.s 			page 95


 3272 0042 4359424C 		.ascii	"CYBLE_GATT_HANDLE_VALUE_CNF\000"
 3272      455F4741 
 3272      54545F48 
 3272      414E444C 
 3272      455F5641 
 3273              	.LASF36:
 3274 005e 4359424C 		.ascii	"CYBLE_EVT_GAP_NUMERIC_COMPARISON_REQUEST\000"
 3274      455F4556 
 3274      545F4741 
 3274      505F4E55 
 3274      4D455249 
 3275              	.LASF300:
 3276 0087 4379426C 		.ascii	"CyBle_WriteReqHandler\000"
 3276      655F5772 
 3276      69746552 
 3276      65714861 
 3276      6E646C65 
 3277              	.LASF134:
 3278 009d 72657175 		.ascii	"request\000"
 3278      65737400 
 3279              	.LASF302:
 3280 00a5 6576656E 		.ascii	"eventParam\000"
 3280      74506172 
 3280      616D00
 3281              	.LASF30:
 3282 00b0 4359424C 		.ascii	"CYBLE_EVT_GAP_DEVICE_CONNECTED\000"
 3282      455F4556 
 3282      545F4741 
 3282      505F4445 
 3282      56494345 
 3283              	.LASF154:
 3284 00cf 4359424C 		.ascii	"CYBLE_GAP_IOCAP_NOINPUT_NOOUTPUT\000"
 3284      455F4741 
 3284      505F494F 
 3284      4341505F 
 3284      4E4F494E 
 3285              	.LASF44:
 3286 00f0 4359424C 		.ascii	"CYBLE_EVT_GATT_CONNECT_IND\000"
 3286      455F4556 
 3286      545F4741 
 3286      54545F43 
 3286      4F4E4E45 
 3287              	.LASF290:
 3288 010b 4359424C 		.ascii	"CYBLE_HTS_VRD\000"
 3288      455F4854 
 3288      535F5652 
 3288      4400
 3289              	.LASF204:
 3290 0119 4359424C 		.ascii	"CYBLE_GATT_WRITE_CMD\000"
 3290      455F4741 
 3290      54545F57 
 3290      52495445 
 3290      5F434D44 
 3291              	.LASF11:
 3292 012e 75696E74 		.ascii	"uint32\000"
 3292      333200
 3293              	.LASF128:
ARM GAS  C:\Users\behrenb2\AppData\Local\Temp\ccNHrcVd.s 			page 96


 3294 0135 626C6550 		.ascii	"blePwrLevelInDbm\000"
 3294      77724C65 
 3294      76656C49 
 3294      6E44626D 
 3294      00
 3295              	.LASF216:
 3296 0146 4359424C 		.ascii	"CYBLE_GATT_ERR_READ_NOT_PERMITTED\000"
 3296      455F4741 
 3296      54545F45 
 3296      52525F52 
 3296      4541445F 
 3297              	.LASF231:
 3298 0168 4359424C 		.ascii	"CYBLE_GATT_ERR_INSUFFICIENT_RESOURCE\000"
 3298      455F4741 
 3298      54545F45 
 3298      52525F49 
 3298      4E535546 
 3299              	.LASF289:
 3300 018d 4359424C 		.ascii	"CYBLE_HTS_CCCD\000"
 3300      455F4854 
 3300      535F4343 
 3300      434400
 3301              	.LASF205:
 3302 019c 4359424C 		.ascii	"CYBLE_GATT_PREPARE_WRITE_REQ\000"
 3302      455F4741 
 3302      54545F50 
 3302      52455041 
 3302      52455F57 
 3303              	.LASF230:
 3304 01b9 4359424C 		.ascii	"CYBLE_GATT_ERR_UNSUPPORTED_GROUP_TYPE\000"
 3304      455F4741 
 3304      54545F45 
 3304      52525F55 
 3304      4E535550 
 3305              	.LASF98:
 3306 01df 4359424C 		.ascii	"CYBLE_ERROR_L2CAP_CONNECTION_ENTITY_NOT_FOUND\000"
 3306      455F4552 
 3306      524F525F 
 3306      4C324341 
 3306      505F434F 
 3307              	.LASF104:
 3308 020d 4359424C 		.ascii	"CYBLE_ERROR_MIC_AUTH_FAILED\000"
 3308      455F4552 
 3308      524F525F 
 3308      4D49435F 
 3308      41555448 
 3309              	.LASF64:
 3310 0229 4359424C 		.ascii	"CYBLE_EVT_GATTS_DATA_SIGNED_CMD_REQ\000"
 3310      455F4556 
 3310      545F4741 
 3310      5454535F 
 3310      44415441 
 3311              	.LASF76:
 3312 024d 4359424C 		.ascii	"CYBLE_EVT_L2CAP_CBFC_RX_CREDIT_IND\000"
 3312      455F4556 
 3312      545F4C32 
 3312      4341505F 
ARM GAS  C:\Users\behrenb2\AppData\Local\Temp\ccNHrcVd.s 			page 97


 3312      43424643 
 3313              	.LASF258:
 3314 0270 4359424C 		.ascii	"CYBLE_GATT_VALUE_T\000"
 3314      455F4741 
 3314      54545F56 
 3314      414C5545 
 3314      5F5400
 3315              	.LASF314:
 3316 0283 6D656D52 		.ascii	"memReq\000"
 3316      657100
 3317              	.LASF199:
 3318 028a 4359424C 		.ascii	"CYBLE_GATT_READ_MULTIPLE_RSP\000"
 3318      455F4741 
 3318      54545F52 
 3318      4541445F 
 3318      4D554C54 
 3319              	.LASF139:
 3320 02a7 74797065 		.ascii	"type\000"
 3320      00
 3321              	.LASF145:
 3322 02ac 4359424C 		.ascii	"CYBLE_TO_REASON_CODE_T\000"
 3322      455F544F 
 3322      5F524541 
 3322      534F4E5F 
 3322      434F4445 
 3323              	.LASF171:
 3324 02c3 4359424C 		.ascii	"CYBLE_GAP_AUTH_ERROR_AUTHENTICATION_TIMEOUT\000"
 3324      455F4741 
 3324      505F4155 
 3324      54485F45 
 3324      52524F52 
 3325              	.LASF164:
 3326 02ef 4359424C 		.ascii	"CYBLE_GAP_AUTH_ERROR_UNSPECIFIED_REASON\000"
 3326      455F4741 
 3326      505F4155 
 3326      54485F45 
 3326      52524F52 
 3327              	.LASF193:
 3328 0317 4359424C 		.ascii	"CYBLE_GATT_READ_BY_TYPE_RSP\000"
 3328      455F4741 
 3328      54545F52 
 3328      4541445F 
 3328      42595F54 
 3329              	.LASF273:
 3330 0333 4359424C 		.ascii	"CYBLE_CALLBACK_T\000"
 3330      455F4341 
 3330      4C4C4241 
 3330      434B5F54 
 3330      00
 3331              	.LASF278:
 3332 0344 4359424C 		.ascii	"CYBLE_DIS_FIRMWARE_REV\000"
 3332      455F4449 
 3332      535F4649 
 3332      524D5741 
 3332      52455F52 
 3333              	.LASF61:
 3334 035b 4359424C 		.ascii	"CYBLE_EVT_GATTC_HANDLE_VALUE_NTF\000"
ARM GAS  C:\Users\behrenb2\AppData\Local\Temp\ccNHrcVd.s 			page 98


 3334      455F4556 
 3334      545F4741 
 3334      5454435F 
 3334      48414E44 
 3335              	.LASF24:
 3336 037c 4359424C 		.ascii	"CYBLE_EVT_GAP_AUTH_REQ\000"
 3336      455F4556 
 3336      545F4741 
 3336      505F4155 
 3336      54485F52 
 3337              	.LASF256:
 3338 0393 4359424C 		.ascii	"CYBLE_CONN_HANDLE_T\000"
 3338      455F434F 
 3338      4E4E5F48 
 3338      414E444C 
 3338      455F5400 
 3339              	.LASF93:
 3340 03a7 4359424C 		.ascii	"CYBLE_ERROR_BT_ON_NOT_COMPLETED\000"
 3340      455F4552 
 3340      524F525F 
 3340      42545F4F 
 3340      4E5F4E4F 
 3341              	.LASF151:
 3342 03c7 4359424C 		.ascii	"CYBLE_GAP_IOCAP_DISPLAY_ONLY\000"
 3342      455F4741 
 3342      505F494F 
 3342      4341505F 
 3342      44495350 
 3343              	.LASF117:
 3344 03e4 4359424C 		.ascii	"CYBLE_LL_PWR_LVL_NEG_3_DBM\000"
 3344      455F4C4C 
 3344      5F505752 
 3344      5F4C564C 
 3344      5F4E4547 
 3345              	.LASF307:
 3346 03ff 61646472 		.ascii	"addressValid\000"
 3346      65737356 
 3346      616C6964 
 3346      00
 3347              	.LASF295:
 3348 040c 4359424C 		.ascii	"CYBLE_STATE_ADVERTISING\000"
 3348      455F5354 
 3348      4154455F 
 3348      41445645 
 3348      52544953 
 3349              	.LASF38:
 3350 0424 4359424C 		.ascii	"CYBLE_EVT_GAP_OOB_GENERATED_NOTIFICATION\000"
 3350      455F4556 
 3350      545F4741 
 3350      505F4F4F 
 3350      425F4745 
 3351              	.LASF254:
 3352 044d 62644861 		.ascii	"bdHandle\000"
 3352      6E646C65 
 3352      00
 3353              	.LASF243:
 3354 0456 4359424C 		.ascii	"CYBLE_GATTS_ERR_NETWORK_NOT_AVAILABLE\000"
ARM GAS  C:\Users\behrenb2\AppData\Local\Temp\ccNHrcVd.s 			page 99


 3354      455F4741 
 3354      5454535F 
 3354      4552525F 
 3354      4E455457 
 3355              	.LASF157:
 3356 047c 4359424C 		.ascii	"CYBLE_GAP_AUTH_ERROR_PASSKEY_ENTRY_FAILED\000"
 3356      455F4741 
 3356      505F4155 
 3356      54485F45 
 3356      52524F52 
 3357              	.LASF246:
 3358 04a6 4359424C 		.ascii	"CYBLE_GATT_ERR_ANCS_INVALID_COMMAND\000"
 3358      455F4741 
 3358      54545F45 
 3358      52525F41 
 3358      4E43535F 
 3359              	.LASF115:
 3360 04ca 4359424C 		.ascii	"CYBLE_LL_PWR_LVL_NEG_12_DBM\000"
 3360      455F4C4C 
 3360      5F505752 
 3360      5F4C564C 
 3360      5F4E4547 
 3361              	.LASF187:
 3362 04e6 4359424C 		.ascii	"CYBLE_GATT_XCHNG_MTU_RSP\000"
 3362      455F4741 
 3362      54545F58 
 3362      43484E47 
 3362      5F4D5455 
 3363              	.LASF57:
 3364 04ff 4359424C 		.ascii	"CYBLE_EVT_GATTS_WRITE_CMD_REQ\000"
 3364      455F4556 
 3364      545F4741 
 3364      5454535F 
 3364      57524954 
 3365              	.LASF4:
 3366 051d 6C6F6E67 		.ascii	"long int\000"
 3366      20696E74 
 3366      00
 3367              	.LASF286:
 3368 0526 4359424C 		.ascii	"CYBLE_HTS_INTERM_TEMP\000"
 3368      455F4854 
 3368      535F494E 
 3368      5445524D 
 3368      5F54454D 
 3369              	.LASF146:
 3370 053c 4359424C 		.ascii	"CYBLE_GAP_SEC_LEVEL_1\000"
 3370      455F4741 
 3370      505F5345 
 3370      435F4C45 
 3370      56454C5F 
 3371              	.LASF147:
 3372 0552 4359424C 		.ascii	"CYBLE_GAP_SEC_LEVEL_2\000"
 3372      455F4741 
 3372      505F5345 
 3372      435F4C45 
 3372      56454C5F 
 3373              	.LASF148:
ARM GAS  C:\Users\behrenb2\AppData\Local\Temp\ccNHrcVd.s 			page 100


 3374 0568 4359424C 		.ascii	"CYBLE_GAP_SEC_LEVEL_3\000"
 3374      455F4741 
 3374      505F5345 
 3374      435F4C45 
 3374      56454C5F 
 3375              	.LASF149:
 3376 057e 4359424C 		.ascii	"CYBLE_GAP_SEC_LEVEL_4\000"
 3376      455F4741 
 3376      505F5345 
 3376      435F4C45 
 3376      56454C5F 
 3377              	.LASF191:
 3378 0594 4359424C 		.ascii	"CYBLE_GATT_FIND_BY_TYPE_VALUE_RSP\000"
 3378      455F4741 
 3378      54545F46 
 3378      494E445F 
 3378      42595F54 
 3379              	.LASF17:
 3380 05b6 4359424C 		.ascii	"CYBLE_EVT_STACK_ON\000"
 3380      455F4556 
 3380      545F5354 
 3380      41434B5F 
 3380      4F4E00
 3381              	.LASF100:
 3382 05c9 4359424C 		.ascii	"CYBLE_ERROR_L2CAP_PSM_NOT_IN_RANGE\000"
 3382      455F4552 
 3382      524F525F 
 3382      4C324341 
 3382      505F5053 
 3383              	.LASF277:
 3384 05ec 4359424C 		.ascii	"CYBLE_DIS_HARDWARE_REV\000"
 3384      455F4449 
 3384      535F4841 
 3384      52445741 
 3384      52455F52 
 3385              	.LASF320:
 3386 0603 6379426C 		.ascii	"cyBle_deviceAddress\000"
 3386      655F6465 
 3386      76696365 
 3386      41646472 
 3386      65737300 
 3387              	.LASF242:
 3388 0617 4359424C 		.ascii	"CYBLE_GATTS_ERR_HPS_INVALID_REQUEST\000"
 3388      455F4741 
 3388      5454535F 
 3388      4552525F 
 3388      4850535F 
 3389              	.LASF218:
 3390 063b 4359424C 		.ascii	"CYBLE_GATT_ERR_INVALID_PDU\000"
 3390      455F4741 
 3390      54545F45 
 3390      52525F49 
 3390      4E56414C 
 3391              	.LASF328:
 3392 0656 2E5C4765 		.ascii	".\\Generated_Source\\PSoC4\\BLE_eventHandler.c\000"
 3392      6E657261 
 3392      7465645F 
ARM GAS  C:\Users\behrenb2\AppData\Local\Temp\ccNHrcVd.s 			page 101


 3392      536F7572 
 3392      63655C50 
 3393              	.LASF112:
 3394 0682 4359424C 		.ascii	"CYBLE_ERROR_CHAR_IS_NOT_DISCOVERED\000"
 3394      455F4552 
 3394      524F525F 
 3394      43484152 
 3394      5F49535F 
 3395              	.LASF261:
 3396 06a5 4359424C 		.ascii	"CYBLE_GATT_HANDLE_VALUE_PAIR_T\000"
 3396      455F4741 
 3396      54545F48 
 3396      414E444C 
 3396      455F5641 
 3397              	.LASF129:
 3398 06c4 626C6553 		.ascii	"bleSsChId\000"
 3398      73436849 
 3398      6400
 3399              	.LASF70:
 3400 06ce 4359424C 		.ascii	"CYBLE_EVT_L2CAP_COMMAND_REJ\000"
 3400      455F4556 
 3400      545F4C32 
 3400      4341505F 
 3400      434F4D4D 
 3401              	.LASF197:
 3402 06ea 4359424C 		.ascii	"CYBLE_GATT_READ_BLOB_RSP\000"
 3402      455F4741 
 3402      54545F52 
 3402      4541445F 
 3402      424C4F42 
 3403              	.LASF227:
 3404 0703 4359424C 		.ascii	"CYBLE_GATT_ERR_INVALID_ATTRIBUTE_LEN\000"
 3404      455F4741 
 3404      54545F45 
 3404      52525F49 
 3404      4E56414C 
 3405              	.LASF101:
 3406 0728 4359424C 		.ascii	"CYBLE_ERROR_GATT_DB_INVALID_ATTR_HANDLE\000"
 3406      455F4552 
 3406      524F525F 
 3406      47415454 
 3406      5F44425F 
 3407              	.LASF0:
 3408 0750 7369676E 		.ascii	"signed char\000"
 3408      65642063 
 3408      68617200 
 3409              	.LASF114:
 3410 075c 4359424C 		.ascii	"CYBLE_LL_PWR_LVL_NEG_18_DBM\000"
 3410      455F4C4C 
 3410      5F505752 
 3410      5F4C564C 
 3410      5F4E4547 
 3411              	.LASF188:
 3412 0778 4359424C 		.ascii	"CYBLE_GATT_FIND_INFO_REQ\000"
 3412      455F4741 
 3412      54545F46 
 3412      494E445F 
ARM GAS  C:\Users\behrenb2\AppData\Local\Temp\ccNHrcVd.s 			page 102


 3412      494E464F 
 3413              	.LASF19:
 3414 0791 4359424C 		.ascii	"CYBLE_EVT_HARDWARE_ERROR\000"
 3414      455F4556 
 3414      545F4841 
 3414      52445741 
 3414      52455F45 
 3415              	.LASF331:
 3416 07aa 4379426C 		.ascii	"CyBle_EventHandler\000"
 3416      655F4576 
 3416      656E7448 
 3416      616E646C 
 3416      657200
 3417              	.LASF82:
 3418 07bd 4359424C 		.ascii	"CYBLE_ERROR_OK\000"
 3418      455F4552 
 3418      524F525F 
 3418      4F4B00
 3419              	.LASF127:
 3420 07cc 4359424C 		.ascii	"CYBLE_BLESS_PHY_CH_GRP_ID_T\000"
 3420      455F424C 
 3420      4553535F 
 3420      5048595F 
 3420      43485F47 
 3421              	.LASF249:
 3422 07e8 4359424C 		.ascii	"CYBLE_GATT_ERR_CCCD_IMPROPERLY_CONFIGURED\000"
 3422      455F4741 
 3422      54545F45 
 3422      52525F43 
 3422      4343445F 
 3423              	.LASF48:
 3424 0812 4359424C 		.ascii	"CYBLE_EVT_GATTC_READ_BY_GROUP_TYPE_RSP\000"
 3424      455F4556 
 3424      545F4741 
 3424      5454435F 
 3424      52454144 
 3425              	.LASF170:
 3426 0839 4359424C 		.ascii	"CYBLE_GAP_AUTH_ERROR_CROSS_TRANSPORT_KEY_GEN_DER_NO"
 3426      455F4741 
 3426      505F4155 
 3426      54485F45 
 3426      52524F52 
 3427 086c 545F414C 		.ascii	"T_ALLOWED\000"
 3427      4C4F5745 
 3427      4400
 3428              	.LASF292:
 3429 0876 4359424C 		.ascii	"CYBLE_STATE_STOPPED\000"
 3429      455F5354 
 3429      4154455F 
 3429      53544F50 
 3429      50454400 
 3430              	.LASF270:
 3431 088a 4359424C 		.ascii	"CYBLE_GATTS_ERR_PARAM_T\000"
 3431      455F4741 
 3431      5454535F 
 3431      4552525F 
 3431      50415241 
ARM GAS  C:\Users\behrenb2\AppData\Local\Temp\ccNHrcVd.s 			page 103


 3432              	.LASF1:
 3433 08a2 756E7369 		.ascii	"unsigned char\000"
 3433      676E6564 
 3433      20636861 
 3433      7200
 3434              	.LASF47:
 3435 08b0 4359424C 		.ascii	"CYBLE_EVT_GATTC_XCHNG_MTU_RSP\000"
 3435      455F4556 
 3435      545F4741 
 3435      5454435F 
 3435      5843484E 
 3436              	.LASF210:
 3437 08ce 4359424C 		.ascii	"CYBLE_GATT_HANDLE_VALUE_IND\000"
 3437      455F4741 
 3437      54545F48 
 3437      414E444C 
 3437      455F5641 
 3438              	.LASF42:
 3439 08ea 4359424C 		.ascii	"CYBLE_EVT_GAP_SMP_NEGOTIATED_AUTH_INFO\000"
 3439      455F4556 
 3439      545F4741 
 3439      505F534D 
 3439      505F4E45 
 3440              	.LASF77:
 3441 0911 4359424C 		.ascii	"CYBLE_EVT_L2CAP_CBFC_TX_CREDIT_IND\000"
 3441      455F4556 
 3441      545F4C32 
 3441      4341505F 
 3441      43424643 
 3442              	.LASF269:
 3443 0934 6572726F 		.ascii	"errorCode\000"
 3443      72436F64 
 3443      6500
 3444              	.LASF166:
 3445 093e 4359424C 		.ascii	"CYBLE_GAP_AUTH_ERROR_INVALID_PARAMETERS\000"
 3445      455F4741 
 3445      505F4155 
 3445      54485F45 
 3445      52524F52 
 3446              	.LASF136:
 3447 0966 636F6E66 		.ascii	"configMemory\000"
 3447      69674D65 
 3447      6D6F7279 
 3447      00
 3448              	.LASF74:
 3449 0973 4359424C 		.ascii	"CYBLE_EVT_L2CAP_CBFC_DISCONN_CNF\000"
 3449      455F4556 
 3449      545F4C32 
 3449      4341505F 
 3449      43424643 
 3450              	.LASF51:
 3451 0994 4359424C 		.ascii	"CYBLE_EVT_GATTC_FIND_BY_TYPE_VALUE_RSP\000"
 3451      455F4556 
 3451      545F4741 
 3451      5454435F 
 3451      46494E44 
 3452              	.LASF39:
ARM GAS  C:\Users\behrenb2\AppData\Local\Temp\ccNHrcVd.s 			page 104


 3453 09bb 4359424C 		.ascii	"CYBLE_EVT_GAP_DATA_LENGTH_CHANGE\000"
 3453      455F4556 
 3453      545F4741 
 3453      505F4441 
 3453      54415F4C 
 3454              	.LASF14:
 3455 09dc 63686172 		.ascii	"char\000"
 3455      00
 3456              	.LASF118:
 3457 09e1 4359424C 		.ascii	"CYBLE_LL_PWR_LVL_NEG_2_DBM\000"
 3457      455F4C4C 
 3457      5F505752 
 3457      5F4C564C 
 3457      5F4E4547 
 3458              	.LASF203:
 3459 09fc 4359424C 		.ascii	"CYBLE_GATT_WRITE_RSP\000"
 3459      455F4741 
 3459      54545F57 
 3459      52495445 
 3459      5F525350 
 3460              	.LASF54:
 3461 0a11 4359424C 		.ascii	"CYBLE_EVT_GATTC_READ_MULTI_RSP\000"
 3461      455F4556 
 3461      545F4741 
 3461      5454435F 
 3461      52454144 
 3462              	.LASF179:
 3463 0a30 4359424C 		.ascii	"CYBLE_GAP_AUTH_INFO_T\000"
 3463      455F4741 
 3463      505F4155 
 3463      54485F49 
 3463      4E464F5F 
 3464              	.LASF153:
 3465 0a46 4359424C 		.ascii	"CYBLE_GAP_IOCAP_KEYBOARD_ONLY\000"
 3465      455F4741 
 3465      505F494F 
 3465      4341505F 
 3465      4B455942 
 3466              	.LASF16:
 3467 0a64 4359424C 		.ascii	"CYBLE_EVT_HOST_INVALID\000"
 3467      455F4556 
 3467      545F484F 
 3467      53545F49 
 3467      4E56414C 
 3468              	.LASF238:
 3469 0a7b 4359424C 		.ascii	"CYBLE_GATT_ERR_MISSING_CRC\000"
 3469      455F4741 
 3469      54545F45 
 3469      52525F4D 
 3469      49535349 
 3470              	.LASF228:
 3471 0a96 4359424C 		.ascii	"CYBLE_GATT_ERR_UNLIKELY_ERROR\000"
 3471      455F4741 
 3471      54545F45 
 3471      52525F55 
 3471      4E4C494B 
 3472              	.LASF41:
ARM GAS  C:\Users\behrenb2\AppData\Local\Temp\ccNHrcVd.s 			page 105


 3473 0ab4 4359424C 		.ascii	"CYBLE_EVT_GAPC_DIRECT_ADV_REPORT\000"
 3473      455F4556 
 3473      545F4741 
 3473      50435F44 
 3473      49524543 
 3474              	.LASF186:
 3475 0ad5 4359424C 		.ascii	"CYBLE_GATT_XCNHG_MTU_REQ\000"
 3475      455F4741 
 3475      54545F58 
 3475      434E4847 
 3475      5F4D5455 
 3476              	.LASF89:
 3477 0aee 4359424C 		.ascii	"CYBLE_ERROR_NO_DEVICE_ENTITY\000"
 3477      455F4552 
 3477      524F525F 
 3477      4E4F5F44 
 3477      45564943 
 3478              	.LASF53:
 3479 0b0b 4359424C 		.ascii	"CYBLE_EVT_GATTC_READ_BLOB_RSP\000"
 3479      455F4556 
 3479      545F4741 
 3479      5454435F 
 3479      52454144 
 3480              	.LASF306:
 3481 0b29 64657669 		.ascii	"deviceAddress\000"
 3481      63654164 
 3481      64726573 
 3481      7300
 3482              	.LASF319:
 3483 0b37 6379426C 		.ascii	"cyBle_eventHandlerFlag\000"
 3483      655F6576 
 3483      656E7448 
 3483      616E646C 
 3483      6572466C 
 3484              	.LASF60:
 3485 0b4e 4359424C 		.ascii	"CYBLE_EVT_GATTC_EXEC_WRITE_RSP\000"
 3485      455F4556 
 3485      545F4741 
 3485      5454435F 
 3485      45584543 
 3486              	.LASF232:
 3487 0b6d 4359424C 		.ascii	"CYBLE_GATT_ERR_HEART_RATE_CONTROL_POINT_NOT_SUPPORT"
 3487      455F4741 
 3487      54545F45 
 3487      52525F48 
 3487      45415254 
 3488 0ba0 454400   		.ascii	"ED\000"
 3489              	.LASF225:
 3490 0ba3 4359424C 		.ascii	"CYBLE_GATT_ERR_ATTRIBUTE_NOT_LONG\000"
 3490      455F4741 
 3490      54545F45 
 3490      52525F41 
 3490      54545249 
 3491              	.LASF150:
 3492 0bc5 4359424C 		.ascii	"CYBLE_GAP_SEC_LEVEL_MASK\000"
 3492      455F4741 
 3492      505F5345 
ARM GAS  C:\Users\behrenb2\AppData\Local\Temp\ccNHrcVd.s 			page 106


 3492      435F4C45 
 3492      56454C5F 
 3493              	.LASF279:
 3494 0bde 4359424C 		.ascii	"CYBLE_DIS_SOFTWARE_REV\000"
 3494      455F4449 
 3494      535F534F 
 3494      46545741 
 3494      52455F52 
 3495              	.LASF65:
 3496 0bf5 4359424C 		.ascii	"CYBLE_EVT_GATTC_STOP_CMD_COMPLETE\000"
 3496      455F4556 
 3496      545F4741 
 3496      5454435F 
 3496      53544F50 
 3497              	.LASF248:
 3498 0c17 4359424C 		.ascii	"CYBLE_GATT_ERR_ANCS_ACTION_FAILED\000"
 3498      455F4741 
 3498      54545F45 
 3498      52525F41 
 3498      4E43535F 
 3499              	.LASF275:
 3500 0c39 4359424C 		.ascii	"CYBLE_DIS_MODEL_NUMBER\000"
 3500      455F4449 
 3500      535F4D4F 
 3500      44454C5F 
 3500      4E554D42 
 3501              	.LASF324:
 3502 0c50 6379426C 		.ascii	"cyBle_connHandle\000"
 3502      655F636F 
 3502      6E6E4861 
 3502      6E646C65 
 3502      00
 3503              	.LASF280:
 3504 0c61 4359424C 		.ascii	"CYBLE_DIS_SYSTEM_ID\000"
 3504      455F4449 
 3504      535F5359 
 3504      5354454D 
 3504      5F494400 
 3505              	.LASF185:
 3506 0c75 4359424C 		.ascii	"CYBLE_GATT_ERROR_RSP\000"
 3506      455F4741 
 3506      54545F45 
 3506      52524F52 
 3506      5F525350 
 3507              	.LASF108:
 3508 0c8a 4359424C 		.ascii	"CYBLE_ERROR_CONTROLLER_BUSY\000"
 3508      455F4552 
 3508      524F525F 
 3508      434F4E54 
 3508      524F4C4C 
 3509              	.LASF83:
 3510 0ca6 4359424C 		.ascii	"CYBLE_ERROR_INVALID_PARAMETER\000"
 3510      455F4552 
 3510      524F525F 
 3510      494E5641 
 3510      4C49445F 
 3511              	.LASF310:
ARM GAS  C:\Users\behrenb2\AppData\Local\Temp\ccNHrcVd.s 			page 107


 3512 0cc4 4379426C 		.ascii	"CyBle_GapConnUpdateCompleteEventHandler\000"
 3512      655F4761 
 3512      70436F6E 
 3512      6E557064 
 3512      61746543 
 3513              	.LASF169:
 3514 0cec 4359424C 		.ascii	"CYBLE_GAP_AUTH_ERROR_BR_EDR_PAIRING_IN_PROGRESS\000"
 3514      455F4741 
 3514      505F4155 
 3514      54485F45 
 3514      52524F52 
 3515              	.LASF85:
 3516 0d1c 4359424C 		.ascii	"CYBLE_ERROR_MEMORY_ALLOCATION_FAILED\000"
 3516      455F4552 
 3516      524F525F 
 3516      4D454D4F 
 3516      52595F41 
 3517              	.LASF266:
 3518 0d41 70726570 		.ascii	"prepareWriteQueueSize\000"
 3518      61726557 
 3518      72697465 
 3518      51756575 
 3518      6553697A 
 3519              	.LASF321:
 3520 0d57 6379426C 		.ascii	"cyBle_sflashDeviceAddress\000"
 3520      655F7366 
 3520      6C617368 
 3520      44657669 
 3520      63654164 
 3521              	.LASF212:
 3522 0d71 4359424C 		.ascii	"CYBLE_GATT_SIGNED_WRITE_CMD\000"
 3522      455F4741 
 3522      54545F53 
 3522      49474E45 
 3522      445F5752 
 3523              	.LASF239:
 3524 0d8d 4359424C 		.ascii	"CYBLE_GATTS_ERR_CCCD_IMPROPERLY_CONFIGURED\000"
 3524      455F4741 
 3524      5454535F 
 3524      4552525F 
 3524      43434344 
 3525              	.LASF208:
 3526 0db8 4359424C 		.ascii	"CYBLE_GATT_EXECUTE_WRITE_RSP\000"
 3526      455F4741 
 3526      54545F45 
 3526      58454355 
 3526      54455F57 
 3527              	.LASF109:
 3528 0dd5 4359424C 		.ascii	"CYBLE_ERROR_MAX\000"
 3528      455F4552 
 3528      524F525F 
 3528      4D415800 
 3529              	.LASF69:
 3530 0de5 4359424C 		.ascii	"CYBLE_EVT_L2CAP_CONN_PARAM_UPDATE_RSP\000"
 3530      455F4556 
 3530      545F4C32 
 3530      4341505F 
ARM GAS  C:\Users\behrenb2\AppData\Local\Temp\ccNHrcVd.s 			page 108


 3530      434F4E4E 
 3531              	.LASF172:
 3532 0e0b 4359424C 		.ascii	"CYBLE_GAP_AUTH_ERROR_LINK_DISCONNECTED\000"
 3532      455F4741 
 3532      505F4155 
 3532      54485F45 
 3532      52524F52 
 3533              	.LASF233:
 3534 0e32 4359424C 		.ascii	"CYBLE_GATT_ERR_USER_DATA_ACCESS_NOT_PERMITTED\000"
 3534      455F4741 
 3534      54545F45 
 3534      52525F55 
 3534      5345525F 
 3535              	.LASF27:
 3536 0e60 4359424C 		.ascii	"CYBLE_EVT_GAP_AUTH_COMPLETE\000"
 3536      455F4556 
 3536      545F4741 
 3536      505F4155 
 3536      54485F43 
 3537              	.LASF28:
 3538 0e7c 4359424C 		.ascii	"CYBLE_EVT_GAP_AUTH_FAILED\000"
 3538      455F4556 
 3538      545F4741 
 3538      505F4155 
 3538      54485F46 
 3539              	.LASF135:
 3540 0e96 616C6C6F 		.ascii	"allocFree\000"
 3540      63467265 
 3540      6500
 3541              	.LASF201:
 3542 0ea0 4359424C 		.ascii	"CYBLE_GATT_READ_BY_GROUP_RSP\000"
 3542      455F4741 
 3542      54545F52 
 3542      4541445F 
 3542      42595F47 
 3543              	.LASF86:
 3544 0ebd 4359424C 		.ascii	"CYBLE_ERROR_INSUFFICIENT_RESOURCES\000"
 3544      455F4552 
 3544      524F525F 
 3544      494E5355 
 3544      46464943 
 3545              	.LASF237:
 3546 0ee0 4359424C 		.ascii	"CYBLE_GATT_ERR_OP_CODE_NOT_SUPPORTED\000"
 3546      455F4741 
 3546      54545F45 
 3546      52525F4F 
 3546      505F434F 
 3547              	.LASF121:
 3548 0f05 4359424C 		.ascii	"CYBLE_LL_PWR_LVL_3_DBM\000"
 3548      455F4C4C 
 3548      5F505752 
 3548      5F4C564C 
 3548      5F335F44 
 3549              	.LASF5:
 3550 0f1c 6C6F6E67 		.ascii	"long unsigned int\000"
 3550      20756E73 
 3550      69676E65 
ARM GAS  C:\Users\behrenb2\AppData\Local\Temp\ccNHrcVd.s 			page 109


 3550      6420696E 
 3550      7400
 3551              	.LASF194:
 3552 0f2e 4359424C 		.ascii	"CYBLE_GATT_READ_REQ\000"
 3552      455F4741 
 3552      54545F52 
 3552      4541445F 
 3552      52455100 
 3553              	.LASF180:
 3554 0f42 73746174 		.ascii	"status\000"
 3554      757300
 3555              	.LASF119:
 3556 0f49 4359424C 		.ascii	"CYBLE_LL_PWR_LVL_NEG_1_DBM\000"
 3556      455F4C4C 
 3556      5F505752 
 3556      5F4C564C 
 3556      5F4E4547 
 3557              	.LASF106:
 3558 0f64 4359424C 		.ascii	"CYBLE_ERROR_UNSUPPORTED_FEATURE_OR_PARAMETER_VALUE\000"
 3558      455F4552 
 3558      524F525F 
 3558      554E5355 
 3558      50504F52 
 3559              	.LASF132:
 3560 0f97 4359424C 		.ascii	"CYBLE_INVALID_REQUEST\000"
 3560      455F494E 
 3560      56414C49 
 3560      445F5245 
 3560      51554553 
 3561              	.LASF163:
 3562 0fad 4359424C 		.ascii	"CYBLE_GAP_AUTH_ERROR_COMMAND_NOT_SUPPORTED\000"
 3562      455F4741 
 3562      505F4155 
 3562      54485F45 
 3562      52524F52 
 3563              	.LASF159:
 3564 0fd8 4359424C 		.ascii	"CYBLE_GAP_AUTH_ERROR_AUTHENTICATION_REQ_NOT_MET\000"
 3564      455F4741 
 3564      505F4155 
 3564      54485F45 
 3564      52524F52 
 3565              	.LASF209:
 3566 1008 4359424C 		.ascii	"CYBLE_GATT_HANDLE_VALUE_NTF\000"
 3566      455F4741 
 3566      54545F48 
 3566      414E444C 
 3566      455F5641 
 3567              	.LASF96:
 3568 1024 4359424C 		.ascii	"CYBLE_ERROR_L2CAP_PSM_ALREADY_REGISTERED\000"
 3568      455F4552 
 3568      524F525F 
 3568      4C324341 
 3568      505F5053 
 3569              	.LASF245:
 3570 104d 4359424C 		.ascii	"CYBLE_GATT_ERR_ANCS_UNKNOWN_COMMAND\000"
 3570      455F4741 
 3570      54545F45 
ARM GAS  C:\Users\behrenb2\AppData\Local\Temp\ccNHrcVd.s 			page 110


 3570      52525F41 
 3570      4E43535F 
 3571              	.LASF276:
 3572 1071 4359424C 		.ascii	"CYBLE_DIS_SERIAL_NUMBER\000"
 3572      455F4449 
 3572      535F5345 
 3572      5249414C 
 3572      5F4E554D 
 3573              	.LASF287:
 3574 1089 4359424C 		.ascii	"CYBLE_HTS_MEASURE_INTERVAL\000"
 3574      455F4854 
 3574      535F4D45 
 3574      41535552 
 3574      455F494E 
 3575              	.LASF267:
 3576 10a4 4359424C 		.ascii	"CYBLE_PREPARE_WRITE_REQUEST_MEMORY_T\000"
 3576      455F5052 
 3576      45504152 
 3576      455F5752 
 3576      4954455F 
 3577              	.LASF33:
 3578 10c9 4359424C 		.ascii	"CYBLE_EVT_GAP_CONNECTION_UPDATE_COMPLETE\000"
 3578      455F4556 
 3578      545F4741 
 3578      505F434F 
 3578      4E4E4543 
 3579              	.LASF325:
 3580 10f2 6379426C 		.ascii	"cyBle_busyStatus\000"
 3580      655F6275 
 3580      73795374 
 3580      61747573 
 3580      00
 3581              	.LASF293:
 3582 1103 4359424C 		.ascii	"CYBLE_STATE_INITIALIZING\000"
 3582      455F5354 
 3582      4154455F 
 3582      494E4954 
 3582      49414C49 
 3583              	.LASF316:
 3584 111c 6379426C 		.ascii	"cyBle_mtuSize\000"
 3584      655F6D74 
 3584      7553697A 
 3584      6500
 3585              	.LASF165:
 3586 112a 4359424C 		.ascii	"CYBLE_GAP_AUTH_ERROR_REPEATED_ATTEMPTS\000"
 3586      455F4741 
 3586      505F4155 
 3586      54485F45 
 3586      52524F52 
 3587              	.LASF73:
 3588 1151 4359424C 		.ascii	"CYBLE_EVT_L2CAP_CBFC_DISCONN_IND\000"
 3588      455F4556 
 3588      545F4C32 
 3588      4341505F 
 3588      43424643 
 3589              	.LASF25:
 3590 1172 4359424C 		.ascii	"CYBLE_EVT_GAP_PASSKEY_ENTRY_REQUEST\000"
ARM GAS  C:\Users\behrenb2\AppData\Local\Temp\ccNHrcVd.s 			page 111


 3590      455F4556 
 3590      545F4741 
 3590      505F5041 
 3590      53534B45 
 3591              	.LASF167:
 3592 1196 4359424C 		.ascii	"CYBLE_GAP_AUTH_ERROR_DHKEY_CHECK_FAILED\000"
 3592      455F4741 
 3592      505F4155 
 3592      54485F45 
 3592      52524F52 
 3593              	.LASF123:
 3594 11be 4359424C 		.ascii	"CYBLE_BLESS_PWR_LVL_T\000"
 3594      455F424C 
 3594      4553535F 
 3594      5057525F 
 3594      4C564C5F 
 3595              	.LASF305:
 3596 11d4 4379426C 		.ascii	"CyBle_GattConnectReqHandler\000"
 3596      655F4761 
 3596      7474436F 
 3596      6E6E6563 
 3596      74526571 
 3597              	.LASF162:
 3598 11f0 4359424C 		.ascii	"CYBLE_GAP_AUTH_ERROR_INSUFFICIENT_ENCRYPTION_KEY_SI"
 3598      455F4741 
 3598      505F4155 
 3598      54485F45 
 3598      52524F52 
 3599 1223 5A4500   		.ascii	"ZE\000"
 3600              	.LASF6:
 3601 1226 6C6F6E67 		.ascii	"long long int\000"
 3601      206C6F6E 
 3601      6720696E 
 3601      7400
 3602              	.LASF304:
 3603 1234 4379426C 		.ascii	"CyBle_GattDisconnectEventHandler\000"
 3603      655F4761 
 3603      74744469 
 3603      73636F6E 
 3603      6E656374 
 3604              	.LASF282:
 3605 1255 4359424C 		.ascii	"CYBLE_DIS_PNP_ID\000"
 3605      455F4449 
 3605      535F504E 
 3605      505F4944 
 3605      00
 3606              	.LASF137:
 3607 1266 4359424C 		.ascii	"CYBLE_MEMORY_REQUEST_T\000"
 3607      455F4D45 
 3607      4D4F5259 
 3607      5F524551 
 3607      55455354 
 3608              	.LASF174:
 3609 127d 73656375 		.ascii	"security\000"
 3609      72697479 
 3609      00
 3610              	.LASF223:
ARM GAS  C:\Users\behrenb2\AppData\Local\Temp\ccNHrcVd.s 			page 112


 3611 1286 4359424C 		.ascii	"CYBLE_GATT_ERR_PREPARE_WRITE_QUEUE_FULL\000"
 3611      455F4741 
 3611      54545F45 
 3611      52525F50 
 3611      52455041 
 3612              	.LASF97:
 3613 12ae 4359424C 		.ascii	"CYBLE_ERROR_L2CAP_PSM_NOT_REGISTERED\000"
 3613      455F4552 
 3613      524F525F 
 3613      4C324341 
 3613      505F5053 
 3614              	.LASF87:
 3615 12d3 4359424C 		.ascii	"CYBLE_ERROR_OOB_NOT_AVAILABLE\000"
 3615      455F4552 
 3615      524F525F 
 3615      4F4F425F 
 3615      4E4F545F 
 3616              	.LASF13:
 3617 12f1 646F7562 		.ascii	"double\000"
 3617      6C6500
 3618              	.LASF102:
 3619 12f8 4359424C 		.ascii	"CYBLE_ERROR_DEVICE_ALREADY_EXISTS\000"
 3619      455F4552 
 3619      524F525F 
 3619      44455649 
 3619      43455F41 
 3620              	.LASF291:
 3621 131a 4359424C 		.ascii	"CYBLE_HTS_DESCR_COUNT\000"
 3621      455F4854 
 3621      535F4445 
 3621      5343525F 
 3621      434F554E 
 3622              	.LASF79:
 3623 1330 4359424C 		.ascii	"CYBLE_EVT_PENDING_FLASH_WRITE\000"
 3623      455F4556 
 3623      545F5045 
 3623      4E44494E 
 3623      475F464C 
 3624              	.LASF226:
 3625 134e 4359424C 		.ascii	"CYBLE_GATT_ERR_INSUFFICIENT_ENC_KEY_SIZE\000"
 3625      455F4741 
 3625      54545F45 
 3625      52525F49 
 3625      4E535546 
 3626              	.LASF122:
 3627 1377 4359424C 		.ascii	"CYBLE_LL_PWR_LVL_MAX\000"
 3627      455F4C4C 
 3627      5F505752 
 3627      5F4C564C 
 3627      5F4D4158 
 3628              	.LASF250:
 3629 138c 4359424C 		.ascii	"CYBLE_GATT_ERR_PROCEDURE_ALREADY_IN_PROGRESS\000"
 3629      455F4741 
 3629      54545F45 
 3629      52525F50 
 3629      524F4345 
 3630              	.LASF40:
ARM GAS  C:\Users\behrenb2\AppData\Local\Temp\ccNHrcVd.s 			page 113


 3631 13b9 4359424C 		.ascii	"CYBLE_EVT_GAP_ENHANCE_CONN_COMPLETE\000"
 3631      455F4556 
 3631      545F4741 
 3631      505F454E 
 3631      48414E43 
 3632              	.LASF99:
 3633 13dd 4359424C 		.ascii	"CYBLE_ERROR_L2CAP_CHANNEL_NOT_FOUND\000"
 3633      455F4552 
 3633      524F525F 
 3633      4C324341 
 3633      505F4348 
 3634              	.LASF90:
 3635 1401 4359424C 		.ascii	"CYBLE_ERROR_REPEATED_ATTEMPTS\000"
 3635      455F4552 
 3635      524F525F 
 3635      52455045 
 3635      41544544 
 3636              	.LASF301:
 3637 141f 4379426C 		.ascii	"CyBle_ValueConfirmation\000"
 3637      655F5661 
 3637      6C756543 
 3637      6F6E6669 
 3637      726D6174 
 3638              	.LASF12:
 3639 1437 666C6F61 		.ascii	"float\000"
 3639      7400
 3640              	.LASF103:
 3641 143d 4359424C 		.ascii	"CYBLE_ERROR_FLASH_WRITE_NOT_PERMITED\000"
 3641      455F4552 
 3641      524F525F 
 3641      464C4153 
 3641      485F5752 
 3642              	.LASF66:
 3643 1462 4359424C 		.ascii	"CYBLE_EVT_GATTS_READ_CHAR_VAL_ACCESS_REQ\000"
 3643      455F4556 
 3643      545F4741 
 3643      5454535F 
 3643      52454144 
 3644              	.LASF268:
 3645 148b 6F70636F 		.ascii	"opcode\000"
 3645      646500
 3646              	.LASF222:
 3647 1492 4359424C 		.ascii	"CYBLE_GATT_ERR_INSUFFICIENT_AUTHORIZATION\000"
 3647      455F4741 
 3647      54545F45 
 3647      52525F49 
 3647      4E535546 
 3648              	.LASF260:
 3649 14bc 61747472 		.ascii	"attrHandle\000"
 3649      48616E64 
 3649      6C6500
 3650              	.LASF175:
 3651 14c7 626F6E64 		.ascii	"bonding\000"
 3651      696E6700 
 3652              	.LASF272:
 3653 14cf 4359424C 		.ascii	"CYBLE_GATTS_WRITE_REQ_PARAM_T\000"
 3653      455F4741 
ARM GAS  C:\Users\behrenb2\AppData\Local\Temp\ccNHrcVd.s 			page 114


 3653      5454535F 
 3653      57524954 
 3653      455F5245 
 3654              	.LASF8:
 3655 14ed 756E7369 		.ascii	"unsigned int\000"
 3655      676E6564 
 3655      20696E74 
 3655      00
 3656              	.LASF58:
 3657 14fa 4359424C 		.ascii	"CYBLE_EVT_GATTS_PREP_WRITE_REQ\000"
 3657      455F4556 
 3657      545F4741 
 3657      5454535F 
 3657      50524550 
 3658              	.LASF219:
 3659 1519 4359424C 		.ascii	"CYBLE_GATT_ERR_INSUFFICIENT_AUTHENTICATION\000"
 3659      455F4741 
 3659      54545F45 
 3659      52525F49 
 3659      4E535546 
 3660              	.LASF263:
 3661 1544 4359424C 		.ascii	"CYBLE_GATT_XCHG_MTU_PARAM_T\000"
 3661      455F4741 
 3661      54545F58 
 3661      4348475F 
 3661      4D54555F 
 3662              	.LASF281:
 3663 1560 4359424C 		.ascii	"CYBLE_DIS_REG_CERT_DATA\000"
 3663      455F4449 
 3663      535F5245 
 3663      475F4345 
 3663      52545F44 
 3664              	.LASF125:
 3665 1578 4359424C 		.ascii	"CYBLE_LL_CONN_CH_TYPE\000"
 3665      455F4C4C 
 3665      5F434F4E 
 3665      4E5F4348 
 3665      5F545950 
 3666              	.LASF236:
 3667 158e 4359424C 		.ascii	"CYBLE_GATTS_ERR_PROCEDURE_ALREADY_IN_PROGRESS\000"
 3667      455F4741 
 3667      5454535F 
 3667      4552525F 
 3667      50524F43 
 3668              	.LASF141:
 3669 15bc 4359424C 		.ascii	"CYBLE_GAP_ADV_MODE_TO\000"
 3669      455F4741 
 3669      505F4144 
 3669      565F4D4F 
 3669      44455F54 
 3670              	.LASF329:
 3671 15d2 483A5C4A 		.ascii	"H:\\Jr Year\\343TermProject\\BLE_Temperature_Measur"
 3671      72205965 
 3671      61725C33 
 3671      34335465 
 3671      726D5072 
 3672 1602 656D656E 		.ascii	"ement01\\BLE_Temperature_Measurement01.cydsn\000"
ARM GAS  C:\Users\behrenb2\AppData\Local\Temp\ccNHrcVd.s 			page 115


 3672      7430315C 
 3672      424C455F 
 3672      54656D70 
 3672      65726174 
 3673              	.LASF299:
 3674 162e 6572725F 		.ascii	"err_param\000"
 3674      70617261 
 3674      6D00
 3675              	.LASF95:
 3676 1638 4359424C 		.ascii	"CYBLE_ERROR_L2CAP_PSM_WRONG_ENCODING\000"
 3676      455F4552 
 3676      524F525F 
 3676      4C324341 
 3676      505F5053 
 3677              	.LASF206:
 3678 165d 4359424C 		.ascii	"CYBLE_GATT_PREPARE_WRITE_RSP\000"
 3678      455F4741 
 3678      54545F50 
 3678      52455041 
 3678      52455F57 
 3679              	.LASF315:
 3680 167a 67507265 		.ascii	"gPrepWriteReqMem\000"
 3680      70577269 
 3680      74655265 
 3680      714D656D 
 3680      00
 3681              	.LASF224:
 3682 168b 4359424C 		.ascii	"CYBLE_GATT_ERR_ATTRIBUTE_NOT_FOUND\000"
 3682      455F4741 
 3682      54545F45 
 3682      52525F41 
 3682      54545249 
 3683              	.LASF81:
 3684 16ae 4359424C 		.ascii	"CYBLE_EVT_MAX\000"
 3684      455F4556 
 3684      545F4D41 
 3684      5800
 3685              	.LASF34:
 3686 16bc 4359424C 		.ascii	"CYBLE_EVT_GAPC_SCAN_START_STOP\000"
 3686      455F4556 
 3686      545F4741 
 3686      50435F53 
 3686      43414E5F 
 3687              	.LASF330:
 3688 16db 4379426C 		.ascii	"CyBle_IsDeviceAddressValid\000"
 3688      655F4973 
 3688      44657669 
 3688      63654164 
 3688      64726573 
 3689              	.LASF173:
 3690 16f6 4359424C 		.ascii	"CYBLE_GAP_AUTH_FAILED_REASON_T\000"
 3690      455F4741 
 3690      505F4155 
 3690      54485F46 
 3690      41494C45 
 3691              	.LASF55:
 3692 1715 4359424C 		.ascii	"CYBLE_EVT_GATTS_WRITE_REQ\000"
ARM GAS  C:\Users\behrenb2\AppData\Local\Temp\ccNHrcVd.s 			page 116


 3692      455F4556 
 3692      545F4741 
 3692      5454535F 
 3692      57524954 
 3693              	.LASF26:
 3694 172f 4359424C 		.ascii	"CYBLE_EVT_GAP_PASSKEY_DISPLAY_REQUEST\000"
 3694      455F4556 
 3694      545F4741 
 3694      505F5041 
 3694      53534B45 
 3695              	.LASF111:
 3696 1755 4359424C 		.ascii	"CYBLE_ERROR_IND_DISABLED\000"
 3696      455F4552 
 3696      524F525F 
 3696      494E445F 
 3696      44495341 
 3697              	.LASF110:
 3698 176e 4359424C 		.ascii	"CYBLE_ERROR_NTF_DISABLED\000"
 3698      455F4552 
 3698      524F525F 
 3698      4E54465F 
 3698      44495341 
 3699              	.LASF198:
 3700 1787 4359424C 		.ascii	"CYBLE_GATT_READ_MULTIPLE_REQ\000"
 3700      455F4741 
 3700      54545F52 
 3700      4541445F 
 3700      4D554C54 
 3701              	.LASF52:
 3702 17a4 4359424C 		.ascii	"CYBLE_EVT_GATTC_READ_RSP\000"
 3702      455F4556 
 3702      545F4741 
 3702      5454435F 
 3702      52454144 
 3703              	.LASF221:
 3704 17bd 4359424C 		.ascii	"CYBLE_GATT_ERR_INVALID_OFFSET\000"
 3704      455F4741 
 3704      54545F45 
 3704      52525F49 
 3704      4E56414C 
 3705              	.LASF192:
 3706 17db 4359424C 		.ascii	"CYBLE_GATT_READ_BY_TYPE_REQ\000"
 3706      455F4741 
 3706      54545F52 
 3706      4541445F 
 3706      42595F54 
 3707              	.LASF72:
 3708 17f7 4359424C 		.ascii	"CYBLE_EVT_L2CAP_CBFC_CONN_CNF\000"
 3708      455F4556 
 3708      545F4C32 
 3708      4341505F 
 3708      43424643 
 3709              	.LASF251:
 3710 1815 4359424C 		.ascii	"CYBLE_GATT_ERR_OUT_OF_RANGE\000"
 3710      455F4741 
 3710      54545F45 
 3710      52525F4F 
ARM GAS  C:\Users\behrenb2\AppData\Local\Temp\ccNHrcVd.s 			page 117


 3710      55545F4F 
 3711              	.LASF190:
 3712 1831 4359424C 		.ascii	"CYBLE_GATT_FIND_BY_TYPE_VALUE_REQ\000"
 3712      455F4741 
 3712      54545F46 
 3712      494E445F 
 3712      42595F54 
 3713              	.LASF116:
 3714 1853 4359424C 		.ascii	"CYBLE_LL_PWR_LVL_NEG_6_DBM\000"
 3714      455F4C4C 
 3714      5F505752 
 3714      5F4C564C 
 3714      5F4E4547 
 3715              	.LASF22:
 3716 186e 4359424C 		.ascii	"CYBLE_EVT_MEMORY_REQUEST\000"
 3716      455F4556 
 3716      545F4D45 
 3716      4D4F5259 
 3716      5F524551 
 3717              	.LASF156:
 3718 1887 4359424C 		.ascii	"CYBLE_GAP_AUTH_ERROR_NONE\000"
 3718      455F4741 
 3718      505F4155 
 3718      54485F45 
 3718      52524F52 
 3719              	.LASF32:
 3720 18a1 4359424C 		.ascii	"CYBLE_EVT_GAP_ENCRYPT_CHANGE\000"
 3720      455F4556 
 3720      545F4741 
 3720      505F454E 
 3720      43525950 
 3721              	.LASF264:
 3722 18be 71756575 		.ascii	"queueBuffer\000"
 3722      65427566 
 3722      66657200 
 3723              	.LASF46:
 3724 18ca 4359424C 		.ascii	"CYBLE_EVT_GATTS_XCNHG_MTU_REQ\000"
 3724      455F4556 
 3724      545F4741 
 3724      5454535F 
 3724      58434E48 
 3725              	.LASF189:
 3726 18e8 4359424C 		.ascii	"CYBLE_GATT_FIND_INFO_RSP\000"
 3726      455F4741 
 3726      54545F46 
 3726      494E445F 
 3726      494E464F 
 3727              	.LASF158:
 3728 1901 4359424C 		.ascii	"CYBLE_GAP_AUTH_ERROR_OOB_DATA_NOT_AVAILABLE\000"
 3728      455F4741 
 3728      505F4155 
 3728      54485F45 
 3728      52524F52 
 3729              	.LASF131:
 3730 192d 4359424C 		.ascii	"CYBLE_PREPARED_WRITE_REQUEST\000"
 3730      455F5052 
 3730      45504152 
ARM GAS  C:\Users\behrenb2\AppData\Local\Temp\ccNHrcVd.s 			page 118


 3730      45445F57 
 3730      52495445 
 3731              	.LASF184:
 3732 194a 4359424C 		.ascii	"CYBLE_GAP_CONN_PARAM_UPDATED_IN_CONTROLLER_T\000"
 3732      455F4741 
 3732      505F434F 
 3732      4E4E5F50 
 3732      4152414D 
 3733              	.LASF274:
 3734 1977 4359424C 		.ascii	"CYBLE_DIS_MANUFACTURER_NAME\000"
 3734      455F4449 
 3734      535F4D41 
 3734      4E554641 
 3734      43545552 
 3735              	.LASF7:
 3736 1993 6C6F6E67 		.ascii	"long long unsigned int\000"
 3736      206C6F6E 
 3736      6720756E 
 3736      7369676E 
 3736      65642069 
 3737              	.LASF215:
 3738 19aa 4359424C 		.ascii	"CYBLE_GATT_ERR_INVALID_HANDLE\000"
 3738      455F4741 
 3738      54545F45 
 3738      52525F49 
 3738      4E56414C 
 3739              	.LASF18:
 3740 19c8 4359424C 		.ascii	"CYBLE_EVT_TIMEOUT\000"
 3740      455F4556 
 3740      545F5449 
 3740      4D454F55 
 3740      5400
 3741              	.LASF213:
 3742 19da 4359424C 		.ascii	"CYBLE_GATT_UNKNOWN_PDU_IND\000"
 3742      455F4741 
 3742      54545F55 
 3742      4E4B4E4F 
 3742      574E5F50 
 3743              	.LASF113:
 3744 19f5 4359424C 		.ascii	"CYBLE_ERROR_INVALID_STATE\000"
 3744      455F4552 
 3744      524F525F 
 3744      494E5641 
 3744      4C49445F 
 3745              	.LASF253:
 3746 1a0f 4359424C 		.ascii	"CYBLE_GATT_DB_ATTR_HANDLE_T\000"
 3746      455F4741 
 3746      54545F44 
 3746      425F4154 
 3746      54525F48 
 3747              	.LASF312:
 3748 1a2b 626C6553 		.ascii	"bleSsPowerLevel\000"
 3748      73506F77 
 3748      65724C65 
 3748      76656C00 
 3749              	.LASF75:
 3750 1a3b 4359424C 		.ascii	"CYBLE_EVT_L2CAP_CBFC_DATA_READ\000"
ARM GAS  C:\Users\behrenb2\AppData\Local\Temp\ccNHrcVd.s 			page 119


 3750      455F4556 
 3750      545F4C32 
 3750      4341505F 
 3750      43424643 
 3751              	.LASF214:
 3752 1a5a 4359424C 		.ascii	"CYBLE_GATT_ERR_NONE\000"
 3752      455F4741 
 3752      54545F45 
 3752      52525F4E 
 3752      4F4E4500 
 3753              	.LASF259:
 3754 1a6e 76616C75 		.ascii	"value\000"
 3754      6500
 3755              	.LASF285:
 3756 1a74 4359424C 		.ascii	"CYBLE_HTS_TEMP_TYPE\000"
 3756      455F4854 
 3756      535F5445 
 3756      4D505F54 
 3756      59504500 
 3757              	.LASF265:
 3758 1a88 746F7461 		.ascii	"totalAttrValueLength\000"
 3758      6C417474 
 3758      7256616C 
 3758      75654C65 
 3758      6E677468 
 3759              	.LASF317:
 3760 1a9d 4379426C 		.ascii	"CyBle_ApplCallback\000"
 3760      655F4170 
 3760      706C4361 
 3760      6C6C6261 
 3760      636B00
 3761              	.LASF107:
 3762 1ab0 4359424C 		.ascii	"CYBLE_ERROR_FLASH_WRITE\000"
 3762      455F4552 
 3762      524F525F 
 3762      464C4153 
 3762      485F5752 
 3763              	.LASF142:
 3764 1ac8 4359424C 		.ascii	"CYBLE_GAP_SCAN_TO\000"
 3764      455F4741 
 3764      505F5343 
 3764      414E5F54 
 3764      4F00
 3765              	.LASF235:
 3766 1ada 4359424C 		.ascii	"CYBLE_GATT_ERR_HTS_OUT_OF_RANGE\000"
 3766      455F4741 
 3766      54545F45 
 3766      52525F48 
 3766      54535F4F 
 3767              	.LASF140:
 3768 1afa 4359424C 		.ascii	"CYBLE_GAP_BD_ADDR_T\000"
 3768      455F4741 
 3768      505F4244 
 3768      5F414444 
 3768      525F5400 
 3769              	.LASF196:
 3770 1b0e 4359424C 		.ascii	"CYBLE_GATT_READ_BLOB_REQ\000"
ARM GAS  C:\Users\behrenb2\AppData\Local\Temp\ccNHrcVd.s 			page 120


 3770      455F4741 
 3770      54545F52 
 3770      4541445F 
 3770      424C4F42 
 3771              	.LASF327:
 3772 1b27 474E5520 		.ascii	"GNU C 4.9.3 20150303 (release) [ARM/embedded-4_9-br"
 3772      4320342E 
 3772      392E3320 
 3772      32303135 
 3772      30333033 
 3773 1b5a 616E6368 		.ascii	"anch revision 221220] -mcpu=cortex-m0 -mthumb -g -O"
 3773      20726576 
 3773      6973696F 
 3773      6E203232 
 3773      31323230 
 3774 1b8d 30202D66 		.ascii	"0 -ffunction-sections -ffat-lto-objects\000"
 3774      66756E63 
 3774      74696F6E 
 3774      2D736563 
 3774      74696F6E 
 3775              	.LASF271:
 3776 1bb5 68616E64 		.ascii	"handleValPair\000"
 3776      6C655661 
 3776      6C506169 
 3776      7200
 3777              	.LASF262:
 3778 1bc3 636F6E6E 		.ascii	"connHandle\000"
 3778      48616E64 
 3778      6C6500
 3779              	.LASF303:
 3780 1bce 4379426C 		.ascii	"CyBle_TimeOutEventHandler\000"
 3780      655F5469 
 3780      6D654F75 
 3780      74457665 
 3780      6E744861 
 3781              	.LASF161:
 3782 1be8 4359424C 		.ascii	"CYBLE_GAP_AUTH_ERROR_PAIRING_NOT_SUPPORTED\000"
 3782      455F4741 
 3782      505F4155 
 3782      54485F45 
 3782      52524F52 
 3783              	.LASF144:
 3784 1c13 4359424C 		.ascii	"CYBLE_GENERIC_TO\000"
 3784      455F4745 
 3784      4E455249 
 3784      435F544F 
 3784      00
 3785              	.LASF50:
 3786 1c24 4359424C 		.ascii	"CYBLE_EVT_GATTC_FIND_INFO_RSP\000"
 3786      455F4556 
 3786      545F4741 
 3786      5454435F 
 3786      46494E44 
 3787              	.LASF49:
 3788 1c42 4359424C 		.ascii	"CYBLE_EVT_GATTC_READ_BY_TYPE_RSP\000"
 3788      455F4556 
 3788      545F4741 
ARM GAS  C:\Users\behrenb2\AppData\Local\Temp\ccNHrcVd.s 			page 121


 3788      5454435F 
 3788      52454144 
 3789              	.LASF240:
 3790 1c63 4359424C 		.ascii	"CYBLE_GATTS_ERR_OPERATION_FAILED\000"
 3790      455F4741 
 3790      5454535F 
 3790      4552525F 
 3790      4F504552 
 3791              	.LASF323:
 3792 1c84 6379426C 		.ascii	"cyBle_state\000"
 3792      655F7374 
 3792      61746500 
 3793              	.LASF288:
 3794 1c90 4359424C 		.ascii	"CYBLE_HTS_CHAR_COUNT\000"
 3794      455F4854 
 3794      535F4348 
 3794      41525F43 
 3794      4F554E54 
 3795              	.LASF178:
 3796 1ca5 70616972 		.ascii	"pairingProperties\000"
 3796      696E6750 
 3796      726F7065 
 3796      72746965 
 3796      7300
 3797              	.LASF56:
 3798 1cb7 4359424C 		.ascii	"CYBLE_EVT_GATTC_WRITE_RSP\000"
 3798      455F4556 
 3798      545F4741 
 3798      5454435F 
 3798      57524954 
 3799              	.LASF296:
 3800 1cd1 4359424C 		.ascii	"CYBLE_STATE_DISCONNECTED\000"
 3800      455F5354 
 3800      4154455F 
 3800      44495343 
 3800      4F4E4E45 
 3801              	.LASF313:
 3802 1cea 6C654D61 		.ascii	"leMask\000"
 3802      736B00
 3803              	.LASF29:
 3804 1cf1 4359424C 		.ascii	"CYBLE_EVT_GAPP_ADVERTISEMENT_START_STOP\000"
 3804      455F4556 
 3804      545F4741 
 3804      50505F41 
 3804      44564552 
 3805              	.LASF9:
 3806 1d19 75696E74 		.ascii	"uint8\000"
 3806      3800
 3807              	.LASF322:
 3808 1d1f 6379426C 		.ascii	"cyBle_authInfo\000"
 3808      655F6175 
 3808      7468496E 
 3808      666F00
 3809              	.LASF37:
 3810 1d2e 4359424C 		.ascii	"CYBLE_EVT_GAP_KEYPRESS_NOTIFICATION\000"
 3810      455F4556 
 3810      545F4741 
ARM GAS  C:\Users\behrenb2\AppData\Local\Temp\ccNHrcVd.s 			page 122


 3810      505F4B45 
 3810      59505245 
 3811              	.LASF308:
 3812 1d52 4379426C 		.ascii	"CyBle_L2Cap_ConnParamUpdateRspEventHandler\000"
 3812      655F4C32 
 3812      4361705F 
 3812      436F6E6E 
 3812      50617261 
 3813              	.LASF202:
 3814 1d7d 4359424C 		.ascii	"CYBLE_GATT_WRITE_REQ\000"
 3814      455F4741 
 3814      54545F57 
 3814      52495445 
 3814      5F524551 
 3815              	.LASF2:
 3816 1d92 73686F72 		.ascii	"short int\000"
 3816      7420696E 
 3816      7400
 3817              	.LASF177:
 3818 1d9c 61757468 		.ascii	"authErr\000"
 3818      45727200 
 3819              	.LASF105:
 3820 1da4 4359424C 		.ascii	"CYBLE_ERROR_HARDWARE_FAILURE\000"
 3820      455F4552 
 3820      524F525F 
 3820      48415244 
 3820      57415245 
 3821              	.LASF234:
 3822 1dc1 4359424C 		.ascii	"CYBLE_GATT_ERR_CPS_INAPPROPRIATE_CONNECTION_PARAMET"
 3822      455F4741 
 3822      54545F45 
 3822      52525F43 
 3822      50535F49 
 3823 1df4 45525300 		.ascii	"ERS\000"
 3824              	.LASF220:
 3825 1df8 4359424C 		.ascii	"CYBLE_GATT_ERR_REQUEST_NOT_SUPPORTED\000"
 3825      455F4741 
 3825      54545F45 
 3825      52525F52 
 3825      45515545 
 3826              	.LASF284:
 3827 1e1d 4359424C 		.ascii	"CYBLE_HTS_TEMP_MEASURE\000"
 3827      455F4854 
 3827      535F5445 
 3827      4D505F4D 
 3827      45415355 
 3828              	.LASF43:
 3829 1e34 4359424C 		.ascii	"CYBLE_EVT_GATTC_ERROR_RSP\000"
 3829      455F4556 
 3829      545F4741 
 3829      5454435F 
 3829      4552524F 
 3830              	.LASF155:
 3831 1e4e 4359424C 		.ascii	"CYBLE_GAP_IOCAP_KEYBOARD_DISPLAY\000"
 3831      455F4741 
 3831      505F494F 
 3831      4341505F 
ARM GAS  C:\Users\behrenb2\AppData\Local\Temp\ccNHrcVd.s 			page 123


 3831      4B455942 
 3832              	.LASF297:
 3833 1e6f 4359424C 		.ascii	"CYBLE_STATE_T\000"
 3833      455F5354 
 3833      4154455F 
 3833      5400
 3834              	.LASF71:
 3835 1e7d 4359424C 		.ascii	"CYBLE_EVT_L2CAP_CBFC_CONN_IND\000"
 3835      455F4556 
 3835      545F4C32 
 3835      4341505F 
 3835      43424643 
 3836              	.LASF59:
 3837 1e9b 4359424C 		.ascii	"CYBLE_EVT_GATTS_EXEC_WRITE_REQ\000"
 3837      455F4556 
 3837      545F4741 
 3837      5454535F 
 3837      45584543 
 3838              	.LASF23:
 3839 1eba 4359424C 		.ascii	"CYBLE_EVT_GAPC_SCAN_PROGRESS_RESULT\000"
 3839      455F4556 
 3839      545F4741 
 3839      50435F53 
 3839      43414E5F 
 3840              	.LASF252:
 3841 1ede 4359424C 		.ascii	"CYBLE_GATT_ERR_CODE_T\000"
 3841      455F4741 
 3841      54545F45 
 3841      52525F43 
 3841      4F44455F 
 3842              	.LASF247:
 3843 1ef4 4359424C 		.ascii	"CYBLE_GATT_ERR_ANCS_INVALID_PARAMETER\000"
 3843      455F4741 
 3843      54545F45 
 3843      52525F41 
 3843      4E43535F 
 3844              	.LASF91:
 3845 1f1a 4359424C 		.ascii	"CYBLE_ERROR_GAP_ROLE\000"
 3845      455F4552 
 3845      524F525F 
 3845      4741505F 
 3845      524F4C45 
 3846              	.LASF318:
 3847 1f2f 6379426C 		.ascii	"cyBle_stackMemoryRam\000"
 3847      655F7374 
 3847      61636B4D 
 3847      656D6F72 
 3847      7952616D 
 3848              	.LASF326:
 3849 1f44 6379426C 		.ascii	"cyBle_advertisingIntervalType\000"
 3849      655F6164 
 3849      76657274 
 3849      6973696E 
 3849      67496E74 
 3850              	.LASF138:
 3851 1f62 62644164 		.ascii	"bdAddr\000"
 3851      647200
ARM GAS  C:\Users\behrenb2\AppData\Local\Temp\ccNHrcVd.s 			page 124


 3852              	.LASF244:
 3853 1f69 4359424C 		.ascii	"CYBLE_GATT_ERR_ANS_COMMAND_NOT_SUPPORTED\000"
 3853      455F4741 
 3853      54545F45 
 3853      52525F41 
 3853      4E535F43 
 3854              	.LASF309:
 3855 1f92 72657370 		.ascii	"response\000"
 3855      6F6E7365 
 3855      00
 3856              	.LASF195:
 3857 1f9b 4359424C 		.ascii	"CYBLE_GATT_READ_RSP\000"
 3857      455F4741 
 3857      54545F52 
 3857      4541445F 
 3857      52535000 
 3858              	.LASF88:
 3859 1faf 4359424C 		.ascii	"CYBLE_ERROR_NO_CONNECTION\000"
 3859      455F4552 
 3859      524F525F 
 3859      4E4F5F43 
 3859      4F4E4E45 
 3860              	.LASF120:
 3861 1fc9 4359424C 		.ascii	"CYBLE_LL_PWR_LVL_0_DBM\000"
 3861      455F4C4C 
 3861      5F505752 
 3861      5F4C564C 
 3861      5F305F44 
 3862              	.LASF124:
 3863 1fe0 4359424C 		.ascii	"CYBLE_LL_ADV_CH_TYPE\000"
 3863      455F4C4C 
 3863      5F414456 
 3863      5F43485F 
 3863      54595045 
 3864              	.LASF80:
 3865 1ff5 4359424C 		.ascii	"CYBLE_EVT_LE_PING_AUTH_TIMEOUT\000"
 3865      455F4556 
 3865      545F4C45 
 3865      5F50494E 
 3865      475F4155 
 3866              	.LASF62:
 3867 2014 4359424C 		.ascii	"CYBLE_EVT_GATTC_HANDLE_VALUE_IND\000"
 3867      455F4556 
 3867      545F4741 
 3867      5454435F 
 3867      48414E44 
 3868              	.LASF311:
 3869 2035 6576656E 		.ascii	"eventCode\000"
 3869      74436F64 
 3869      6500
 3870              	.LASF94:
 3871 203f 4359424C 		.ascii	"CYBLE_ERROR_SEC_FAILED\000"
 3871      455F4552 
 3871      524F525F 
 3871      5345435F 
 3871      4641494C 
 3872              	.LASF21:
ARM GAS  C:\Users\behrenb2\AppData\Local\Temp\ccNHrcVd.s 			page 125


 3873 2056 4359424C 		.ascii	"CYBLE_EVT_STACK_BUSY_STATUS\000"
 3873      455F4556 
 3873      545F5354 
 3873      41434B5F 
 3873      42555359 
 3874              	.LASF182:
 3875 2072 636F6E6E 		.ascii	"connLatency\000"
 3875      4C617465 
 3875      6E637900 
 3876              	.LASF168:
 3877 207e 4359424C 		.ascii	"CYBLE_GAP_AUTH_ERROR_NUMERIC_COMPARISON_FAILED\000"
 3877      455F4741 
 3877      505F4155 
 3877      54485F45 
 3877      52524F52 
 3878              	.LASF152:
 3879 20ad 4359424C 		.ascii	"CYBLE_GAP_IOCAP_DISPLAY_YESNO\000"
 3879      455F4741 
 3879      505F494F 
 3879      4341505F 
 3879      44495350 
 3880              	.LASF35:
 3881 20cb 4359424C 		.ascii	"CYBLE_EVT_GAP_KEYINFO_EXCHNGE_CMPLT\000"
 3881      455F4556 
 3881      545F4741 
 3881      505F4B45 
 3881      59494E46 
 3882              	.LASF207:
 3883 20ef 4359424C 		.ascii	"CYBLE_GATT_EXECUTE_WRITE_REQ\000"
 3883      455F4741 
 3883      54545F45 
 3883      58454355 
 3883      54455F57 
 3884              	.LASF130:
 3885 210c 4359424C 		.ascii	"CYBLE_BLESS_PWR_IN_DB_T\000"
 3885      455F424C 
 3885      4553535F 
 3885      5057525F 
 3885      494E5F44 
 3886              	.LASF126:
 3887 2124 4359424C 		.ascii	"CYBLE_LL_MAX_CH_TYPE\000"
 3887      455F4C4C 
 3887      5F4D4158 
 3887      5F43485F 
 3887      54595045 
 3888              	.LASF68:
 3889 2139 4359424C 		.ascii	"CYBLE_EVT_L2CAP_CONN_PARAM_UPDATE_REQ\000"
 3889      455F4556 
 3889      545F4C32 
 3889      4341505F 
 3889      434F4E4E 
 3890              	.LASF133:
 3891 215f 4359424C 		.ascii	"CYBLE_PROTOCOL_REQ_T\000"
 3891      455F5052 
 3891      4F544F43 
 3891      4F4C5F52 
 3891      45515F54 
ARM GAS  C:\Users\behrenb2\AppData\Local\Temp\ccNHrcVd.s 			page 126


 3892              	.LASF298:
 3893 2174 67617474 		.ascii	"gattErr\000"
 3893      45727200 
 3894              	.LASF217:
 3895 217c 4359424C 		.ascii	"CYBLE_GATT_ERR_WRITE_NOT_PERMITTED\000"
 3895      455F4741 
 3895      54545F45 
 3895      52525F57 
 3895      52495445 
 3896              	.LASF181:
 3897 219f 636F6E6E 		.ascii	"connIntv\000"
 3897      496E7476 
 3897      00
 3898              	.LASF3:
 3899 21a8 73686F72 		.ascii	"short unsigned int\000"
 3899      7420756E 
 3899      7369676E 
 3899      65642069 
 3899      6E7400
 3900              	.LASF229:
 3901 21bb 4359424C 		.ascii	"CYBLE_GATT_ERR_INSUFFICIENT_ENCRYPTION\000"
 3901      455F4741 
 3901      54545F45 
 3901      52525F49 
 3901      4E535546 
 3902              	.LASF294:
 3903 21e2 4359424C 		.ascii	"CYBLE_STATE_CONNECTED\000"
 3903      455F5354 
 3903      4154455F 
 3903      434F4E4E 
 3903      45435445 
 3904              	.LASF257:
 3905 21f8 61637475 		.ascii	"actualLen\000"
 3905      616C4C65 
 3905      6E00
 3906              	.LASF200:
 3907 2202 4359424C 		.ascii	"CYBLE_GATT_READ_BY_GROUP_REQ\000"
 3907      455F4741 
 3907      54545F52 
 3907      4541445F 
 3907      42595F47 
 3908              	.LASF160:
 3909 221f 4359424C 		.ascii	"CYBLE_GAP_AUTH_ERROR_CONFIRM_VALUE_NOT_MATCH\000"
 3909      455F4741 
 3909      505F4155 
 3909      54485F45 
 3909      52524F52 
 3910              	.LASF255:
 3911 224c 61747449 		.ascii	"attId\000"
 3911      6400
 3912              	.LASF84:
 3913 2252 4359424C 		.ascii	"CYBLE_ERROR_INVALID_OPERATION\000"
 3913      455F4552 
 3913      524F525F 
 3913      494E5641 
 3913      4C49445F 
 3914              	.LASF20:
ARM GAS  C:\Users\behrenb2\AppData\Local\Temp\ccNHrcVd.s 			page 127


 3915 2270 4359424C 		.ascii	"CYBLE_EVT_HCI_STATUS\000"
 3915      455F4556 
 3915      545F4843 
 3915      495F5354 
 3915      41545553 
 3916              	.LASF45:
 3917 2285 4359424C 		.ascii	"CYBLE_EVT_GATT_DISCONNECT_IND\000"
 3917      455F4556 
 3917      545F4741 
 3917      54545F44 
 3917      4953434F 
 3918              	.LASF183:
 3919 22a3 73757065 		.ascii	"supervisionTO\000"
 3919      72766973 
 3919      696F6E54 
 3919      4F00
 3920              	.LASF143:
 3921 22b1 4359424C 		.ascii	"CYBLE_GATT_RSP_TO\000"
 3921      455F4741 
 3921      54545F52 
 3921      53505F54 
 3921      4F00
 3922              	.LASF78:
 3923 22c3 4359424C 		.ascii	"CYBLE_EVT_L2CAP_CBFC_DATA_WRITE_IND\000"
 3923      455F4556 
 3923      545F4C32 
 3923      4341505F 
 3923      43424643 
 3924              	.LASF67:
 3925 22e7 4359424C 		.ascii	"CYBLE_EVT_GATTC_LONG_PROCEDURE_END\000"
 3925      455F4556 
 3925      545F4741 
 3925      5454435F 
 3925      4C4F4E47 
 3926              	.LASF31:
 3927 230a 4359424C 		.ascii	"CYBLE_EVT_GAP_DEVICE_DISCONNECTED\000"
 3927      455F4556 
 3927      545F4741 
 3927      505F4445 
 3927      56494345 
 3928              	.LASF63:
 3929 232c 4359424C 		.ascii	"CYBLE_EVT_GATTS_HANDLE_VALUE_CNF\000"
 3929      455F4556 
 3929      545F4741 
 3929      5454535F 
 3929      48414E44 
 3930              	.LASF10:
 3931 234d 75696E74 		.ascii	"uint16\000"
 3931      313600
 3932              	.LASF92:
 3933 2354 4359424C 		.ascii	"CYBLE_ERROR_TX_POWER_READ\000"
 3933      455F4552 
 3933      524F525F 
 3933      54585F50 
 3933      4F574552 
 3934              		.ident	"GCC: (GNU Tools for ARM Embedded Processors) 4.9.3 20150303 (release) [ARM/embedded-4_9-br
