ARM GAS  C:\Users\behrenb2\AppData\Local\Temp\ccwWRafg.s 			page 1


   1              		.cpu cortex-m0
   2              		.fpu softvfp
   3              		.eabi_attribute 20, 1
   4              		.eabi_attribute 21, 1
   5              		.eabi_attribute 23, 3
   6              		.eabi_attribute 24, 1
   7              		.eabi_attribute 25, 1
   8              		.eabi_attribute 26, 1
   9              		.eabi_attribute 30, 6
  10              		.eabi_attribute 34, 0
  11              		.eabi_attribute 18, 4
  12              		.code	16
  13              		.file	"hts.c"
  14              		.text
  15              	.Ltext0:
  16              		.cfi_sections	.debug_frame
  17              		.global	temperatureMeasure
  18              		.bss
  19              		.align	1
  20              		.type	temperatureMeasure, %object
  21              		.size	temperatureMeasure, 2
  22              	temperatureMeasure:
  23 0000 0000     		.space	2
  24              		.global	temperatureTimer
  25              		.data
  26              		.align	2
  27              		.type	temperatureTimer, %object
  28              		.size	temperatureTimer, 4
  29              	temperatureTimer:
  30 0000 01000000 		.word	1
  31              		.global	initialMeasurementInterval
  32              		.align	1
  33              		.type	initialMeasurementInterval, %object
  34              		.size	initialMeasurementInterval, 2
  35              	initialMeasurementInterval:
  36 0004 0A00     		.short	10
  37              		.global	measure
  38              		.type	measure, %object
  39              		.size	measure, 1
  40              	measure:
  41 0006 01       		.byte	1
  42              		.global	temp_data
  43 0007 00       		.bss
  44 0002 0000     		.align	2
  45              		.type	temp_data, %object
  46              		.size	temp_data, 5
  47              	temp_data:
  48 0004 00000000 		.space	5
  48      00
  49              		.section	.text.HtsCallBack,"ax",%progbits
  50              		.align	2
  51              		.global	HtsCallBack
  52              		.code	16
  53              		.thumb_func
  54              		.type	HtsCallBack, %function
  55              	HtsCallBack:
  56              	.LFB37:
ARM GAS  C:\Users\behrenb2\AppData\Local\Temp\ccwWRafg.s 			page 2


  57              		.file 1 ".\\hts.c"
   1:.\hts.c       **** /*******************************************************************************
   2:.\hts.c       **** * File Name: hts.c
   3:.\hts.c       **** *
   4:.\hts.c       **** * Version: 1.0
   5:.\hts.c       **** *
   6:.\hts.c       **** * Description:
   7:.\hts.c       **** *  This file contains HTS callback handler function.
   8:.\hts.c       **** *
   9:.\hts.c       **** * Hardware Dependency:
  10:.\hts.c       **** *  CY8CKIT-042 BLE
  11:.\hts.c       **** * 
  12:.\hts.c       **** ********************************************************************************
  13:.\hts.c       **** * Copyright 2015, Cypress Semiconductor Corporation.  All rights reserved.
  14:.\hts.c       **** * You may use this file only in accordance with the license, terms, conditions,
  15:.\hts.c       **** * disclaimers, and limitations in the end user license agreement accompanying
  16:.\hts.c       **** * the software package with which this file was provided.
  17:.\hts.c       **** *******************************************************************************/
  18:.\hts.c       **** 
  19:.\hts.c       **** #include "common.h"
  20:.\hts.c       **** #include "hts.h"
  21:.\hts.c       **** 
  22:.\hts.c       **** uint16 temperatureMeasure = 0u;
  23:.\hts.c       **** uint32 temperatureTimer = 1u;
  24:.\hts.c       **** 
  25:.\hts.c       **** uint16 initialMeasurementInterval = 10;
  26:.\hts.c       **** uint8 measure = ENABLED; 
  27:.\hts.c       **** 
  28:.\hts.c       **** /* Byte order: 
  29:.\hts.c       **** *   Flags
  30:.\hts.c       **** *   Temperature in float format (MSB 8 bits - exponent, LSB 24 bits - mantissa) 
  31:.\hts.c       **** */
  32:.\hts.c       **** uint8 temp_data[HTS_TEMP_DATA_MIN_SIZE] = {0u, 0u, 0u, 0u, 0u};
  33:.\hts.c       **** 
  34:.\hts.c       **** 
  35:.\hts.c       **** /*******************************************************************************
  36:.\hts.c       **** * Function Name: HtsCallBack()
  37:.\hts.c       **** ********************************************************************************
  38:.\hts.c       **** *
  39:.\hts.c       **** * Summary:
  40:.\hts.c       **** *   This is an event callback function to receive service specific events from 
  41:.\hts.c       **** *   Health Thermometer Service.
  42:.\hts.c       **** *
  43:.\hts.c       **** * Parameters:
  44:.\hts.c       **** *  event - the event code
  45:.\hts.c       **** *  *eventParam - the event parameters
  46:.\hts.c       **** *
  47:.\hts.c       **** * Return:
  48:.\hts.c       **** *  None.
  49:.\hts.c       **** *
  50:.\hts.c       **** *******************************************************************************/
  51:.\hts.c       **** void HtsCallBack(uint32 event, void *eventParam)
  52:.\hts.c       **** {
  58              		.loc 1 52 0
  59              		.cfi_startproc
  60 0000 90B5     		push	{r4, r7, lr}
  61              		.cfi_def_cfa_offset 12
ARM GAS  C:\Users\behrenb2\AppData\Local\Temp\ccwWRafg.s 			page 3


  62              		.cfi_offset 4, -12
  63              		.cfi_offset 7, -8
  64              		.cfi_offset 14, -4
  65 0002 85B0     		sub	sp, sp, #20
  66              		.cfi_def_cfa_offset 32
  67 0004 00AF     		add	r7, sp, #0
  68              		.cfi_def_cfa_register 7
  69 0006 7860     		str	r0, [r7, #4]
  70 0008 3960     		str	r1, [r7]
  53:.\hts.c       ****     uint8 locCharIndex;
  54:.\hts.c       ****     locCharIndex = ((CYBLE_HTS_CHAR_VALUE_T *)eventParam)->charIndex;
  71              		.loc 1 54 0
  72 000a 0F23     		mov	r3, #15
  73 000c FB18     		add	r3, r7, r3
  74 000e 3A68     		ldr	r2, [r7]
  75 0010 9278     		ldrb	r2, [r2, #2]
  76 0012 1A70     		strb	r2, [r3]
  55:.\hts.c       ****     DBG_PRINTF("HTS event: %lx, ", event);
  56:.\hts.c       **** 
  57:.\hts.c       ****     switch(event)
  77              		.loc 1 57 0
  78 0014 7B68     		ldr	r3, [r7, #4]
  79 0016 A53B     		sub	r3, r3, #165
  80 0018 FF3B     		sub	r3, r3, #255
  81 001a 0B2B     		cmp	r3, #11
  82 001c 46D8     		bhi	.L20
  83 001e 9A00     		lsl	r2, r3, #2
  84 0020 254B     		ldr	r3, .L22
  85 0022 D318     		add	r3, r2, r3
  86 0024 1B68     		ldr	r3, [r3]
  87 0026 9F46     		mov	pc, r3
  88              		.section	.rodata
  89              		.align	2
  90              	.L4:
  91 0000 B0000000 		.word	.L21
  92 0004 B0000000 		.word	.L21
  93 0008 28000000 		.word	.L6
  94 000c 48000000 		.word	.L7
  95 0010 B0000000 		.word	.L21
  96 0014 5C000000 		.word	.L9
  97 0018 B0000000 		.word	.L21
  98 001c B0000000 		.word	.L21
  99 0020 B0000000 		.word	.L21
 100 0024 B0000000 		.word	.L21
 101 0028 B0000000 		.word	.L21
 102 002c B0000000 		.word	.L21
 103              		.section	.text.HtsCallBack
 104              	.L6:
  58:.\hts.c       ****     {
  59:.\hts.c       ****         case CYBLE_EVT_HTSS_NOTIFICATION_ENABLED:
  60:.\hts.c       ****             break;
  61:.\hts.c       ****         case CYBLE_EVT_HTSS_NOTIFICATION_DISABLED:
  62:.\hts.c       ****             break;
  63:.\hts.c       ****         case CYBLE_EVT_HTSS_INDICATION_ENABLED:
  64:.\hts.c       ****             DBG_PRINTF("CYBLE_EVT_HTSS_INDICATION_ENABLED: char: %x\r\n", locCharIndex);
  65:.\hts.c       ****             if(locCharIndex == CYBLE_HTS_TEMP_MEASURE)
 105              		.loc 1 65 0
ARM GAS  C:\Users\behrenb2\AppData\Local\Temp\ccwWRafg.s 			page 4


 106 0028 0F23     		mov	r3, #15
 107 002a FB18     		add	r3, r7, r3
 108 002c 1B78     		ldrb	r3, [r3]
 109 002e 002B     		cmp	r3, #0
 110 0030 09D1     		bne	.L17
  66:.\hts.c       ****             {
  67:.\hts.c       ****                 temperatureMeasure = ENABLED;
 111              		.loc 1 67 0
 112 0032 224B     		ldr	r3, .L22+4
 113 0034 0122     		mov	r2, #1
 114 0036 1A80     		strh	r2, [r3]
  68:.\hts.c       ****                 measure = ENABLED;
 115              		.loc 1 68 0
 116 0038 214B     		ldr	r3, .L22+8
 117 003a 0122     		mov	r2, #1
 118 003c 1A70     		strb	r2, [r3]
  69:.\hts.c       ****                 temp_data[0] = 0u;
 119              		.loc 1 69 0
 120 003e 214B     		ldr	r3, .L22+12
 121 0040 0022     		mov	r2, #0
 122 0042 1A70     		strb	r2, [r3]
  70:.\hts.c       ****             }
  71:.\hts.c       ****             break;
 123              		.loc 1 71 0
 124 0044 35E0     		b	.L1
 125              	.L17:
 126 0046 34E0     		b	.L1
 127              	.L7:
  72:.\hts.c       ****         case CYBLE_EVT_HTSS_INDICATION_DISABLED:
  73:.\hts.c       ****             DBG_PRINTF("CYBLE_EVT_HTSS_INDICATION_DISABLED: char: %x\r\n", locCharIndex);
  74:.\hts.c       ****             if(locCharIndex == CYBLE_HTS_TEMP_MEASURE)
 128              		.loc 1 74 0
 129 0048 0F23     		mov	r3, #15
 130 004a FB18     		add	r3, r7, r3
 131 004c 1B78     		ldrb	r3, [r3]
 132 004e 002B     		cmp	r3, #0
 133 0050 03D1     		bne	.L18
  75:.\hts.c       ****             {
  76:.\hts.c       ****                 temperatureMeasure = DISABLED;
 134              		.loc 1 76 0
 135 0052 1A4B     		ldr	r3, .L22+4
 136 0054 0022     		mov	r2, #0
 137 0056 1A80     		strh	r2, [r3]
  77:.\hts.c       ****             }
  78:.\hts.c       ****             break;
 138              		.loc 1 78 0
 139 0058 2BE0     		b	.L1
 140              	.L18:
 141 005a 2AE0     		b	.L1
 142              	.L9:
  79:.\hts.c       ****         case CYBLE_EVT_HTSS_INDICATION_CONFIRMED:
  80:.\hts.c       ****             DBG_PRINTF("CYBLE_EVT_HTSS_INDICATION_CONFIRMED\r\n");
  81:.\hts.c       ****             break;
  82:.\hts.c       ****         case CYBLE_EVT_HTSS_CHAR_WRITE:
  83:.\hts.c       ****             DBG_PRINTF("CYBLE_EVT_HTSS_CHAR_WRITE: %x ", locCharIndex);
  84:.\hts.c       ****             ShowValue(((CYBLE_HTS_CHAR_VALUE_T *)eventParam)->value);
 143              		.loc 1 84 0
ARM GAS  C:\Users\behrenb2\AppData\Local\Temp\ccwWRafg.s 			page 5


 144 005c 3B68     		ldr	r3, [r7]
 145 005e 5B68     		ldr	r3, [r3, #4]
 146 0060 181C     		mov	r0, r3
 147 0062 FFF7FEFF 		bl	ShowValue
  85:.\hts.c       ****             if(locCharIndex == CYBLE_HTS_MEASURE_INTERVAL)
 148              		.loc 1 85 0
 149 0066 0F23     		mov	r3, #15
 150 0068 FB18     		add	r3, r7, r3
 151 006a 1B78     		ldrb	r3, [r3]
 152 006c 032B     		cmp	r3, #3
 153 006e 1CD1     		bne	.L19
 154              	.LBB2:
  86:.\hts.c       ****             {
  87:.\hts.c       ****                 uint16 interval;
  88:.\hts.c       ****                 interval = CyBle_Get16ByPtr(((CYBLE_HTS_CHAR_VALUE_T *)eventParam)->value->val);
 155              		.loc 1 88 0
 156 0070 3B68     		ldr	r3, [r7]
 157 0072 5B68     		ldr	r3, [r3, #4]
 158 0074 1B68     		ldr	r3, [r3]
 159 0076 0C22     		mov	r2, #12
 160 0078 BC18     		add	r4, r7, r2
 161 007a 181C     		mov	r0, r3
 162 007c FFF7FEFF 		bl	CyBle_Get16ByPtr
 163 0080 031C     		mov	r3, r0
 164 0082 2380     		strh	r3, [r4]
  89:.\hts.c       ****                 
  90:.\hts.c       ****                 /* Store new interval value */
  91:.\hts.c       ****                 initialMeasurementInterval = interval;
 165              		.loc 1 91 0
 166 0084 104B     		ldr	r3, .L22+16
 167 0086 0C22     		mov	r2, #12
 168 0088 BA18     		add	r2, r7, r2
 169 008a 1288     		ldrh	r2, [r2]
 170 008c 1A80     		strh	r2, [r3]
  92:.\hts.c       ****                 if(interval != 0u)
 171              		.loc 1 92 0
 172 008e 0C23     		mov	r3, #12
 173 0090 FB18     		add	r3, r7, r3
 174 0092 1B88     		ldrh	r3, [r3]
 175 0094 002B     		cmp	r3, #0
 176 0096 08D0     		beq	.L19
  93:.\hts.c       ****                 {
  94:.\hts.c       ****                     /* Reset the measurement interval and start the measurement process. */
  95:.\hts.c       ****                     temperatureTimer = 1u;
 177              		.loc 1 95 0
 178 0098 0C4B     		ldr	r3, .L22+20
 179 009a 0122     		mov	r2, #1
 180 009c 1A60     		str	r2, [r3]
  96:.\hts.c       ****                     mainTimer++;
 181              		.loc 1 96 0
 182 009e 0C4B     		ldr	r3, .L22+24
 183 00a0 1B68     		ldr	r3, [r3]
 184 00a2 5A1C     		add	r2, r3, #1
 185 00a4 0A4B     		ldr	r3, .L22+24
 186 00a6 1A60     		str	r2, [r3]
 187              	.LBE2:
  97:.\hts.c       ****                 }
ARM GAS  C:\Users\behrenb2\AppData\Local\Temp\ccwWRafg.s 			page 6


  98:.\hts.c       ****             }
  99:.\hts.c       ****             break;
 188              		.loc 1 99 0
 189 00a8 03E0     		b	.L1
 190              	.L19:
 191 00aa 02E0     		b	.L1
 192              	.L20:
 100:.\hts.c       ****         case CYBLE_EVT_HTSC_NOTIFICATION:
 101:.\hts.c       ****             break;
 102:.\hts.c       ****         case CYBLE_EVT_HTSC_INDICATION:
 103:.\hts.c       ****             break;
 104:.\hts.c       ****         case CYBLE_EVT_HTSC_READ_CHAR_RESPONSE:
 105:.\hts.c       ****             break;
 106:.\hts.c       ****         case CYBLE_EVT_HTSC_WRITE_CHAR_RESPONSE:
 107:.\hts.c       ****             break;
 108:.\hts.c       ****         case CYBLE_EVT_HTSC_READ_DESCR_RESPONSE:
 109:.\hts.c       ****             break;
 110:.\hts.c       ****         case CYBLE_EVT_HTSC_WRITE_DESCR_RESPONSE:
 111:.\hts.c       ****             break;
 112:.\hts.c       **** 		default:
 113:.\hts.c       ****             DBG_PRINTF("Not supported event\r\n");
 114:.\hts.c       **** 			break;
 193              		.loc 1 114 0
 194 00ac C046     		mov	r8, r8
 195 00ae 00E0     		b	.L1
 196              	.L21:
 111:.\hts.c       **** 		default:
 197              		.loc 1 111 0
 198 00b0 C046     		mov	r8, r8
 199              	.L1:
 115:.\hts.c       ****     }
 116:.\hts.c       **** }
 200              		.loc 1 116 0
 201 00b2 BD46     		mov	sp, r7
 202 00b4 05B0     		add	sp, sp, #20
 203              		@ sp needed
 204 00b6 90BD     		pop	{r4, r7, pc}
 205              	.L23:
 206              		.align	2
 207              	.L22:
 208 00b8 00000000 		.word	.L4
 209 00bc 00000000 		.word	temperatureMeasure
 210 00c0 00000000 		.word	measure
 211 00c4 00000000 		.word	temp_data
 212 00c8 00000000 		.word	initialMeasurementInterval
 213 00cc 00000000 		.word	temperatureTimer
 214 00d0 00000000 		.word	mainTimer
 215              		.cfi_endproc
 216              	.LFE37:
 217              		.size	HtsCallBack, .-HtsCallBack
 218              		.global	i
 219              		.bss
 220 0009 000000   		.align	2
 221              		.type	i, %object
 222              		.size	i, 4
 223              	i:
 224 000c 00000000 		.space	4
ARM GAS  C:\Users\behrenb2\AppData\Local\Temp\ccwWRafg.s 			page 7


 225              		.section	.text.storeValue,"ax",%progbits
 226              		.align	2
 227              		.global	storeValue
 228              		.code	16
 229              		.thumb_func
 230              		.type	storeValue, %function
 231              	storeValue:
 232              	.LFB38:
 117:.\hts.c       **** 
 118:.\hts.c       **** int i = 0;
 119:.\hts.c       **** void storeValue(int val){
 233              		.loc 1 119 0
 234              		.cfi_startproc
 235 0000 80B5     		push	{r7, lr}
 236              		.cfi_def_cfa_offset 8
 237              		.cfi_offset 7, -8
 238              		.cfi_offset 14, -4
 239 0002 82B0     		sub	sp, sp, #8
 240              		.cfi_def_cfa_offset 16
 241 0004 00AF     		add	r7, sp, #0
 242              		.cfi_def_cfa_register 7
 243 0006 7860     		str	r0, [r7, #4]
 120:.\hts.c       ****     i = val;
 244              		.loc 1 120 0
 245 0008 024B     		ldr	r3, .L25
 246 000a 7A68     		ldr	r2, [r7, #4]
 247 000c 1A60     		str	r2, [r3]
 121:.\hts.c       **** }
 248              		.loc 1 121 0
 249 000e BD46     		mov	sp, r7
 250 0010 02B0     		add	sp, sp, #8
 251              		@ sp needed
 252 0012 80BD     		pop	{r7, pc}
 253              	.L26:
 254              		.align	2
 255              	.L25:
 256 0014 00000000 		.word	i
 257              		.cfi_endproc
 258              	.LFE38:
 259              		.size	storeValue, .-storeValue
 260              		.global	__aeabi_idiv
 261              		.section	.text.MeasureTemperature,"ax",%progbits
 262              		.align	2
 263              		.global	MeasureTemperature
 264              		.code	16
 265              		.thumb_func
 266              		.type	MeasureTemperature, %function
 267              	MeasureTemperature:
 268              	.LFB39:
 122:.\hts.c       **** 
 123:.\hts.c       **** /*******************************************************************************
 124:.\hts.c       **** * Function Name: MeasureTemperature()
 125:.\hts.c       **** ********************************************************************************
 126:.\hts.c       **** *
 127:.\hts.c       **** * Summary:
 128:.\hts.c       **** *   This function measures the die temperature and sends it to the client.
 129:.\hts.c       **** *
ARM GAS  C:\Users\behrenb2\AppData\Local\Temp\ccwWRafg.s 			page 8


 130:.\hts.c       **** *******************************************************************************/
 131:.\hts.c       **** void MeasureTemperature(void)
 132:.\hts.c       **** {
 269              		.loc 1 132 0
 270              		.cfi_startproc
 271 0000 B0B5     		push	{r4, r5, r7, lr}
 272              		.cfi_def_cfa_offset 16
 273              		.cfi_offset 4, -16
 274              		.cfi_offset 5, -12
 275              		.cfi_offset 7, -8
 276              		.cfi_offset 14, -4
 277 0002 82B0     		sub	sp, sp, #8
 278              		.cfi_def_cfa_offset 24
 279 0004 00AF     		add	r7, sp, #0
 280              		.cfi_def_cfa_register 7
 133:.\hts.c       **** 	//int32 ADCCountsCorrected;
 134:.\hts.c       ****     uint8 temperatureValue;
 135:.\hts.c       ****     static uint8 temperatureCelsius;
 136:.\hts.c       ****     CYBLE_API_RESULT_T apiResult;
 137:.\hts.c       ****     
 138:.\hts.c       ****     /* Do not measure temperature when 0 interval is set */
 139:.\hts.c       ****     if((initialMeasurementInterval != 0u) && (--temperatureTimer == 0u)) 
 281              		.loc 1 139 0
 282 0006 304B     		ldr	r3, .L32
 283 0008 1B88     		ldrh	r3, [r3]
 284 000a 002B     		cmp	r3, #0
 285 000c 59D0     		beq	.L27
 286              		.loc 1 139 0 is_stmt 0 discriminator 1
 287 000e 2F4B     		ldr	r3, .L32+4
 288 0010 1B68     		ldr	r3, [r3]
 289 0012 5A1E     		sub	r2, r3, #1
 290 0014 2D4B     		ldr	r3, .L32+4
 291 0016 1A60     		str	r2, [r3]
 292 0018 2C4B     		ldr	r3, .L32+4
 293 001a 1B68     		ldr	r3, [r3]
 294 001c 002B     		cmp	r3, #0
 295 001e 50D1     		bne	.L27
 140:.\hts.c       ****     {
 141:.\hts.c       ****         temperatureTimer = initialMeasurementInterval;
 296              		.loc 1 141 0 is_stmt 1
 297 0020 294B     		ldr	r3, .L32
 298 0022 1B88     		ldrh	r3, [r3]
 299 0024 1A1C     		mov	r2, r3
 300 0026 294B     		ldr	r3, .L32+4
 301 0028 1A60     		str	r2, [r3]
 142:.\hts.c       ****         
 143:.\hts.c       ****         /* Measure Die temperature only first time, later simulate */
 144:.\hts.c       ****         //if(measure != 0u)
 145:.\hts.c       ****         //{
 146:.\hts.c       ****             measure = 0u;
 302              		.loc 1 146 0
 303 002a 294B     		ldr	r3, .L32+8
 304 002c 0022     		mov	r2, #0
 305 002e 1A70     		strb	r2, [r3]
 147:.\hts.c       ****             /* Enables injection channel and performs a measurement. */
 148:.\hts.c       ****             //ADC_EnableInjection();
 149:.\hts.c       ****         	//ADC_StartConvert();
ARM GAS  C:\Users\behrenb2\AppData\Local\Temp\ccwWRafg.s 			page 9


 150:.\hts.c       ****         	//ADC_IsEndConversion(ADC_WAIT_FOR_RESULT_INJ);
 151:.\hts.c       ****             
 152:.\hts.c       ****             /* Read conversion result and adjust data from ADC with respect to Vref value. */
 153:.\hts.c       ****         	//ADCCountsCorrected = ADC_DEFAULT_VREF_MV_VALUE * ADC_GetResult16(ADC_TEMPERATURE_CHANNEL
 154:.\hts.c       **** 
 155:.\hts.c       ****             /* Convert the ADC output to degrees Celsius. */
 156:.\hts.c       ****             //temperatureCelsius = DieTemp_CountsTo_Celsius(ADCCountsCorrected);
 157:.\hts.c       ****             //if(temperatureCelsius>=35)
 158:.\hts.c       ****            // {
 159:.\hts.c       ****             //    Pin_1_Write(1);
 160:.\hts.c       ****             //}
 161:.\hts.c       ****             //else
 162:.\hts.c       ****             //{
 163:.\hts.c       ****             //    Pin_1_Write(0);
 164:.\hts.c       ****             //}
 165:.\hts.c       ****            // if(temperatureCelsius<35)
 166:.\hts.c       ****             //{
 167:.\hts.c       ****             //    Pin_2_Write(1);
 168:.\hts.c       ****             //}
 169:.\hts.c       ****             //else
 170:.\hts.c       ****             //{
 171:.\hts.c       ****             //    Pin_2_Write(0);
 172:.\hts.c       ****             //}
 173:.\hts.c       ****         //}
 174:.\hts.c       ****         //else /* Temperature Simulation */
 175:.\hts.c       ****         //{
 176:.\hts.c       ****             //if(Pin_3_Read() == 1)
 177:.\hts.c       ****             //{
 178:.\hts.c       ****             //    temperatureCelsius += SIM_TEMPERATURE_INCREMENT;
 179:.\hts.c       ****             //}
 180:.\hts.c       ****             //if(Pin_3_Read() == 0)
 181:.\hts.c       ****             //{
 182:.\hts.c       ****             //        temperatureCelsius -= SIM_TEMPERATURE_INCREMENT;
 183:.\hts.c       ****             //}   
 184:.\hts.c       ****             
 185:.\hts.c       ****                 //if(temperatureCelsius > SIM_TEMPERATURE_MAX)
 186:.\hts.c       ****             //{
 187:.\hts.c       ****             //    temperatureCelsius = SIM_TEMPERATURE_MIN; 
 188:.\hts.c       ****             //}
 189:.\hts.c       ****         
 190:.\hts.c       ****         //if(temperatureCelsius>=28)
 191:.\hts.c       ****         //{
 192:.\hts.c       ****         //    Pin_1_Write(1);
 193:.\hts.c       ****         //}
 194:.\hts.c       ****         //else
 195:.\hts.c       ****         //{
 196:.\hts.c       ****         //    Pin_1_Write(0);
 197:.\hts.c       ****         //}
 198:.\hts.c       ****         //if(temperatureCelsius<28)
 199:.\hts.c       ****         //{
 200:.\hts.c       ****         //    Pin_2_Write(1);
 201:.\hts.c       ****         //}
 202:.\hts.c       ****         //else
 203:.\hts.c       ****         //{
 204:.\hts.c       ****         //    Pin_2_Write(0);
 205:.\hts.c       ****         //}
 206:.\hts.c       ****         
ARM GAS  C:\Users\behrenb2\AppData\Local\Temp\ccwWRafg.s 			page 10


 207:.\hts.c       ****         /* Convert Celsius to Fahrenheit if required */
 208:.\hts.c       ****         if((temp_data[0] & CYBLE_HTS_MEAS_FLAG_TEMP_UNITS_BIT) != 0u)
 306              		.loc 1 208 0
 307 0030 284B     		ldr	r3, .L32+12
 308 0032 1B78     		ldrb	r3, [r3]
 309 0034 1A1C     		mov	r2, r3
 310 0036 0123     		mov	r3, #1
 311 0038 1340     		and	r3, r2
 312 003a 0FD0     		beq	.L29
 209:.\hts.c       ****         {
 210:.\hts.c       ****             temperatureValue = 32 + ((temperatureCelsius * 9) / 5);
 313              		.loc 1 210 0
 314 003c 264B     		ldr	r3, .L32+16
 315 003e 1B78     		ldrb	r3, [r3]
 316 0040 1A1C     		mov	r2, r3
 317 0042 131C     		mov	r3, r2
 318 0044 DB00     		lsl	r3, r3, #3
 319 0046 9B18     		add	r3, r3, r2
 320 0048 181C     		mov	r0, r3
 321 004a 0521     		mov	r1, #5
 322 004c FFF7FEFF 		bl	__aeabi_idiv
 323 0050 031C     		mov	r3, r0
 324 0052 DAB2     		uxtb	r2, r3
 325 0054 FB1D     		add	r3, r7, #7
 326 0056 2032     		add	r2, r2, #32
 327 0058 1A70     		strb	r2, [r3]
 328 005a 03E0     		b	.L30
 329              	.L29:
 211:.\hts.c       ****         }
 212:.\hts.c       ****         else
 213:.\hts.c       ****         {
 214:.\hts.c       ****             temperatureValue = temperatureCelsius;
 330              		.loc 1 214 0
 331 005c FB1D     		add	r3, r7, #7
 332 005e 1E4A     		ldr	r2, .L32+16
 333 0060 1278     		ldrb	r2, [r2]
 334 0062 1A70     		strb	r2, [r3]
 335              	.L30:
 215:.\hts.c       ****         }
 216:.\hts.c       ****         temperatureValue = I2C_1_sda_ReadDataReg();
 336              		.loc 1 216 0
 337 0064 FC1D     		add	r4, r7, #7
 338 0066 FFF7FEFF 		bl	I2C_1_sda_ReadDataReg
 339 006a 031C     		mov	r3, r0
 340 006c 2370     		strb	r3, [r4]
 217:.\hts.c       ****         /* Convert int32 to the IEEE-11073 FLOAT-Type.
 218:.\hts.c       ****         *  It is defined as a 32-bit value with a 24-bit mantissa and an 8-bit exponent.
 219:.\hts.c       ****         *  For the integer temperature, 24-bit value has been used with mantissa equal to 0 */
 220:.\hts.c       ****         //temperatureValue &= 0x00FFFFFF;
 221:.\hts.c       **** 
 222:.\hts.c       ****         /* Copy temperature to array */
 223:.\hts.c       ****         Set32ByPtr(temp_data + 1u, (uint32)temperatureValue);
 341              		.loc 1 223 0
 342 006e FB1D     		add	r3, r7, #7
 343 0070 1B78     		ldrb	r3, [r3]
 344 0072 1A4A     		ldr	r2, .L32+20
 345 0074 101C     		mov	r0, r2
ARM GAS  C:\Users\behrenb2\AppData\Local\Temp\ccwWRafg.s 			page 11


 346 0076 191C     		mov	r1, r3
 347 0078 FFF7FEFF 		bl	Set32ByPtr
 224:.\hts.c       ****         
 225:.\hts.c       ****         /* Send temperature to client */
 226:.\hts.c       ****         apiResult = CyBle_HtssSendIndication(cyBle_connHandle, CYBLE_HTS_TEMP_MEASURE, 
 348              		.loc 1 226 0
 349 007c 3C1D     		add	r4, r7, #4
 350 007e 184B     		ldr	r3, .L32+24
 351 0080 144D     		ldr	r5, .L32+12
 352 0082 1A78     		ldrb	r2, [r3]
 353 0084 5B78     		ldrb	r3, [r3, #1]
 354 0086 1B02     		lsl	r3, r3, #8
 355 0088 1A43     		orr	r2, r3
 356 008a 0023     		mov	r3, #0
 357 008c 1204     		lsl	r2, r2, #16
 358 008e 120C     		lsr	r2, r2, #16
 359 0090 1B0C     		lsr	r3, r3, #16
 360 0092 1B04     		lsl	r3, r3, #16
 361 0094 1343     		orr	r3, r2
 362 0096 181C     		mov	r0, r3
 363 0098 0021     		mov	r1, #0
 364 009a 0522     		mov	r2, #5
 365 009c 2B1C     		mov	r3, r5
 366 009e FFF7FEFF 		bl	CyBle_HtssSendIndication
 367 00a2 031C     		mov	r3, r0
 368 00a4 2380     		strh	r3, [r4]
 227:.\hts.c       ****                         sizeof(temp_data), temp_data);
 228:.\hts.c       ****         if(apiResult != CYBLE_ERROR_OK)
 369              		.loc 1 228 0
 370 00a6 3B1D     		add	r3, r7, #4
 371 00a8 1B88     		ldrh	r3, [r3]
 372 00aa 002B     		cmp	r3, #0
 373 00ac 02D0     		beq	.L31
 229:.\hts.c       ****         {
 230:.\hts.c       ****             DBG_PRINTF("CyBle_HtssSendIndication API Error: %x \r\n", apiResult);
 231:.\hts.c       ****             temperatureMeasure = DISABLED;
 374              		.loc 1 231 0
 375 00ae 0D4B     		ldr	r3, .L32+28
 376 00b0 0022     		mov	r2, #0
 377 00b2 1A80     		strh	r2, [r3]
 378              	.L31:
 232:.\hts.c       ****         }
 233:.\hts.c       ****         else
 234:.\hts.c       ****         {
 235:.\hts.c       ****             DBG_PRINTF("MeasureTemperature: %d %c  ", (int16)temperatureValue,
 236:.\hts.c       ****             (((temp_data[0] & CYBLE_HTS_MEAS_FLAG_TEMP_UNITS_BIT) != 0u) ? 'F' : 'C'));
 237:.\hts.c       ****         }
 238:.\hts.c       ****         
 239:.\hts.c       ****         /* Toggle the temperature unit flag on each temperature update */
 240:.\hts.c       ****         temp_data[0] ^= CYBLE_HTS_MEAS_FLAG_TEMP_UNITS_BIT;
 379              		.loc 1 240 0
 380 00b4 074B     		ldr	r3, .L32+12
 381 00b6 1B78     		ldrb	r3, [r3]
 382 00b8 0122     		mov	r2, #1
 383 00ba 5340     		eor	r3, r2
 384 00bc DAB2     		uxtb	r2, r3
 385 00be 054B     		ldr	r3, .L32+12
ARM GAS  C:\Users\behrenb2\AppData\Local\Temp\ccwWRafg.s 			page 12


 386 00c0 1A70     		strb	r2, [r3]
 387              	.L27:
 241:.\hts.c       ****     }
 242:.\hts.c       **** }
 388              		.loc 1 242 0
 389 00c2 BD46     		mov	sp, r7
 390 00c4 02B0     		add	sp, sp, #8
 391              		@ sp needed
 392 00c6 B0BD     		pop	{r4, r5, r7, pc}
 393              	.L33:
 394              		.align	2
 395              	.L32:
 396 00c8 00000000 		.word	initialMeasurementInterval
 397 00cc 00000000 		.word	temperatureTimer
 398 00d0 00000000 		.word	measure
 399 00d4 00000000 		.word	temp_data
 400 00d8 10000000 		.word	temperatureCelsius.7888
 401 00dc 01000000 		.word	temp_data+1
 402 00e0 00000000 		.word	cyBle_connHandle
 403 00e4 00000000 		.word	temperatureMeasure
 404              		.cfi_endproc
 405              	.LFE39:
 406              		.size	MeasureTemperature, .-MeasureTemperature
 407              		.bss
 408              	temperatureCelsius.7888:
 409 0010 00       		.space	1
 410 0011 000000   		.text
 411              	.Letext0:
 412              		.file 2 "Generated_Source\\PSoC4/cytypes.h"
 413              		.file 3 "Generated_Source\\PSoC4/BLE_Stack.h"
 414              		.file 4 "Generated_Source\\PSoC4/BLE_StackGatt.h"
 415              		.file 5 "Generated_Source\\PSoC4/BLE_dis.h"
 416              		.file 6 "Generated_Source\\PSoC4/BLE_hts.h"
 417              		.file 7 "Generated_Source\\PSoC4/BLE_eventHandler.h"
 418              		.file 8 ".\\common.h"